
results-mte-reg/bs.elf:     file format elf64-littleriscv


Disassembly of section .text:

00000000000100e8 <register_fini>:
   100e8:	00000793          	li	a5,0
   100ec:	c791                	beqz	a5,100f8 <register_fini+0x10>
   100ee:	654d                	lui	a0,0x13
   100f0:	f8e50513          	addi	a0,a0,-114 # 12f8e <__libc_fini_array>
   100f4:	20a0906f          	j	192fe <atexit>
   100f8:	8082                	ret

00000000000100fa <_start>:
   100fa:	0000f197          	auipc	gp,0xf
   100fe:	01e18193          	addi	gp,gp,30 # 1f118 <__global_pointer$>
   10102:	76818513          	addi	a0,gp,1896 # 1f880 <cycle_start>
   10106:	00010617          	auipc	a2,0x10
   1010a:	81260613          	addi	a2,a2,-2030 # 1f918 <__BSS_END__>
   1010e:	8e09                	sub	a2,a2,a0
   10110:	4581                	li	a1,0
   10112:	2db000ef          	jal	ra,10bec <memset>
   10116:	00009517          	auipc	a0,0x9
   1011a:	1e850513          	addi	a0,a0,488 # 192fe <atexit>
   1011e:	c519                	beqz	a0,1012c <_start+0x32>
   10120:	00003517          	auipc	a0,0x3
   10124:	e6e50513          	addi	a0,a0,-402 # 12f8e <__libc_fini_array>
   10128:	1d6090ef          	jal	ra,192fe <atexit>
   1012c:	422000ef          	jal	ra,1054e <__libc_init_array>
   10130:	4502                	lw	a0,0(sp)
   10132:	002c                	addi	a1,sp,8
   10134:	4601                	li	a2,0
   10136:	052000ef          	jal	ra,10188 <main>
   1013a:	aedd                	j	10530 <exit>

000000000001013c <__do_global_dtors_aux>:
   1013c:	7a01c703          	lbu	a4,1952(gp) # 1f8b8 <completed.1>
   10140:	e715                	bnez	a4,1016c <__do_global_dtors_aux+0x30>
   10142:	1141                	addi	sp,sp,-16
   10144:	e022                	sd	s0,0(sp)
   10146:	843e                	mv	s0,a5
   10148:	e406                	sd	ra,8(sp)
   1014a:	00000793          	li	a5,0
   1014e:	cb81                	beqz	a5,1015e <__do_global_dtors_aux+0x22>
   10150:	6579                	lui	a0,0x1e
   10152:	69050513          	addi	a0,a0,1680 # 1e690 <__FRAME_END__>
   10156:	00000097          	auipc	ra,0x0
   1015a:	000000e7          	jalr	zero # 0 <register_fini-0x100e8>
   1015e:	4785                	li	a5,1
   10160:	60a2                	ld	ra,8(sp)
   10162:	7af18023          	sb	a5,1952(gp) # 1f8b8 <completed.1>
   10166:	6402                	ld	s0,0(sp)
   10168:	0141                	addi	sp,sp,16
   1016a:	8082                	ret
   1016c:	8082                	ret

000000000001016e <frame_dummy>:
   1016e:	00000793          	li	a5,0
   10172:	cb91                	beqz	a5,10186 <frame_dummy+0x18>
   10174:	6579                	lui	a0,0x1e
   10176:	7a818593          	addi	a1,gp,1960 # 1f8c0 <object.0>
   1017a:	69050513          	addi	a0,a0,1680 # 1e690 <__FRAME_END__>
   1017e:	00000317          	auipc	t1,0x0
   10182:	00000067          	jr	zero # 0 <register_fini-0x100e8>
   10186:	8082                	ret

0000000000010188 <main>:
   10188:	f8010113          	addi	sp,sp,-128
   1018c:	06113c23          	sd	ra,120(sp)
   10190:	06813823          	sd	s0,112(sp)
   10194:	08010413          	addi	s0,sp,128
   10198:	00050613          	mv	a2,a0
   1019c:	00000693          	li	a3,0
   101a0:	fed42623          	sw	a3,-20(s0)
   101a4:	fea42423          	sw	a0,-24(s0)
   101a8:	feb43023          	sd	a1,-32(s0)
   101ac:	00400537          	lui	a0,0x400
   101b0:	faa43c23          	sd	a0,-72(s0)
   101b4:	fac43823          	sd	a2,-80(s0)
   101b8:	fad43423          	sd	a3,-88(s0)
   101bc:	3fc000ef          	jal	ra,105b8 <malloc>
   101c0:	fca43423          	sd	a0,-56(s0)
   101c4:	fc843583          	ld	a1,-56(s0)
   101c8:	0001d537          	lui	a0,0x1d
   101cc:	84550513          	addi	a0,a0,-1979 # 1c845 <__clzdi2+0x3d>
   101d0:	2ed000ef          	jal	ra,10cbc <printf>
   101d4:	fc843583          	ld	a1,-56(s0)
   101d8:	fb843603          	ld	a2,-72(s0)
   101dc:	00c585b3          	add	a1,a1,a2
   101e0:	fcb43023          	sd	a1,-64(s0)
   101e4:	fc043583          	ld	a1,-64(s0)
   101e8:	0001d6b7          	lui	a3,0x1d
   101ec:	84068693          	addi	a3,a3,-1984 # 1c840 <__clzdi2+0x38>
   101f0:	faa43023          	sd	a0,-96(s0)
   101f4:	00068513          	mv	a0,a3
   101f8:	2c5000ef          	jal	ra,10cbc <printf>
   101fc:	fc043583          	ld	a1,-64(s0)
   10200:	00058f93          	mv	t6,a1
   10204:	f8a43c23          	sd	a0,-104(s0)
   10208:	080000ef          	jal	ra,10288 <initialise_board>
   1020c:	2b0000ef          	jal	ra,104bc <initialise_benchmark>
   10210:	f8a43823          	sd	a0,-112(s0)
   10214:	0a4000ef          	jal	ra,102b8 <start_trigger>
   10218:	fa843503          	ld	a0,-88(s0)
   1021c:	fca42e23          	sw	a0,-36(s0)
   10220:	0040006f          	j	10224 <main+0x9c>
   10224:	fdc42503          	lw	a0,-36(s0)
   10228:	00000593          	li	a1,0
   1022c:	02a5c663          	blt	a1,a0,10258 <main+0xd0>
   10230:	0040006f          	j	10234 <main+0xac>
   10234:	288000ef          	jal	ra,104bc <initialise_benchmark>
   10238:	f8a43423          	sd	a0,-120(s0)
   1023c:	2b0000ef          	jal	ra,104ec <benchmark>
   10240:	fca42c23          	sw	a0,-40(s0)
   10244:	0040006f          	j	10248 <main+0xc0>
   10248:	fdc42503          	lw	a0,-36(s0)
   1024c:	00150513          	addi	a0,a0,1
   10250:	fca42e23          	sw	a0,-36(s0)
   10254:	fd1ff06f          	j	10224 <main+0x9c>
   10258:	0a8000ef          	jal	ra,10300 <stop_trigger>
   1025c:	fd842503          	lw	a0,-40(s0)
   10260:	220000ef          	jal	ra,10480 <verify_benchmark>
   10264:	fca42a23          	sw	a0,-44(s0)
   10268:	fc843503          	ld	a0,-56(s0)
   1026c:	354000ef          	jal	ra,105c0 <free>
   10270:	fd442503          	lw	a0,-44(s0)
   10274:	00153513          	seqz	a0,a0
   10278:	07013403          	ld	s0,112(sp)
   1027c:	07813083          	ld	ra,120(sp)
   10280:	08010113          	addi	sp,sp,128
   10284:	00008067          	ret

0000000000010288 <initialise_board>:
   10288:	ff0f8f93          	addi	t6,t6,-16
   1028c:	001fb023          	sd	ra,0(t6)
   10290:	ff010113          	addi	sp,sp,-16
   10294:	00113423          	sd	ra,8(sp)
   10298:	00813023          	sd	s0,0(sp)
   1029c:	01010413          	addi	s0,sp,16
   102a0:	00013403          	ld	s0,0(sp)
   102a4:	00813083          	ld	ra,8(sp)
   102a8:	01010113          	addi	sp,sp,16
   102ac:	000fb083          	ld	ra,0(t6)
   102b0:	010f8f93          	addi	t6,t6,16
   102b4:	00008067          	ret

00000000000102b8 <start_trigger>:
   102b8:	ff0f8f93          	addi	t6,t6,-16
   102bc:	001fb023          	sd	ra,0(t6)
   102c0:	fe010113          	addi	sp,sp,-32
   102c4:	00113c23          	sd	ra,24(sp)
   102c8:	00813823          	sd	s0,16(sp)
   102cc:	02010413          	addi	s0,sp,32
   102d0:	c0002573          	rdcycle	a0
   102d4:	fea43423          	sd	a0,-24(s0)
   102d8:	fe843503          	ld	a0,-24(s0)
   102dc:	fea43023          	sd	a0,-32(s0)
   102e0:	fe043503          	ld	a0,-32(s0)
   102e4:	76a1b423          	sd	a0,1896(gp) # 1f880 <cycle_start>
   102e8:	01013403          	ld	s0,16(sp)
   102ec:	01813083          	ld	ra,24(sp)
   102f0:	02010113          	addi	sp,sp,32
   102f4:	000fb083          	ld	ra,0(t6)
   102f8:	010f8f93          	addi	t6,t6,16
   102fc:	00008067          	ret

0000000000010300 <stop_trigger>:
   10300:	ff0f8f93          	addi	t6,t6,-16
   10304:	001fb023          	sd	ra,0(t6)
   10308:	fd010113          	addi	sp,sp,-48
   1030c:	02113423          	sd	ra,40(sp)
   10310:	02813023          	sd	s0,32(sp)
   10314:	03010413          	addi	s0,sp,48
   10318:	c0002573          	rdcycle	a0
   1031c:	fea43023          	sd	a0,-32(s0)
   10320:	fe043503          	ld	a0,-32(s0)
   10324:	fca43c23          	sd	a0,-40(s0)
   10328:	fd843503          	ld	a0,-40(s0)
   1032c:	fea43423          	sd	a0,-24(s0)
   10330:	fe843503          	ld	a0,-24(s0)
   10334:	7681b583          	ld	a1,1896(gp) # 1f880 <cycle_start>
   10338:	40b505b3          	sub	a1,a0,a1
   1033c:	0001d537          	lui	a0,0x1d
   10340:	85450513          	addi	a0,a0,-1964 # 1c854 <__clzdi2+0x4c>
   10344:	179000ef          	jal	ra,10cbc <printf>
   10348:	02013403          	ld	s0,32(sp)
   1034c:	02813083          	ld	ra,40(sp)
   10350:	03010113          	addi	sp,sp,48
   10354:	000fb083          	ld	ra,0(t6)
   10358:	010f8f93          	addi	t6,t6,16
   1035c:	00008067          	ret

0000000000010360 <binary_search>:
   10360:	ff0f8f93          	addi	t6,t6,-16
   10364:	001fb023          	sd	ra,0(t6)
   10368:	fd010113          	addi	sp,sp,-48
   1036c:	02113423          	sd	ra,40(sp)
   10370:	02813023          	sd	s0,32(sp)
   10374:	03010413          	addi	s0,sp,48
   10378:	00050593          	mv	a1,a0
   1037c:	fea42623          	sw	a0,-20(s0)
   10380:	00000513          	li	a0,0
   10384:	fca42e23          	sw	a0,-36(s0)
   10388:	00e00513          	li	a0,14
   1038c:	fea42023          	sw	a0,-32(s0)
   10390:	00100513          	li	a0,1
   10394:	02051513          	slli	a0,a0,0x20
   10398:	fff50513          	addi	a0,a0,-1
   1039c:	fea42423          	sw	a0,-24(s0)
   103a0:	0040006f          	j	103a4 <binary_search+0x44>
   103a4:	fdc42503          	lw	a0,-36(s0)
   103a8:	fe042583          	lw	a1,-32(s0)
   103ac:	0aa5cc63          	blt	a1,a0,10464 <binary_search+0x104>
   103b0:	0040006f          	j	103b4 <binary_search+0x54>
   103b4:	fdc42503          	lw	a0,-36(s0)
   103b8:	fe042583          	lw	a1,-32(s0)
   103bc:	00b5053b          	addw	a0,a0,a1
   103c0:	00155513          	srli	a0,a0,0x1
   103c4:	fea42223          	sw	a0,-28(s0)
   103c8:	fe442503          	lw	a0,-28(s0)
   103cc:	0001e5b7          	lui	a1,0x1e
   103d0:	6b058593          	addi	a1,a1,1712 # 1e6b0 <data>
   103d4:	00351513          	slli	a0,a0,0x3
   103d8:	00b50533          	add	a0,a0,a1
   103dc:	00052503          	lw	a0,0(a0)
   103e0:	fec42583          	lw	a1,-20(s0)
   103e4:	02b51a63          	bne	a0,a1,10418 <binary_search+0xb8>
   103e8:	0040006f          	j	103ec <binary_search+0x8c>
   103ec:	fdc42503          	lw	a0,-36(s0)
   103f0:	fff50513          	addi	a0,a0,-1
   103f4:	fea42023          	sw	a0,-32(s0)
   103f8:	fe442503          	lw	a0,-28(s0)
   103fc:	00351513          	slli	a0,a0,0x3
   10400:	0001e5b7          	lui	a1,0x1e
   10404:	6b058593          	addi	a1,a1,1712 # 1e6b0 <data>
   10408:	00a58533          	add	a0,a1,a0
   1040c:	00452503          	lw	a0,4(a0)
   10410:	fea42423          	sw	a0,-24(s0)
   10414:	04c0006f          	j	10460 <binary_search+0x100>
   10418:	fe442503          	lw	a0,-28(s0)
   1041c:	0001e5b7          	lui	a1,0x1e
   10420:	6b058593          	addi	a1,a1,1712 # 1e6b0 <data>
   10424:	00351513          	slli	a0,a0,0x3
   10428:	00b50533          	add	a0,a0,a1
   1042c:	00052503          	lw	a0,0(a0)
   10430:	fec42583          	lw	a1,-20(s0)
   10434:	00a5dc63          	bge	a1,a0,1044c <binary_search+0xec>
   10438:	0040006f          	j	1043c <binary_search+0xdc>
   1043c:	fe442503          	lw	a0,-28(s0)
   10440:	fff50513          	addi	a0,a0,-1
   10444:	fea42023          	sw	a0,-32(s0)
   10448:	0140006f          	j	1045c <binary_search+0xfc>
   1044c:	fe442503          	lw	a0,-28(s0)
   10450:	00150513          	addi	a0,a0,1
   10454:	fca42e23          	sw	a0,-36(s0)
   10458:	0040006f          	j	1045c <binary_search+0xfc>
   1045c:	0040006f          	j	10460 <binary_search+0x100>
   10460:	f45ff06f          	j	103a4 <binary_search+0x44>
   10464:	fe842503          	lw	a0,-24(s0)
   10468:	02013403          	ld	s0,32(sp)
   1046c:	02813083          	ld	ra,40(sp)
   10470:	03010113          	addi	sp,sp,48
   10474:	000fb083          	ld	ra,0(t6)
   10478:	010f8f93          	addi	t6,t6,16
   1047c:	00008067          	ret

0000000000010480 <verify_benchmark>:
   10480:	ff0f8f93          	addi	t6,t6,-16
   10484:	001fb023          	sd	ra,0(t6)
   10488:	fe010113          	addi	sp,sp,-32
   1048c:	00113c23          	sd	ra,24(sp)
   10490:	00813823          	sd	s0,16(sp)
   10494:	02010413          	addi	s0,sp,32
   10498:	00050593          	mv	a1,a0
   1049c:	fea42623          	sw	a0,-20(s0)
   104a0:	fff00513          	li	a0,-1
   104a4:	01013403          	ld	s0,16(sp)
   104a8:	01813083          	ld	ra,24(sp)
   104ac:	02010113          	addi	sp,sp,32
   104b0:	000fb083          	ld	ra,0(t6)
   104b4:	010f8f93          	addi	t6,t6,16
   104b8:	00008067          	ret

00000000000104bc <initialise_benchmark>:
   104bc:	ff0f8f93          	addi	t6,t6,-16
   104c0:	001fb023          	sd	ra,0(t6)
   104c4:	ff010113          	addi	sp,sp,-16
   104c8:	00113423          	sd	ra,8(sp)
   104cc:	00813023          	sd	s0,0(sp)
   104d0:	01010413          	addi	s0,sp,16
   104d4:	00013403          	ld	s0,0(sp)
   104d8:	00813083          	ld	ra,8(sp)
   104dc:	01010113          	addi	sp,sp,16
   104e0:	000fb083          	ld	ra,0(t6)
   104e4:	010f8f93          	addi	t6,t6,16
   104e8:	00008067          	ret

00000000000104ec <benchmark>:
   104ec:	ff0f8f93          	addi	t6,t6,-16
   104f0:	001fb023          	sd	ra,0(t6)
   104f4:	fe010113          	addi	sp,sp,-32
   104f8:	00113c23          	sd	ra,24(sp)
   104fc:	00813823          	sd	s0,16(sp)
   10500:	02010413          	addi	s0,sp,32
   10504:	00800513          	li	a0,8
   10508:	e59ff0ef          	jal	ra,10360 <binary_search>
   1050c:	00000593          	li	a1,0
   10510:	fea43423          	sd	a0,-24(s0)
   10514:	00058513          	mv	a0,a1
   10518:	01013403          	ld	s0,16(sp)
   1051c:	01813083          	ld	ra,24(sp)
   10520:	02010113          	addi	sp,sp,32
   10524:	000fb083          	ld	ra,0(t6)
   10528:	010f8f93          	addi	t6,t6,16
   1052c:	00008067          	ret

0000000000010530 <exit>:
   10530:	1141                	addi	sp,sp,-16
   10532:	4581                	li	a1,0
   10534:	e022                	sd	s0,0(sp)
   10536:	e406                	sd	ra,8(sp)
   10538:	842a                	mv	s0,a0
   1053a:	4fc020ef          	jal	ra,12a36 <__call_exitprocs>
   1053e:	7401b503          	ld	a0,1856(gp) # 1f858 <_global_impure_ptr>
   10542:	6d3c                	ld	a5,88(a0)
   10544:	c391                	beqz	a5,10548 <exit+0x18>
   10546:	9782                	jalr	a5
   10548:	8522                	mv	a0,s0
   1054a:	4f90a0ef          	jal	ra,1b242 <_exit>

000000000001054e <__libc_init_array>:
   1054e:	1101                	addi	sp,sp,-32
   10550:	e822                	sd	s0,16(sp)
   10552:	e04a                	sd	s2,0(sp)
   10554:	6479                	lui	s0,0x1e
   10556:	6979                	lui	s2,0x1e
   10558:	69440793          	addi	a5,s0,1684 # 1e694 <__preinit_array_end>
   1055c:	69490913          	addi	s2,s2,1684 # 1e694 <__preinit_array_end>
   10560:	40f90933          	sub	s2,s2,a5
   10564:	ec06                	sd	ra,24(sp)
   10566:	e426                	sd	s1,8(sp)
   10568:	40395913          	srai	s2,s2,0x3
   1056c:	00090b63          	beqz	s2,10582 <__libc_init_array+0x34>
   10570:	69440413          	addi	s0,s0,1684
   10574:	4481                	li	s1,0
   10576:	601c                	ld	a5,0(s0)
   10578:	0485                	addi	s1,s1,1
   1057a:	0421                	addi	s0,s0,8
   1057c:	9782                	jalr	a5
   1057e:	fe991ce3          	bne	s2,s1,10576 <__libc_init_array+0x28>
   10582:	6479                	lui	s0,0x1e
   10584:	6979                	lui	s2,0x1e
   10586:	69840793          	addi	a5,s0,1688 # 1e698 <__init_array_start>
   1058a:	6a890913          	addi	s2,s2,1704 # 1e6a8 <__do_global_dtors_aux_fini_array_entry>
   1058e:	40f90933          	sub	s2,s2,a5
   10592:	40395913          	srai	s2,s2,0x3
   10596:	00090b63          	beqz	s2,105ac <__libc_init_array+0x5e>
   1059a:	69840413          	addi	s0,s0,1688
   1059e:	4481                	li	s1,0
   105a0:	601c                	ld	a5,0(s0)
   105a2:	0485                	addi	s1,s1,1
   105a4:	0421                	addi	s0,s0,8
   105a6:	9782                	jalr	a5
   105a8:	fe991ce3          	bne	s2,s1,105a0 <__libc_init_array+0x52>
   105ac:	60e2                	ld	ra,24(sp)
   105ae:	6442                	ld	s0,16(sp)
   105b0:	64a2                	ld	s1,8(sp)
   105b2:	6902                	ld	s2,0(sp)
   105b4:	6105                	addi	sp,sp,32
   105b6:	8082                	ret

00000000000105b8 <malloc>:
   105b8:	85aa                	mv	a1,a0
   105ba:	7501b503          	ld	a0,1872(gp) # 1f868 <_impure_ptr>
   105be:	a031                	j	105ca <_malloc_r>

00000000000105c0 <free>:
   105c0:	85aa                	mv	a1,a0
   105c2:	7501b503          	ld	a0,1872(gp) # 1f868 <_impure_ptr>
   105c6:	2d30206f          	j	13098 <_free_r>

00000000000105ca <_malloc_r>:
   105ca:	711d                	addi	sp,sp,-96
   105cc:	e4a6                	sd	s1,72(sp)
   105ce:	e0ca                	sd	s2,64(sp)
   105d0:	ec86                	sd	ra,88(sp)
   105d2:	e8a2                	sd	s0,80(sp)
   105d4:	fc4e                	sd	s3,56(sp)
   105d6:	f852                	sd	s4,48(sp)
   105d8:	f456                	sd	s5,40(sp)
   105da:	f05a                	sd	s6,32(sp)
   105dc:	ec5e                	sd	s7,24(sp)
   105de:	e862                	sd	s8,16(sp)
   105e0:	e466                	sd	s9,8(sp)
   105e2:	01758493          	addi	s1,a1,23
   105e6:	02e00793          	li	a5,46
   105ea:	892a                	mv	s2,a0
   105ec:	0497e863          	bltu	a5,s1,1063c <_malloc_r+0x72>
   105f0:	02000793          	li	a5,32
   105f4:	1eb7e463          	bltu	a5,a1,107dc <_malloc_r+0x212>
   105f8:	69e000ef          	jal	ra,10c96 <__malloc_lock>
   105fc:	02000493          	li	s1,32
   10600:	05000793          	li	a5,80
   10604:	4611                	li	a2,4
   10606:	0001f9b7          	lui	s3,0x1f
   1060a:	e7098993          	addi	s3,s3,-400 # 1ee70 <__malloc_av_>
   1060e:	97ce                	add	a5,a5,s3
   10610:	6780                	ld	s0,8(a5)
   10612:	ff078713          	addi	a4,a5,-16
   10616:	1ee40463          	beq	s0,a4,107fe <_malloc_r+0x234>
   1061a:	641c                	ld	a5,8(s0)
   1061c:	6c14                	ld	a3,24(s0)
   1061e:	6810                	ld	a2,16(s0)
   10620:	9bf1                	andi	a5,a5,-4
   10622:	97a2                	add	a5,a5,s0
   10624:	6798                	ld	a4,8(a5)
   10626:	ee14                	sd	a3,24(a2)
   10628:	ea90                	sd	a2,16(a3)
   1062a:	00176713          	ori	a4,a4,1
   1062e:	854a                	mv	a0,s2
   10630:	e798                	sd	a4,8(a5)
   10632:	666000ef          	jal	ra,10c98 <__malloc_unlock>
   10636:	01040513          	addi	a0,s0,16
   1063a:	a26d                	j	107e4 <_malloc_r+0x21a>
   1063c:	800007b7          	lui	a5,0x80000
   10640:	98c1                	andi	s1,s1,-16
   10642:	fff7c793          	not	a5,a5
   10646:	1897eb63          	bltu	a5,s1,107dc <_malloc_r+0x212>
   1064a:	18b4e963          	bltu	s1,a1,107dc <_malloc_r+0x212>
   1064e:	648000ef          	jal	ra,10c96 <__malloc_lock>
   10652:	1f700793          	li	a5,503
   10656:	3a97f363          	bgeu	a5,s1,109fc <_malloc_r+0x432>
   1065a:	0094d793          	srli	a5,s1,0x9
   1065e:	26078f63          	beqz	a5,108dc <_malloc_r+0x312>
   10662:	4711                	li	a4,4
   10664:	30f76363          	bltu	a4,a5,1096a <_malloc_r+0x3a0>
   10668:	0064d793          	srli	a5,s1,0x6
   1066c:	0397861b          	addiw	a2,a5,57
   10670:	0016169b          	slliw	a3,a2,0x1
   10674:	0387851b          	addiw	a0,a5,56
   10678:	068e                	slli	a3,a3,0x3
   1067a:	0001f9b7          	lui	s3,0x1f
   1067e:	e7098993          	addi	s3,s3,-400 # 1ee70 <__malloc_av_>
   10682:	96ce                	add	a3,a3,s3
   10684:	6680                	ld	s0,8(a3)
   10686:	16c1                	addi	a3,a3,-16
   10688:	16868f63          	beq	a3,s0,10806 <_malloc_r+0x23c>
   1068c:	45fd                	li	a1,31
   1068e:	a031                	j	1069a <_malloc_r+0xd0>
   10690:	28075763          	bgez	a4,1091e <_malloc_r+0x354>
   10694:	6c00                	ld	s0,24(s0)
   10696:	16868863          	beq	a3,s0,10806 <_malloc_r+0x23c>
   1069a:	641c                	ld	a5,8(s0)
   1069c:	9bf1                	andi	a5,a5,-4
   1069e:	40978733          	sub	a4,a5,s1
   106a2:	fee5d7e3          	bge	a1,a4,10690 <_malloc_r+0xc6>
   106a6:	0209b403          	ld	s0,32(s3)
   106aa:	0001f837          	lui	a6,0x1f
   106ae:	e8080813          	addi	a6,a6,-384 # 1ee80 <__malloc_av_+0x10>
   106b2:	862a                	mv	a2,a0
   106b4:	17041163          	bne	s0,a6,10816 <_malloc_r+0x24c>
   106b8:	0089b783          	ld	a5,8(s3)
   106bc:	4026571b          	sraiw	a4,a2,0x2
   106c0:	4585                	li	a1,1
   106c2:	00e595b3          	sll	a1,a1,a4
   106c6:	1ab7f863          	bgeu	a5,a1,10876 <_malloc_r+0x2ac>
   106ca:	0109b403          	ld	s0,16(s3)
   106ce:	00843a03          	ld	s4,8(s0)
   106d2:	ffca7a93          	andi	s5,s4,-4
   106d6:	009ae763          	bltu	s5,s1,106e4 <_malloc_r+0x11a>
   106da:	409a87b3          	sub	a5,s5,s1
   106de:	477d                	li	a4,31
   106e0:	22f74063          	blt	a4,a5,10900 <_malloc_r+0x336>
   106e4:	7801ba03          	ld	s4,1920(gp) # 1f898 <__malloc_top_pad>
   106e8:	7581b703          	ld	a4,1880(gp) # 1f870 <__malloc_sbrk_base>
   106ec:	57fd                	li	a5,-1
   106ee:	01540c33          	add	s8,s0,s5
   106f2:	9a26                	add	s4,s4,s1
   106f4:	3af70263          	beq	a4,a5,10a98 <_malloc_r+0x4ce>
   106f8:	6785                	lui	a5,0x1
   106fa:	07fd                	addi	a5,a5,31
   106fc:	9a3e                	add	s4,s4,a5
   106fe:	77fd                	lui	a5,0xfffff
   10700:	00fa7a33          	and	s4,s4,a5
   10704:	85d2                	mv	a1,s4
   10706:	854a                	mv	a0,s2
   10708:	5e0000ef          	jal	ra,10ce8 <_sbrk_r>
   1070c:	57fd                	li	a5,-1
   1070e:	8b2a                	mv	s6,a0
   10710:	30f50b63          	beq	a0,a5,10a26 <_malloc_r+0x45c>
   10714:	31856763          	bltu	a0,s8,10a22 <_malloc_r+0x458>
   10718:	7d818b93          	addi	s7,gp,2008 # 1f8f0 <__malloc_current_mallinfo>
   1071c:	000ba703          	lw	a4,0(s7)
   10720:	014707bb          	addw	a5,a4,s4
   10724:	00fba023          	sw	a5,0(s7)
   10728:	86be                	mv	a3,a5
   1072a:	40ac0063          	beq	s8,a0,10b2a <_malloc_r+0x560>
   1072e:	7581b703          	ld	a4,1880(gp) # 1f870 <__malloc_sbrk_base>
   10732:	57fd                	li	a5,-1
   10734:	40f70763          	beq	a4,a5,10b42 <_malloc_r+0x578>
   10738:	418b07b3          	sub	a5,s6,s8
   1073c:	9fb5                	addw	a5,a5,a3
   1073e:	00fba023          	sw	a5,0(s7)
   10742:	00fb7c13          	andi	s8,s6,15
   10746:	360c0763          	beqz	s8,10ab4 <_malloc_r+0x4ea>
   1074a:	6705                	lui	a4,0x1
   1074c:	418b0b33          	sub	s6,s6,s8
   10750:	01070793          	addi	a5,a4,16 # 1010 <register_fini-0xf0d8>
   10754:	0b41                	addi	s6,s6,16
   10756:	418787b3          	sub	a5,a5,s8
   1075a:	014b0cb3          	add	s9,s6,s4
   1075e:	41978a33          	sub	s4,a5,s9
   10762:	177d                	addi	a4,a4,-1
   10764:	00ea7a33          	and	s4,s4,a4
   10768:	85d2                	mv	a1,s4
   1076a:	854a                	mv	a0,s2
   1076c:	57c000ef          	jal	ra,10ce8 <_sbrk_r>
   10770:	57fd                	li	a5,-1
   10772:	40f50d63          	beq	a0,a5,10b8c <_malloc_r+0x5c2>
   10776:	41650533          	sub	a0,a0,s6
   1077a:	000a071b          	sext.w	a4,s4
   1077e:	9a2a                	add	s4,s4,a0
   10780:	000ba783          	lw	a5,0(s7)
   10784:	0169b823          	sd	s6,16(s3)
   10788:	001a6a13          	ori	s4,s4,1
   1078c:	9fb9                	addw	a5,a5,a4
   1078e:	00fba023          	sw	a5,0(s7)
   10792:	014b3423          	sd	s4,8(s6)
   10796:	3b340963          	beq	s0,s3,10b48 <_malloc_r+0x57e>
   1079a:	467d                	li	a2,31
   1079c:	3b567863          	bgeu	a2,s5,10b4c <_malloc_r+0x582>
   107a0:	6414                	ld	a3,8(s0)
   107a2:	fe8a8713          	addi	a4,s5,-24
   107a6:	9b41                	andi	a4,a4,-16
   107a8:	8a85                	andi	a3,a3,1
   107aa:	8ed9                	or	a3,a3,a4
   107ac:	e414                	sd	a3,8(s0)
   107ae:	45a5                	li	a1,9
   107b0:	00e406b3          	add	a3,s0,a4
   107b4:	e68c                	sd	a1,8(a3)
   107b6:	ea8c                	sd	a1,16(a3)
   107b8:	3ee66163          	bltu	a2,a4,10b9a <_malloc_r+0x5d0>
   107bc:	008b3a03          	ld	s4,8(s6)
   107c0:	845a                	mv	s0,s6
   107c2:	7781b683          	ld	a3,1912(gp) # 1f890 <__malloc_max_sbrked_mem>
   107c6:	00f6f463          	bgeu	a3,a5,107ce <_malloc_r+0x204>
   107ca:	76f1bc23          	sd	a5,1912(gp) # 1f890 <__malloc_max_sbrked_mem>
   107ce:	7701b683          	ld	a3,1904(gp) # 1f888 <__malloc_max_total_mem>
   107d2:	24f6fe63          	bgeu	a3,a5,10a2e <_malloc_r+0x464>
   107d6:	76f1b823          	sd	a5,1904(gp) # 1f888 <__malloc_max_total_mem>
   107da:	ac91                	j	10a2e <_malloc_r+0x464>
   107dc:	47b1                	li	a5,12
   107de:	00f92023          	sw	a5,0(s2)
   107e2:	4501                	li	a0,0
   107e4:	60e6                	ld	ra,88(sp)
   107e6:	6446                	ld	s0,80(sp)
   107e8:	64a6                	ld	s1,72(sp)
   107ea:	6906                	ld	s2,64(sp)
   107ec:	79e2                	ld	s3,56(sp)
   107ee:	7a42                	ld	s4,48(sp)
   107f0:	7aa2                	ld	s5,40(sp)
   107f2:	7b02                	ld	s6,32(sp)
   107f4:	6be2                	ld	s7,24(sp)
   107f6:	6c42                	ld	s8,16(sp)
   107f8:	6ca2                	ld	s9,8(sp)
   107fa:	6125                	addi	sp,sp,96
   107fc:	8082                	ret
   107fe:	6f80                	ld	s0,24(a5)
   10800:	2609                	addiw	a2,a2,2
   10802:	e0879ce3          	bne	a5,s0,1061a <_malloc_r+0x50>
   10806:	0209b403          	ld	s0,32(s3)
   1080a:	0001f837          	lui	a6,0x1f
   1080e:	e8080813          	addi	a6,a6,-384 # 1ee80 <__malloc_av_+0x10>
   10812:	eb0403e3          	beq	s0,a6,106b8 <_malloc_r+0xee>
   10816:	641c                	ld	a5,8(s0)
   10818:	46fd                	li	a3,31
   1081a:	9bf1                	andi	a5,a5,-4
   1081c:	40978733          	sub	a4,a5,s1
   10820:	1ae6c763          	blt	a3,a4,109ce <_malloc_r+0x404>
   10824:	0309b423          	sd	a6,40(s3)
   10828:	0309b023          	sd	a6,32(s3)
   1082c:	0a075f63          	bgez	a4,108ea <_malloc_r+0x320>
   10830:	1ff00713          	li	a4,511
   10834:	0ef76863          	bltu	a4,a5,10924 <_malloc_r+0x35a>
   10838:	838d                	srli	a5,a5,0x3
   1083a:	0017871b          	addiw	a4,a5,1
   1083e:	0017171b          	slliw	a4,a4,0x1
   10842:	070e                	slli	a4,a4,0x3
   10844:	0089b503          	ld	a0,8(s3)
   10848:	974e                	add	a4,a4,s3
   1084a:	630c                	ld	a1,0(a4)
   1084c:	4027d69b          	sraiw	a3,a5,0x2
   10850:	4785                	li	a5,1
   10852:	00d797b3          	sll	a5,a5,a3
   10856:	8fc9                	or	a5,a5,a0
   10858:	ff070693          	addi	a3,a4,-16
   1085c:	ec14                	sd	a3,24(s0)
   1085e:	e80c                	sd	a1,16(s0)
   10860:	00f9b423          	sd	a5,8(s3)
   10864:	e300                	sd	s0,0(a4)
   10866:	ed80                	sd	s0,24(a1)
   10868:	4026571b          	sraiw	a4,a2,0x2
   1086c:	4585                	li	a1,1
   1086e:	00e595b3          	sll	a1,a1,a4
   10872:	e4b7ece3          	bltu	a5,a1,106ca <_malloc_r+0x100>
   10876:	00f5f733          	and	a4,a1,a5
   1087a:	ef01                	bnez	a4,10892 <_malloc_r+0x2c8>
   1087c:	0586                	slli	a1,a1,0x1
   1087e:	9a71                	andi	a2,a2,-4
   10880:	00f5f733          	and	a4,a1,a5
   10884:	2611                	addiw	a2,a2,4
   10886:	e711                	bnez	a4,10892 <_malloc_r+0x2c8>
   10888:	0586                	slli	a1,a1,0x1
   1088a:	00f5f733          	and	a4,a1,a5
   1088e:	2611                	addiw	a2,a2,4
   10890:	df65                	beqz	a4,10888 <_malloc_r+0x2be>
   10892:	48fd                	li	a7,31
   10894:	0016031b          	addiw	t1,a2,1
   10898:	0013131b          	slliw	t1,t1,0x1
   1089c:	030e                	slli	t1,t1,0x3
   1089e:	1341                	addi	t1,t1,-16
   108a0:	934e                	add	t1,t1,s3
   108a2:	851a                	mv	a0,t1
   108a4:	6d1c                	ld	a5,24(a0)
   108a6:	8e32                	mv	t3,a2
   108a8:	0ef50263          	beq	a0,a5,1098c <_malloc_r+0x3c2>
   108ac:	6798                	ld	a4,8(a5)
   108ae:	843e                	mv	s0,a5
   108b0:	6f9c                	ld	a5,24(a5)
   108b2:	9b71                	andi	a4,a4,-4
   108b4:	409706b3          	sub	a3,a4,s1
   108b8:	0ed8c163          	blt	a7,a3,1099a <_malloc_r+0x3d0>
   108bc:	fe06c6e3          	bltz	a3,108a8 <_malloc_r+0x2de>
   108c0:	9722                	add	a4,a4,s0
   108c2:	6714                	ld	a3,8(a4)
   108c4:	6810                	ld	a2,16(s0)
   108c6:	854a                	mv	a0,s2
   108c8:	0016e693          	ori	a3,a3,1
   108cc:	e714                	sd	a3,8(a4)
   108ce:	ee1c                	sd	a5,24(a2)
   108d0:	eb90                	sd	a2,16(a5)
   108d2:	3c6000ef          	jal	ra,10c98 <__malloc_unlock>
   108d6:	01040513          	addi	a0,s0,16
   108da:	b729                	j	107e4 <_malloc_r+0x21a>
   108dc:	40000693          	li	a3,1024
   108e0:	04000613          	li	a2,64
   108e4:	03f00513          	li	a0,63
   108e8:	bb49                	j	1067a <_malloc_r+0xb0>
   108ea:	97a2                	add	a5,a5,s0
   108ec:	6798                	ld	a4,8(a5)
   108ee:	854a                	mv	a0,s2
   108f0:	00176713          	ori	a4,a4,1
   108f4:	e798                	sd	a4,8(a5)
   108f6:	3a2000ef          	jal	ra,10c98 <__malloc_unlock>
   108fa:	01040513          	addi	a0,s0,16
   108fe:	b5dd                	j	107e4 <_malloc_r+0x21a>
   10900:	0014e713          	ori	a4,s1,1
   10904:	e418                	sd	a4,8(s0)
   10906:	94a2                	add	s1,s1,s0
   10908:	0099b823          	sd	s1,16(s3)
   1090c:	0017e793          	ori	a5,a5,1
   10910:	854a                	mv	a0,s2
   10912:	e49c                	sd	a5,8(s1)
   10914:	384000ef          	jal	ra,10c98 <__malloc_unlock>
   10918:	01040513          	addi	a0,s0,16
   1091c:	b5e1                	j	107e4 <_malloc_r+0x21a>
   1091e:	6c14                	ld	a3,24(s0)
   10920:	6810                	ld	a2,16(s0)
   10922:	b301                	j	10622 <_malloc_r+0x58>
   10924:	0097d713          	srli	a4,a5,0x9
   10928:	4691                	li	a3,4
   1092a:	0ee6f263          	bgeu	a3,a4,10a0e <_malloc_r+0x444>
   1092e:	46d1                	li	a3,20
   10930:	1ae6e863          	bltu	a3,a4,10ae0 <_malloc_r+0x516>
   10934:	05c7059b          	addiw	a1,a4,92
   10938:	0015959b          	slliw	a1,a1,0x1
   1093c:	05b7069b          	addiw	a3,a4,91
   10940:	058e                	slli	a1,a1,0x3
   10942:	95ce                	add	a1,a1,s3
   10944:	6198                	ld	a4,0(a1)
   10946:	15c1                	addi	a1,a1,-16
   10948:	14e58b63          	beq	a1,a4,10a9e <_malloc_r+0x4d4>
   1094c:	6714                	ld	a3,8(a4)
   1094e:	9af1                	andi	a3,a3,-4
   10950:	00d7f563          	bgeu	a5,a3,1095a <_malloc_r+0x390>
   10954:	6b18                	ld	a4,16(a4)
   10956:	fee59be3          	bne	a1,a4,1094c <_malloc_r+0x382>
   1095a:	6f0c                	ld	a1,24(a4)
   1095c:	0089b783          	ld	a5,8(s3)
   10960:	ec0c                	sd	a1,24(s0)
   10962:	e818                	sd	a4,16(s0)
   10964:	e980                	sd	s0,16(a1)
   10966:	ef00                	sd	s0,24(a4)
   10968:	b701                	j	10868 <_malloc_r+0x29e>
   1096a:	4751                	li	a4,20
   1096c:	0cf77f63          	bgeu	a4,a5,10a4a <_malloc_r+0x480>
   10970:	05400713          	li	a4,84
   10974:	18f76463          	bltu	a4,a5,10afc <_malloc_r+0x532>
   10978:	00c4d793          	srli	a5,s1,0xc
   1097c:	06f7861b          	addiw	a2,a5,111
   10980:	0016169b          	slliw	a3,a2,0x1
   10984:	06e7851b          	addiw	a0,a5,110
   10988:	068e                	slli	a3,a3,0x3
   1098a:	b9c5                	j	1067a <_malloc_r+0xb0>
   1098c:	2e05                	addiw	t3,t3,1
   1098e:	003e7793          	andi	a5,t3,3
   10992:	0541                	addi	a0,a0,16
   10994:	cbe1                	beqz	a5,10a64 <_malloc_r+0x49a>
   10996:	6d1c                	ld	a5,24(a0)
   10998:	bf01                	j	108a8 <_malloc_r+0x2de>
   1099a:	6810                	ld	a2,16(s0)
   1099c:	0014e593          	ori	a1,s1,1
   109a0:	e40c                	sd	a1,8(s0)
   109a2:	ee1c                	sd	a5,24(a2)
   109a4:	eb90                	sd	a2,16(a5)
   109a6:	94a2                	add	s1,s1,s0
   109a8:	0299b423          	sd	s1,40(s3)
   109ac:	0299b023          	sd	s1,32(s3)
   109b0:	0016e793          	ori	a5,a3,1
   109b4:	0104bc23          	sd	a6,24(s1)
   109b8:	0104b823          	sd	a6,16(s1)
   109bc:	e49c                	sd	a5,8(s1)
   109be:	9722                	add	a4,a4,s0
   109c0:	854a                	mv	a0,s2
   109c2:	e314                	sd	a3,0(a4)
   109c4:	2d4000ef          	jal	ra,10c98 <__malloc_unlock>
   109c8:	01040513          	addi	a0,s0,16
   109cc:	bd21                	j	107e4 <_malloc_r+0x21a>
   109ce:	0014e693          	ori	a3,s1,1
   109d2:	e414                	sd	a3,8(s0)
   109d4:	94a2                	add	s1,s1,s0
   109d6:	0299b423          	sd	s1,40(s3)
   109da:	0299b023          	sd	s1,32(s3)
   109de:	00176693          	ori	a3,a4,1
   109e2:	0104bc23          	sd	a6,24(s1)
   109e6:	0104b823          	sd	a6,16(s1)
   109ea:	e494                	sd	a3,8(s1)
   109ec:	97a2                	add	a5,a5,s0
   109ee:	854a                	mv	a0,s2
   109f0:	e398                	sd	a4,0(a5)
   109f2:	2a6000ef          	jal	ra,10c98 <__malloc_unlock>
   109f6:	01040513          	addi	a0,s0,16
   109fa:	b3ed                	j	107e4 <_malloc_r+0x21a>
   109fc:	0034d613          	srli	a2,s1,0x3
   10a00:	0016079b          	addiw	a5,a2,1
   10a04:	0017979b          	slliw	a5,a5,0x1
   10a08:	2601                	sext.w	a2,a2
   10a0a:	078e                	slli	a5,a5,0x3
   10a0c:	beed                	j	10606 <_malloc_r+0x3c>
   10a0e:	0067d713          	srli	a4,a5,0x6
   10a12:	0397059b          	addiw	a1,a4,57
   10a16:	0015959b          	slliw	a1,a1,0x1
   10a1a:	0387069b          	addiw	a3,a4,56
   10a1e:	058e                	slli	a1,a1,0x3
   10a20:	b70d                	j	10942 <_malloc_r+0x378>
   10a22:	0f340b63          	beq	s0,s3,10b18 <_malloc_r+0x54e>
   10a26:	0109b403          	ld	s0,16(s3)
   10a2a:	00843a03          	ld	s4,8(s0)
   10a2e:	ffca7a13          	andi	s4,s4,-4
   10a32:	409a07b3          	sub	a5,s4,s1
   10a36:	009a6563          	bltu	s4,s1,10a40 <_malloc_r+0x476>
   10a3a:	477d                	li	a4,31
   10a3c:	ecf742e3          	blt	a4,a5,10900 <_malloc_r+0x336>
   10a40:	854a                	mv	a0,s2
   10a42:	256000ef          	jal	ra,10c98 <__malloc_unlock>
   10a46:	4501                	li	a0,0
   10a48:	bb71                	j	107e4 <_malloc_r+0x21a>
   10a4a:	05c7861b          	addiw	a2,a5,92
   10a4e:	0016169b          	slliw	a3,a2,0x1
   10a52:	05b7851b          	addiw	a0,a5,91
   10a56:	068e                	slli	a3,a3,0x3
   10a58:	b10d                	j	1067a <_malloc_r+0xb0>
   10a5a:	01033783          	ld	a5,16(t1) # 1018e <main+0x6>
   10a5e:	367d                	addiw	a2,a2,-1
   10a60:	18679363          	bne	a5,t1,10be6 <_malloc_r+0x61c>
   10a64:	00367793          	andi	a5,a2,3
   10a68:	1341                	addi	t1,t1,-16
   10a6a:	fbe5                	bnez	a5,10a5a <_malloc_r+0x490>
   10a6c:	0089b703          	ld	a4,8(s3)
   10a70:	fff5c793          	not	a5,a1
   10a74:	8ff9                	and	a5,a5,a4
   10a76:	00f9b423          	sd	a5,8(s3)
   10a7a:	0586                	slli	a1,a1,0x1
   10a7c:	c4b7e7e3          	bltu	a5,a1,106ca <_malloc_r+0x100>
   10a80:	c40585e3          	beqz	a1,106ca <_malloc_r+0x100>
   10a84:	00f5f733          	and	a4,a1,a5
   10a88:	e711                	bnez	a4,10a94 <_malloc_r+0x4ca>
   10a8a:	0586                	slli	a1,a1,0x1
   10a8c:	00f5f733          	and	a4,a1,a5
   10a90:	2e11                	addiw	t3,t3,4
   10a92:	df65                	beqz	a4,10a8a <_malloc_r+0x4c0>
   10a94:	8672                	mv	a2,t3
   10a96:	bbfd                	j	10894 <_malloc_r+0x2ca>
   10a98:	020a0a13          	addi	s4,s4,32
   10a9c:	b1a5                	j	10704 <_malloc_r+0x13a>
   10a9e:	0089b503          	ld	a0,8(s3)
   10aa2:	4026d69b          	sraiw	a3,a3,0x2
   10aa6:	4785                	li	a5,1
   10aa8:	00d797b3          	sll	a5,a5,a3
   10aac:	8fc9                	or	a5,a5,a0
   10aae:	00f9b423          	sd	a5,8(s3)
   10ab2:	b57d                	j	10960 <_malloc_r+0x396>
   10ab4:	014b0c33          	add	s8,s6,s4
   10ab8:	41800c33          	neg	s8,s8
   10abc:	1c52                	slli	s8,s8,0x34
   10abe:	034c5c13          	srli	s8,s8,0x34
   10ac2:	85e2                	mv	a1,s8
   10ac4:	854a                	mv	a0,s2
   10ac6:	222000ef          	jal	ra,10ce8 <_sbrk_r>
   10aca:	57fd                	li	a5,-1
   10acc:	4701                	li	a4,0
   10ace:	caf509e3          	beq	a0,a5,10780 <_malloc_r+0x1b6>
   10ad2:	41650533          	sub	a0,a0,s6
   10ad6:	000c071b          	sext.w	a4,s8
   10ada:	01850a33          	add	s4,a0,s8
   10ade:	b14d                	j	10780 <_malloc_r+0x1b6>
   10ae0:	05400693          	li	a3,84
   10ae4:	06e6e863          	bltu	a3,a4,10b54 <_malloc_r+0x58a>
   10ae8:	00c7d713          	srli	a4,a5,0xc
   10aec:	06f7059b          	addiw	a1,a4,111
   10af0:	0015959b          	slliw	a1,a1,0x1
   10af4:	06e7069b          	addiw	a3,a4,110
   10af8:	058e                	slli	a1,a1,0x3
   10afa:	b5a1                	j	10942 <_malloc_r+0x378>
   10afc:	15400713          	li	a4,340
   10b00:	06f76863          	bltu	a4,a5,10b70 <_malloc_r+0x5a6>
   10b04:	00f4d793          	srli	a5,s1,0xf
   10b08:	0787861b          	addiw	a2,a5,120
   10b0c:	0016169b          	slliw	a3,a2,0x1
   10b10:	0777851b          	addiw	a0,a5,119
   10b14:	068e                	slli	a3,a3,0x3
   10b16:	b695                	j	1067a <_malloc_r+0xb0>
   10b18:	7d818b93          	addi	s7,gp,2008 # 1f8f0 <__malloc_current_mallinfo>
   10b1c:	000ba783          	lw	a5,0(s7)
   10b20:	014786bb          	addw	a3,a5,s4
   10b24:	00dba023          	sw	a3,0(s7)
   10b28:	b119                	j	1072e <_malloc_r+0x164>
   10b2a:	034c1713          	slli	a4,s8,0x34
   10b2e:	c00710e3          	bnez	a4,1072e <_malloc_r+0x164>
   10b32:	0109b403          	ld	s0,16(s3)
   10b36:	9a56                	add	s4,s4,s5
   10b38:	001a6a13          	ori	s4,s4,1
   10b3c:	01443423          	sd	s4,8(s0)
   10b40:	b149                	j	107c2 <_malloc_r+0x1f8>
   10b42:	7561bc23          	sd	s6,1880(gp) # 1f870 <__malloc_sbrk_base>
   10b46:	bef5                	j	10742 <_malloc_r+0x178>
   10b48:	845a                	mv	s0,s6
   10b4a:	b9a5                	j	107c2 <_malloc_r+0x1f8>
   10b4c:	4785                	li	a5,1
   10b4e:	00fb3423          	sd	a5,8(s6)
   10b52:	b5fd                	j	10a40 <_malloc_r+0x476>
   10b54:	15400693          	li	a3,340
   10b58:	04e6ed63          	bltu	a3,a4,10bb2 <_malloc_r+0x5e8>
   10b5c:	00f7d713          	srli	a4,a5,0xf
   10b60:	0787059b          	addiw	a1,a4,120
   10b64:	0015959b          	slliw	a1,a1,0x1
   10b68:	0777069b          	addiw	a3,a4,119
   10b6c:	058e                	slli	a1,a1,0x3
   10b6e:	bbd1                	j	10942 <_malloc_r+0x378>
   10b70:	55400713          	li	a4,1364
   10b74:	04f76d63          	bltu	a4,a5,10bce <_malloc_r+0x604>
   10b78:	0124d793          	srli	a5,s1,0x12
   10b7c:	07d7861b          	addiw	a2,a5,125
   10b80:	0016169b          	slliw	a3,a2,0x1
   10b84:	07c7851b          	addiw	a0,a5,124
   10b88:	068e                	slli	a3,a3,0x3
   10b8a:	bcc5                	j	1067a <_malloc_r+0xb0>
   10b8c:	1c41                	addi	s8,s8,-16
   10b8e:	018c8a33          	add	s4,s9,s8
   10b92:	416a0a33          	sub	s4,s4,s6
   10b96:	4701                	li	a4,0
   10b98:	b6e5                	j	10780 <_malloc_r+0x1b6>
   10b9a:	01040593          	addi	a1,s0,16
   10b9e:	854a                	mv	a0,s2
   10ba0:	4f8020ef          	jal	ra,13098 <_free_r>
   10ba4:	0109b403          	ld	s0,16(s3)
   10ba8:	000ba783          	lw	a5,0(s7)
   10bac:	00843a03          	ld	s4,8(s0)
   10bb0:	b909                	j	107c2 <_malloc_r+0x1f8>
   10bb2:	55400693          	li	a3,1364
   10bb6:	02e6e363          	bltu	a3,a4,10bdc <_malloc_r+0x612>
   10bba:	0127d713          	srli	a4,a5,0x12
   10bbe:	07d7059b          	addiw	a1,a4,125
   10bc2:	0015959b          	slliw	a1,a1,0x1
   10bc6:	07c7069b          	addiw	a3,a4,124
   10bca:	058e                	slli	a1,a1,0x3
   10bcc:	bb9d                	j	10942 <_malloc_r+0x378>
   10bce:	7f000693          	li	a3,2032
   10bd2:	07f00613          	li	a2,127
   10bd6:	07e00513          	li	a0,126
   10bda:	b445                	j	1067a <_malloc_r+0xb0>
   10bdc:	7f000593          	li	a1,2032
   10be0:	07e00693          	li	a3,126
   10be4:	bbb9                	j	10942 <_malloc_r+0x378>
   10be6:	0089b783          	ld	a5,8(s3)
   10bea:	bd41                	j	10a7a <_malloc_r+0x4b0>

0000000000010bec <memset>:
   10bec:	433d                	li	t1,15
   10bee:	872a                	mv	a4,a0
   10bf0:	02c37163          	bgeu	t1,a2,10c12 <memset+0x26>
   10bf4:	00f77793          	andi	a5,a4,15
   10bf8:	e3c1                	bnez	a5,10c78 <memset+0x8c>
   10bfa:	e1bd                	bnez	a1,10c60 <memset+0x74>
   10bfc:	ff067693          	andi	a3,a2,-16
   10c00:	8a3d                	andi	a2,a2,15
   10c02:	96ba                	add	a3,a3,a4
   10c04:	e30c                	sd	a1,0(a4)
   10c06:	e70c                	sd	a1,8(a4)
   10c08:	0741                	addi	a4,a4,16
   10c0a:	fed76de3          	bltu	a4,a3,10c04 <memset+0x18>
   10c0e:	e211                	bnez	a2,10c12 <memset+0x26>
   10c10:	8082                	ret
   10c12:	40c306b3          	sub	a3,t1,a2
   10c16:	068a                	slli	a3,a3,0x2
   10c18:	00000297          	auipc	t0,0x0
   10c1c:	9696                	add	a3,a3,t0
   10c1e:	00a68067          	jr	10(a3)
   10c22:	00b70723          	sb	a1,14(a4)
   10c26:	00b706a3          	sb	a1,13(a4)
   10c2a:	00b70623          	sb	a1,12(a4)
   10c2e:	00b705a3          	sb	a1,11(a4)
   10c32:	00b70523          	sb	a1,10(a4)
   10c36:	00b704a3          	sb	a1,9(a4)
   10c3a:	00b70423          	sb	a1,8(a4)
   10c3e:	00b703a3          	sb	a1,7(a4)
   10c42:	00b70323          	sb	a1,6(a4)
   10c46:	00b702a3          	sb	a1,5(a4)
   10c4a:	00b70223          	sb	a1,4(a4)
   10c4e:	00b701a3          	sb	a1,3(a4)
   10c52:	00b70123          	sb	a1,2(a4)
   10c56:	00b700a3          	sb	a1,1(a4)
   10c5a:	00b70023          	sb	a1,0(a4)
   10c5e:	8082                	ret
   10c60:	0ff5f593          	andi	a1,a1,255
   10c64:	00859693          	slli	a3,a1,0x8
   10c68:	8dd5                	or	a1,a1,a3
   10c6a:	01059693          	slli	a3,a1,0x10
   10c6e:	8dd5                	or	a1,a1,a3
   10c70:	02059693          	slli	a3,a1,0x20
   10c74:	8dd5                	or	a1,a1,a3
   10c76:	b759                	j	10bfc <memset+0x10>
   10c78:	00279693          	slli	a3,a5,0x2
   10c7c:	00000297          	auipc	t0,0x0
   10c80:	9696                	add	a3,a3,t0
   10c82:	8286                	mv	t0,ra
   10c84:	fa2680e7          	jalr	-94(a3)
   10c88:	8096                	mv	ra,t0
   10c8a:	17c1                	addi	a5,a5,-16
   10c8c:	8f1d                	sub	a4,a4,a5
   10c8e:	963e                	add	a2,a2,a5
   10c90:	f8c371e3          	bgeu	t1,a2,10c12 <memset+0x26>
   10c94:	b79d                	j	10bfa <memset+0xe>

0000000000010c96 <__malloc_lock>:
   10c96:	8082                	ret

0000000000010c98 <__malloc_unlock>:
   10c98:	8082                	ret

0000000000010c9a <_printf_r>:
   10c9a:	715d                	addi	sp,sp,-80
   10c9c:	f032                	sd	a2,32(sp)
   10c9e:	f436                	sd	a3,40(sp)
   10ca0:	f83a                	sd	a4,48(sp)
   10ca2:	fc3e                	sd	a5,56(sp)
   10ca4:	e0c2                	sd	a6,64(sp)
   10ca6:	e4c6                	sd	a7,72(sp)
   10ca8:	862e                	mv	a2,a1
   10caa:	690c                	ld	a1,16(a0)
   10cac:	1014                	addi	a3,sp,32
   10cae:	ec06                	sd	ra,24(sp)
   10cb0:	e436                	sd	a3,8(sp)
   10cb2:	06c000ef          	jal	ra,10d1e <_vfprintf_r>
   10cb6:	60e2                	ld	ra,24(sp)
   10cb8:	6161                	addi	sp,sp,80
   10cba:	8082                	ret

0000000000010cbc <printf>:
   10cbc:	7501b303          	ld	t1,1872(gp) # 1f868 <_impure_ptr>
   10cc0:	711d                	addi	sp,sp,-96
   10cc2:	f832                	sd	a2,48(sp)
   10cc4:	fc36                	sd	a3,56(sp)
   10cc6:	f42e                	sd	a1,40(sp)
   10cc8:	e0ba                	sd	a4,64(sp)
   10cca:	e4be                	sd	a5,72(sp)
   10ccc:	e8c2                	sd	a6,80(sp)
   10cce:	ecc6                	sd	a7,88(sp)
   10cd0:	01033583          	ld	a1,16(t1)
   10cd4:	1034                	addi	a3,sp,40
   10cd6:	862a                	mv	a2,a0
   10cd8:	851a                	mv	a0,t1
   10cda:	ec06                	sd	ra,24(sp)
   10cdc:	e436                	sd	a3,8(sp)
   10cde:	040000ef          	jal	ra,10d1e <_vfprintf_r>
   10ce2:	60e2                	ld	ra,24(sp)
   10ce4:	6125                	addi	sp,sp,96
   10ce6:	8082                	ret

0000000000010ce8 <_sbrk_r>:
   10ce8:	1101                	addi	sp,sp,-32
   10cea:	e822                	sd	s0,16(sp)
   10cec:	e426                	sd	s1,8(sp)
   10cee:	842a                	mv	s0,a0
   10cf0:	852e                	mv	a0,a1
   10cf2:	ec06                	sd	ra,24(sp)
   10cf4:	7801a823          	sw	zero,1936(gp) # 1f8a8 <errno>
   10cf8:	6420a0ef          	jal	ra,1b33a <_sbrk>
   10cfc:	57fd                	li	a5,-1
   10cfe:	00f50763          	beq	a0,a5,10d0c <_sbrk_r+0x24>
   10d02:	60e2                	ld	ra,24(sp)
   10d04:	6442                	ld	s0,16(sp)
   10d06:	64a2                	ld	s1,8(sp)
   10d08:	6105                	addi	sp,sp,32
   10d0a:	8082                	ret
   10d0c:	7901a783          	lw	a5,1936(gp) # 1f8a8 <errno>
   10d10:	dbed                	beqz	a5,10d02 <_sbrk_r+0x1a>
   10d12:	60e2                	ld	ra,24(sp)
   10d14:	c01c                	sw	a5,0(s0)
   10d16:	6442                	ld	s0,16(sp)
   10d18:	64a2                	ld	s1,8(sp)
   10d1a:	6105                	addi	sp,sp,32
   10d1c:	8082                	ret

0000000000010d1e <_vfprintf_r>:
   10d1e:	d8010113          	addi	sp,sp,-640
   10d22:	26113c23          	sd	ra,632(sp)
   10d26:	27213023          	sd	s2,608(sp)
   10d2a:	25413823          	sd	s4,592(sp)
   10d2e:	23913423          	sd	s9,552(sp)
   10d32:	892e                	mv	s2,a1
   10d34:	8cb2                	mv	s9,a2
   10d36:	e836                	sd	a3,16(sp)
   10d38:	26813823          	sd	s0,624(sp)
   10d3c:	26913423          	sd	s1,616(sp)
   10d40:	25313c23          	sd	s3,600(sp)
   10d44:	25513423          	sd	s5,584(sp)
   10d48:	25613023          	sd	s6,576(sp)
   10d4c:	23713c23          	sd	s7,568(sp)
   10d50:	23813823          	sd	s8,560(sp)
   10d54:	23a13023          	sd	s10,544(sp)
   10d58:	21b13c23          	sd	s11,536(sp)
   10d5c:	8a2a                	mv	s4,a0
   10d5e:	718040ef          	jal	ra,15476 <_localeconv_r>
   10d62:	611c                	ld	a5,0(a0)
   10d64:	853e                	mv	a0,a5
   10d66:	f8be                	sd	a5,112(sp)
   10d68:	32f050ef          	jal	ra,16896 <strlen>
   10d6c:	f4aa                	sd	a0,104(sp)
   10d6e:	e202                	sd	zero,256(sp)
   10d70:	e602                	sd	zero,264(sp)
   10d72:	000a0663          	beqz	s4,10d7e <_vfprintf_r+0x60>
   10d76:	050a2783          	lw	a5,80(s4)
   10d7a:	72078963          	beqz	a5,114ac <_vfprintf_r+0x78e>
   10d7e:	01091703          	lh	a4,16(s2)
   10d82:	6689                	lui	a3,0x2
   10d84:	03071793          	slli	a5,a4,0x30
   10d88:	93c1                	srli	a5,a5,0x30
   10d8a:	00d7f633          	and	a2,a5,a3
   10d8e:	e215                	bnez	a2,10db2 <_vfprintf_r+0x94>
   10d90:	0ac92603          	lw	a2,172(s2)
   10d94:	00d767b3          	or	a5,a4,a3
   10d98:	0107979b          	slliw	a5,a5,0x10
   10d9c:	7779                	lui	a4,0xffffe
   10d9e:	4107d79b          	sraiw	a5,a5,0x10
   10da2:	177d                	addi	a4,a4,-1
   10da4:	8f71                	and	a4,a4,a2
   10da6:	00f91823          	sh	a5,16(s2)
   10daa:	17c2                	slli	a5,a5,0x30
   10dac:	0ae92623          	sw	a4,172(s2)
   10db0:	93c1                	srli	a5,a5,0x30
   10db2:	0087f713          	andi	a4,a5,8
   10db6:	26070a63          	beqz	a4,1102a <_vfprintf_r+0x30c>
   10dba:	01893703          	ld	a4,24(s2)
   10dbe:	26070663          	beqz	a4,1102a <_vfprintf_r+0x30c>
   10dc2:	8be9                	andi	a5,a5,26
   10dc4:	4729                	li	a4,10
   10dc6:	26e78f63          	beq	a5,a4,11044 <_vfprintf_r+0x326>
   10dca:	67f5                	lui	a5,0x1d
   10dcc:	a887b783          	ld	a5,-1400(a5) # 1ca88 <zeroes.0+0x40>
   10dd0:	19010b13          	addi	s6,sp,400
   10dd4:	ea5a                	sd	s6,272(sp)
   10dd6:	ed3e                	sd	a5,152(sp)
   10dd8:	67f5                	lui	a5,0x1d
   10dda:	a687b783          	ld	a5,-1432(a5) # 1ca68 <zeroes.0+0x20>
   10dde:	f202                	sd	zero,288(sp)
   10de0:	10012c23          	sw	zero,280(sp)
   10de4:	e93e                	sd	a5,144(sp)
   10de6:	67f5                	lui	a5,0x1d
   10de8:	a787b783          	ld	a5,-1416(a5) # 1ca78 <zeroes.0+0x30>
   10dec:	f002                	sd	zero,32(sp)
   10dee:	f402                	sd	zero,40(sp)
   10df0:	f13e                	sd	a5,160(sp)
   10df2:	000cc783          	lbu	a5,0(s9)
   10df6:	fc82                	sd	zero,120(sp)
   10df8:	f082                	sd	zero,96(sp)
   10dfa:	e102                	sd	zero,128(sp)
   10dfc:	e502                	sd	zero,136(sp)
   10dfe:	e402                	sd	zero,8(sp)
   10e00:	835a                	mv	t1,s6
   10e02:	1c078563          	beqz	a5,10fcc <_vfprintf_r+0x2ae>
   10e06:	8466                	mv	s0,s9
   10e08:	02500713          	li	a4,37
   10e0c:	30e78363          	beq	a5,a4,11112 <_vfprintf_r+0x3f4>
   10e10:	00144783          	lbu	a5,1(s0)
   10e14:	0405                	addi	s0,s0,1
   10e16:	fbfd                	bnez	a5,10e0c <_vfprintf_r+0xee>
   10e18:	419404bb          	subw	s1,s0,s9
   10e1c:	1a048863          	beqz	s1,10fcc <_vfprintf_r+0x2ae>
   10e20:	7712                	ld	a4,288(sp)
   10e22:	11812783          	lw	a5,280(sp)
   10e26:	01933023          	sd	s9,0(t1)
   10e2a:	9726                	add	a4,a4,s1
   10e2c:	2785                	addiw	a5,a5,1
   10e2e:	00933423          	sd	s1,8(t1)
   10e32:	f23a                	sd	a4,288(sp)
   10e34:	10f12c23          	sw	a5,280(sp)
   10e38:	0007871b          	sext.w	a4,a5
   10e3c:	479d                	li	a5,7
   10e3e:	0341                	addi	t1,t1,16
   10e40:	2ee7c063          	blt	a5,a4,11120 <_vfprintf_r+0x402>
   10e44:	6722                	ld	a4,8(sp)
   10e46:	00044783          	lbu	a5,0(s0)
   10e4a:	9f25                	addw	a4,a4,s1
   10e4c:	e43a                	sd	a4,8(sp)
   10e4e:	16078f63          	beqz	a5,10fcc <_vfprintf_r+0x2ae>
   10e52:	67f5                	lui	a5,0x1d
   10e54:	00144e03          	lbu	t3,1(s0)
   10e58:	0c010fa3          	sb	zero,223(sp)
   10e5c:	0405                	addi	s0,s0,1
   10e5e:	5c7d                	li	s8,-1
   10e60:	4a81                	li	s5,0
   10e62:	4481                	li	s1,0
   10e64:	05a00993          	li	s3,90
   10e68:	8c878b93          	addi	s7,a5,-1848 # 1c8c8 <__clzdi2+0xc0>
   10e6c:	4da5                	li	s11,9
   10e6e:	0405                	addi	s0,s0,1
   10e70:	000e0d1b          	sext.w	s10,t3
   10e74:	02a00613          	li	a2,42
   10e78:	fe0d079b          	addiw	a5,s10,-32
   10e7c:	0007871b          	sext.w	a4,a5
   10e80:	04e9e363          	bltu	s3,a4,10ec6 <_vfprintf_r+0x1a8>
   10e84:	02079713          	slli	a4,a5,0x20
   10e88:	01e75793          	srli	a5,a4,0x1e
   10e8c:	97de                	add	a5,a5,s7
   10e8e:	439c                	lw	a5,0(a5)
   10e90:	8782                	jr	a5
   10e92:	4a81                	li	s5,0
   10e94:	00044703          	lbu	a4,0(s0)
   10e98:	002a979b          	slliw	a5,s5,0x2
   10e9c:	01578abb          	addw	s5,a5,s5
   10ea0:	fd0d0e1b          	addiw	t3,s10,-48
   10ea4:	001a9a9b          	slliw	s5,s5,0x1
   10ea8:	fd07079b          	addiw	a5,a4,-48
   10eac:	0405                	addi	s0,s0,1
   10eae:	015e0abb          	addw	s5,t3,s5
   10eb2:	00070d1b          	sext.w	s10,a4
   10eb6:	fcfdffe3          	bgeu	s11,a5,10e94 <_vfprintf_r+0x176>
   10eba:	fe0d079b          	addiw	a5,s10,-32
   10ebe:	0007871b          	sext.w	a4,a5
   10ec2:	fce9f1e3          	bgeu	s3,a4,10e84 <_vfprintf_r+0x166>
   10ec6:	100d0363          	beqz	s10,10fcc <_vfprintf_r+0x2ae>
   10eca:	13a10423          	sb	s10,296(sp)
   10ece:	0c010fa3          	sb	zero,223(sp)
   10ed2:	4985                	li	s3,1
   10ed4:	4b85                	li	s7,1
   10ed6:	12810c93          	addi	s9,sp,296
   10eda:	ec02                	sd	zero,24(sp)
   10edc:	4c01                	li	s8,0
   10ede:	e482                	sd	zero,72(sp)
   10ee0:	ec82                	sd	zero,88(sp)
   10ee2:	e882                	sd	zero,80(sp)
   10ee4:	0024f293          	andi	t0,s1,2
   10ee8:	00028363          	beqz	t0,10eee <_vfprintf_r+0x1d0>
   10eec:	2989                	addiw	s3,s3,2
   10eee:	0844fd93          	andi	s11,s1,132
   10ef2:	7792                	ld	a5,288(sp)
   10ef4:	000d9663          	bnez	s11,10f00 <_vfprintf_r+0x1e2>
   10ef8:	413a873b          	subw	a4,s5,s3
   10efc:	22e044e3          	bgtz	a4,11924 <_vfprintf_r+0xc06>
   10f00:	0df14703          	lbu	a4,223(sp)
   10f04:	c70d                	beqz	a4,10f2e <_vfprintf_r+0x210>
   10f06:	11812703          	lw	a4,280(sp)
   10f0a:	0df10693          	addi	a3,sp,223
   10f0e:	00d33023          	sd	a3,0(t1)
   10f12:	2705                	addiw	a4,a4,1
   10f14:	4685                	li	a3,1
   10f16:	0785                	addi	a5,a5,1
   10f18:	00d33423          	sd	a3,8(t1)
   10f1c:	10e12c23          	sw	a4,280(sp)
   10f20:	0007069b          	sext.w	a3,a4
   10f24:	f23e                	sd	a5,288(sp)
   10f26:	471d                	li	a4,7
   10f28:	0341                	addi	t1,t1,16
   10f2a:	3ed74d63          	blt	a4,a3,11324 <_vfprintf_r+0x606>
   10f2e:	02028563          	beqz	t0,10f58 <_vfprintf_r+0x23a>
   10f32:	11812703          	lw	a4,280(sp)
   10f36:	1194                	addi	a3,sp,224
   10f38:	00d33023          	sd	a3,0(t1)
   10f3c:	2705                	addiw	a4,a4,1
   10f3e:	4689                	li	a3,2
   10f40:	0789                	addi	a5,a5,2
   10f42:	00d33423          	sd	a3,8(t1)
   10f46:	10e12c23          	sw	a4,280(sp)
   10f4a:	0007069b          	sext.w	a3,a4
   10f4e:	f23e                	sd	a5,288(sp)
   10f50:	471d                	li	a4,7
   10f52:	0341                	addi	t1,t1,16
   10f54:	26d742e3          	blt	a4,a3,119b8 <_vfprintf_r+0xc9a>
   10f58:	08000713          	li	a4,128
   10f5c:	06ed8ae3          	beq	s11,a4,117d0 <_vfprintf_r+0xab2>
   10f60:	417c0c3b          	subw	s8,s8,s7
   10f64:	0f804ee3          	bgtz	s8,11860 <_vfprintf_r+0xb42>
   10f68:	1004f713          	andi	a4,s1,256
   10f6c:	78071b63          	bnez	a4,11702 <_vfprintf_r+0x9e4>
   10f70:	11812703          	lw	a4,280(sp)
   10f74:	97de                	add	a5,a5,s7
   10f76:	01933023          	sd	s9,0(t1)
   10f7a:	0017069b          	addiw	a3,a4,1
   10f7e:	8736                	mv	a4,a3
   10f80:	01733423          	sd	s7,8(t1)
   10f84:	10e12c23          	sw	a4,280(sp)
   10f88:	f23e                	sd	a5,288(sp)
   10f8a:	471d                	li	a4,7
   10f8c:	46d74863          	blt	a4,a3,113fc <_vfprintf_r+0x6de>
   10f90:	0341                	addi	t1,t1,16
   10f92:	8891                	andi	s1,s1,4
   10f94:	c489                	beqz	s1,10f9e <_vfprintf_r+0x280>
   10f96:	413a84bb          	subw	s1,s5,s3
   10f9a:	229049e3          	bgtz	s1,119cc <_vfprintf_r+0xcae>
   10f9e:	8756                	mv	a4,s5
   10fa0:	013ad363          	bge	s5,s3,10fa6 <_vfprintf_r+0x288>
   10fa4:	874e                	mv	a4,s3
   10fa6:	66a2                	ld	a3,8(sp)
   10fa8:	9f35                	addw	a4,a4,a3
   10faa:	e43a                	sd	a4,8(sp)
   10fac:	12079be3          	bnez	a5,118e2 <_vfprintf_r+0xbc4>
   10fb0:	67e2                	ld	a5,24(sp)
   10fb2:	10012c23          	sw	zero,280(sp)
   10fb6:	c789                	beqz	a5,10fc0 <_vfprintf_r+0x2a2>
   10fb8:	65e2                	ld	a1,24(sp)
   10fba:	8552                	mv	a0,s4
   10fbc:	0dc020ef          	jal	ra,13098 <_free_r>
   10fc0:	835a                	mv	t1,s6
   10fc2:	8ca2                	mv	s9,s0
   10fc4:	000cc783          	lbu	a5,0(s9)
   10fc8:	e2079fe3          	bnez	a5,10e06 <_vfprintf_r+0xe8>
   10fcc:	7792                	ld	a5,288(sp)
   10fce:	c399                	beqz	a5,10fd4 <_vfprintf_r+0x2b6>
   10fd0:	2740106f          	j	12244 <_vfprintf_r+0x1526>
   10fd4:	01095783          	lhu	a5,16(s2)
   10fd8:	0407f793          	andi	a5,a5,64
   10fdc:	c399                	beqz	a5,10fe2 <_vfprintf_r+0x2c4>
   10fde:	6220106f          	j	12600 <_vfprintf_r+0x18e2>
   10fe2:	27813083          	ld	ra,632(sp)
   10fe6:	27013403          	ld	s0,624(sp)
   10fea:	6522                	ld	a0,8(sp)
   10fec:	26813483          	ld	s1,616(sp)
   10ff0:	26013903          	ld	s2,608(sp)
   10ff4:	25813983          	ld	s3,600(sp)
   10ff8:	25013a03          	ld	s4,592(sp)
   10ffc:	24813a83          	ld	s5,584(sp)
   11000:	24013b03          	ld	s6,576(sp)
   11004:	23813b83          	ld	s7,568(sp)
   11008:	23013c03          	ld	s8,560(sp)
   1100c:	22813c83          	ld	s9,552(sp)
   11010:	22013d03          	ld	s10,544(sp)
   11014:	21813d83          	ld	s11,536(sp)
   11018:	28010113          	addi	sp,sp,640
   1101c:	8082                	ret
   1101e:	0104e493          	ori	s1,s1,16
   11022:	00044e03          	lbu	t3,0(s0)
   11026:	2481                	sext.w	s1,s1
   11028:	b599                	j	10e6e <_vfprintf_r+0x150>
   1102a:	85ca                	mv	a1,s2
   1102c:	8552                	mv	a0,s4
   1102e:	111010ef          	jal	ra,1293e <__swsetup_r>
   11032:	c119                	beqz	a0,11038 <_vfprintf_r+0x31a>
   11034:	5cc0106f          	j	12600 <_vfprintf_r+0x18e2>
   11038:	01095783          	lhu	a5,16(s2)
   1103c:	4729                	li	a4,10
   1103e:	8be9                	andi	a5,a5,26
   11040:	d8e795e3          	bne	a5,a4,10dca <_vfprintf_r+0xac>
   11044:	01291783          	lh	a5,18(s2)
   11048:	d807c1e3          	bltz	a5,10dca <_vfprintf_r+0xac>
   1104c:	66c2                	ld	a3,16(sp)
   1104e:	8666                	mv	a2,s9
   11050:	85ca                	mv	a1,s2
   11052:	8552                	mv	a0,s4
   11054:	057010ef          	jal	ra,128aa <__sbprintf>
   11058:	e42a                	sd	a0,8(sp)
   1105a:	b761                	j	10fe2 <_vfprintf_r+0x2c4>
   1105c:	0104e493          	ori	s1,s1,16
   11060:	2481                	sext.w	s1,s1
   11062:	66c2                	ld	a3,16(sp)
   11064:	0204f793          	andi	a5,s1,32
   11068:	00868713          	addi	a4,a3,8 # 2008 <register_fini-0xe0e0>
   1106c:	3c078163          	beqz	a5,1142e <_vfprintf_r+0x710>
   11070:	629c                	ld	a5,0(a3)
   11072:	89be                	mv	s3,a5
   11074:	3c07cb63          	bltz	a5,1144a <_vfprintf_r+0x72c>
   11078:	57fd                	li	a5,-1
   1107a:	3efc03e3          	beq	s8,a5,11c60 <_vfprintf_r+0xf42>
   1107e:	f7f4f493          	andi	s1,s1,-129
   11082:	e83a                	sd	a4,16(sp)
   11084:	00048d9b          	sext.w	s11,s1
   11088:	080991e3          	bnez	s3,1190a <_vfprintf_r+0xbec>
   1108c:	080c12e3          	bnez	s8,11910 <_vfprintf_r+0xbf2>
   11090:	84ee                	mv	s1,s11
   11092:	4c01                	li	s8,0
   11094:	4b81                	li	s7,0
   11096:	18c10c93          	addi	s9,sp,396
   1109a:	0df14783          	lbu	a5,223(sp)
   1109e:	000b899b          	sext.w	s3,s7
   110a2:	018bd463          	bge	s7,s8,110aa <_vfprintf_r+0x38c>
   110a6:	000c099b          	sext.w	s3,s8
   110aa:	ec02                	sd	zero,24(sp)
   110ac:	e482                	sd	zero,72(sp)
   110ae:	ec82                	sd	zero,88(sp)
   110b0:	e882                	sd	zero,80(sp)
   110b2:	e20789e3          	beqz	a5,10ee4 <_vfprintf_r+0x1c6>
   110b6:	2985                	addiw	s3,s3,1
   110b8:	b535                	j	10ee4 <_vfprintf_r+0x1c6>
   110ba:	0104e493          	ori	s1,s1,16
   110be:	2481                	sext.w	s1,s1
   110c0:	66c2                	ld	a3,16(sp)
   110c2:	0204f793          	andi	a5,s1,32
   110c6:	00868713          	addi	a4,a3,8
   110ca:	34078363          	beqz	a5,11410 <_vfprintf_r+0x6f2>
   110ce:	0006b983          	ld	s3,0(a3)
   110d2:	bff4f493          	andi	s1,s1,-1025
   110d6:	00048d9b          	sext.w	s11,s1
   110da:	e83a                	sd	a4,16(sp)
   110dc:	4781                	li	a5,0
   110de:	0c010fa3          	sb	zero,223(sp)
   110e2:	577d                	li	a4,-1
   110e4:	36ec0f63          	beq	s8,a4,11462 <_vfprintf_r+0x744>
   110e8:	f7fdf493          	andi	s1,s11,-129
   110ec:	2481                	sext.w	s1,s1
   110ee:	00099ae3          	bnez	s3,11902 <_vfprintf_r+0xbe4>
   110f2:	5c0c1b63          	bnez	s8,116c8 <_vfprintf_r+0x9aa>
   110f6:	ffd1                	bnez	a5,11092 <_vfprintf_r+0x374>
   110f8:	001dfb93          	andi	s7,s11,1
   110fc:	18c10c93          	addi	s9,sp,396
   11100:	f80b8de3          	beqz	s7,1109a <_vfprintf_r+0x37c>
   11104:	03000793          	li	a5,48
   11108:	18f105a3          	sb	a5,395(sp)
   1110c:	18b10c93          	addi	s9,sp,395
   11110:	b769                	j	1109a <_vfprintf_r+0x37c>
   11112:	419404bb          	subw	s1,s0,s9
   11116:	d00495e3          	bnez	s1,10e20 <_vfprintf_r+0x102>
   1111a:	00044783          	lbu	a5,0(s0)
   1111e:	bb05                	j	10e4e <_vfprintf_r+0x130>
   11120:	0a10                	addi	a2,sp,272
   11122:	85ca                	mv	a1,s2
   11124:	8552                	mv	a0,s4
   11126:	44c070ef          	jal	ra,18572 <__sprint_r>
   1112a:	ea0515e3          	bnez	a0,10fd4 <_vfprintf_r+0x2b6>
   1112e:	835a                	mv	t1,s6
   11130:	bb11                	j	10e44 <_vfprintf_r+0x126>
   11132:	0084f793          	andi	a5,s1,8
   11136:	30079ae3          	bnez	a5,11c4a <_vfprintf_r+0xf2c>
   1113a:	67c2                	ld	a5,16(sp)
   1113c:	ec1a                	sd	t1,24(sp)
   1113e:	2388                	fld	fa0,0(a5)
   11140:	07a1                	addi	a5,a5,8
   11142:	e83e                	sd	a5,16(sp)
   11144:	3d60b0ef          	jal	ra,1c51a <__extenddftf2>
   11148:	6362                	ld	t1,24(sp)
   1114a:	e22a                	sd	a0,256(sp)
   1114c:	e62e                	sd	a1,264(sp)
   1114e:	0208                	addi	a0,sp,256
   11150:	ec1a                	sd	t1,24(sp)
   11152:	2dc040ef          	jal	ra,1542e <_ldcheck>
   11156:	d5aa                	sw	a0,232(sp)
   11158:	4789                	li	a5,2
   1115a:	6362                	ld	t1,24(sp)
   1115c:	5af500e3          	beq	a0,a5,11efc <_vfprintf_r+0x11de>
   11160:	4785                	li	a5,1
   11162:	6af500e3          	beq	a0,a5,12002 <_vfprintf_r+0x12e4>
   11166:	06100793          	li	a5,97
   1116a:	00fd1463          	bne	s10,a5,11172 <_vfprintf_r+0x454>
   1116e:	4d40106f          	j	12642 <_vfprintf_r+0x1924>
   11172:	04100793          	li	a5,65
   11176:	00fd1463          	bne	s10,a5,1117e <_vfprintf_r+0x460>
   1117a:	0f20106f          	j	1226c <_vfprintf_r+0x154e>
   1117e:	fdfd7713          	andi	a4,s10,-33
   11182:	57fd                	li	a5,-1
   11184:	ecba                	sd	a4,88(sp)
   11186:	00fc1463          	bne	s8,a5,1118e <_vfprintf_r+0x470>
   1118a:	56c0106f          	j	126f6 <_vfprintf_r+0x19d8>
   1118e:	04700793          	li	a5,71
   11192:	00f71463          	bne	a4,a5,1119a <_vfprintf_r+0x47c>
   11196:	5520106f          	j	126e8 <_vfprintf_r+0x19ca>
   1119a:	69b2                	ld	s3,264(sp)
   1119c:	1004e793          	ori	a5,s1,256
   111a0:	fd26                	sd	s1,184(sp)
   111a2:	6b92                	ld	s7,256(sp)
   111a4:	2781                	sext.w	a5,a5
   111a6:	0009d463          	bgez	s3,111ae <_vfprintf_r+0x490>
   111aa:	29c0106f          	j	12446 <_vfprintf_r+0x1728>
   111ae:	e582                	sd	zero,200(sp)
   111b0:	84be                	mv	s1,a5
   111b2:	ec02                	sd	zero,24(sp)
   111b4:	6766                	ld	a4,88(sp)
   111b6:	04600793          	li	a5,70
   111ba:	00f71463          	bne	a4,a5,111c2 <_vfprintf_r+0x4a4>
   111be:	2b80106f          	j	12476 <_vfprintf_r+0x1758>
   111c2:	04500793          	li	a5,69
   111c6:	f01a                	sd	t1,32(sp)
   111c8:	00f71463          	bne	a4,a5,111d0 <_vfprintf_r+0x4b2>
   111cc:	4f00106f          	j	126bc <_vfprintf_r+0x199e>
   111d0:	11bc                	addi	a5,sp,232
   111d2:	8762                	mv	a4,s8
   111d4:	0f810893          	addi	a7,sp,248
   111d8:	0ec10813          	addi	a6,sp,236
   111dc:	4689                	li	a3,2
   111de:	85de                	mv	a1,s7
   111e0:	864e                	mv	a2,s3
   111e2:	8552                	mv	a0,s4
   111e4:	470030ef          	jal	ra,14654 <_ldtoa_r>
   111e8:	6766                	ld	a4,88(sp)
   111ea:	04700793          	li	a5,71
   111ee:	7302                	ld	t1,32(sp)
   111f0:	8caa                	mv	s9,a0
   111f2:	00f70463          	beq	a4,a5,111fa <_vfprintf_r+0x4dc>
   111f6:	6840106f          	j	1287a <_vfprintf_r+0x1b5c>
   111fa:	77ea                	ld	a5,184(sp)
   111fc:	8b85                	andi	a5,a5,1
   111fe:	c399                	beqz	a5,11204 <_vfprintf_r+0x4e6>
   11200:	4500106f          	j	12650 <_vfprintf_r+0x1932>
   11204:	766e                	ld	a2,248(sp)
   11206:	419607bb          	subw	a5,a2,s9
   1120a:	f03e                	sd	a5,32(sp)
   1120c:	572e                	lw	a4,232(sp)
   1120e:	04700793          	li	a5,71
   11212:	e8ba                	sd	a4,80(sp)
   11214:	6766                	ld	a4,88(sp)
   11216:	00f71463          	bne	a4,a5,1121e <_vfprintf_r+0x500>
   1121a:	1c60106f          	j	123e0 <_vfprintf_r+0x16c2>
   1121e:	6766                	ld	a4,88(sp)
   11220:	04600793          	li	a5,70
   11224:	00f71463          	bne	a4,a5,1122c <_vfprintf_r+0x50e>
   11228:	34c0106f          	j	12574 <_vfprintf_r+0x1856>
   1122c:	67c6                	ld	a5,80(sp)
   1122e:	65e6                	ld	a1,88(sp)
   11230:	04100613          	li	a2,65
   11234:	37fd                	addiw	a5,a5,-1
   11236:	d5be                	sw	a5,232(sp)
   11238:	0ffd7713          	andi	a4,s10,255
   1123c:	4681                	li	a3,0
   1123e:	00c59663          	bne	a1,a2,1124a <_vfprintf_r+0x52c>
   11242:	273d                	addiw	a4,a4,15
   11244:	0ff77713          	andi	a4,a4,255
   11248:	4685                	li	a3,1
   1124a:	0ee10823          	sb	a4,240(sp)
   1124e:	02b00713          	li	a4,43
   11252:	0007d763          	bgez	a5,11260 <_vfprintf_r+0x542>
   11256:	6746                	ld	a4,80(sp)
   11258:	4785                	li	a5,1
   1125a:	9f99                	subw	a5,a5,a4
   1125c:	02d00713          	li	a4,45
   11260:	0ee108a3          	sb	a4,241(sp)
   11264:	4725                	li	a4,9
   11266:	00f74463          	blt	a4,a5,1126e <_vfprintf_r+0x550>
   1126a:	4aa0106f          	j	12714 <_vfprintf_r+0x19f6>
   1126e:	0ff10513          	addi	a0,sp,255
   11272:	88aa                	mv	a7,a0
   11274:	46a9                	li	a3,10
   11276:	06300e93          	li	t4,99
   1127a:	02d7e73b          	remw	a4,a5,a3
   1127e:	85c6                	mv	a1,a7
   11280:	863e                	mv	a2,a5
   11282:	18fd                	addi	a7,a7,-1
   11284:	0307071b          	addiw	a4,a4,48
   11288:	fee58fa3          	sb	a4,-1(a1)
   1128c:	02d7c7bb          	divw	a5,a5,a3
   11290:	fecec5e3          	blt	t4,a2,1127a <_vfprintf_r+0x55c>
   11294:	0307879b          	addiw	a5,a5,48
   11298:	0ff7f693          	andi	a3,a5,255
   1129c:	fed88fa3          	sb	a3,-1(a7)
   112a0:	ffe58793          	addi	a5,a1,-2
   112a4:	00a7e463          	bltu	a5,a0,112ac <_vfprintf_r+0x58e>
   112a8:	5ea0106f          	j	12892 <_vfprintf_r+0x1b74>
   112ac:	0f210713          	addi	a4,sp,242
   112b0:	a019                	j	112b6 <_vfprintf_r+0x598>
   112b2:	0007c683          	lbu	a3,0(a5)
   112b6:	00d70023          	sb	a3,0(a4) # ffffffffffffe000 <__BSS_END__+0xfffffffffffde6e8>
   112ba:	0785                	addi	a5,a5,1
   112bc:	0705                	addi	a4,a4,1
   112be:	fea79ae3          	bne	a5,a0,112b2 <_vfprintf_r+0x594>
   112c2:	10110793          	addi	a5,sp,257
   112c6:	0f210713          	addi	a4,sp,242
   112ca:	8f8d                	sub	a5,a5,a1
   112cc:	97ba                	add	a5,a5,a4
   112ce:	1998                	addi	a4,sp,240
   112d0:	9f99                	subw	a5,a5,a4
   112d2:	fcbe                	sd	a5,120(sp)
   112d4:	77e6                	ld	a5,120(sp)
   112d6:	7682                	ld	a3,32(sp)
   112d8:	4705                	li	a4,1
   112da:	00f68bbb          	addw	s7,a3,a5
   112de:	87de                	mv	a5,s7
   112e0:	00d74463          	blt	a4,a3,112e8 <_vfprintf_r+0x5ca>
   112e4:	52c0106f          	j	12810 <_vfprintf_r+0x1af2>
   112e8:	7726                	ld	a4,104(sp)
   112ea:	00e78bbb          	addw	s7,a5,a4
   112ee:	77ea                	ld	a5,184(sp)
   112f0:	fffbc993          	not	s3,s7
   112f4:	43f9d993          	srai	s3,s3,0x3f
   112f8:	bff7f493          	andi	s1,a5,-1025
   112fc:	2481                	sext.w	s1,s1
   112fe:	013bf9b3          	and	s3,s7,s3
   11302:	1004e493          	ori	s1,s1,256
   11306:	2981                	sext.w	s3,s3
   11308:	e482                	sd	zero,72(sp)
   1130a:	ec82                	sd	zero,88(sp)
   1130c:	e882                	sd	zero,80(sp)
   1130e:	67ae                	ld	a5,200(sp)
   11310:	e399                	bnez	a5,11316 <_vfprintf_r+0x5f8>
   11312:	1240106f          	j	12436 <_vfprintf_r+0x1718>
   11316:	02d00793          	li	a5,45
   1131a:	0cf10fa3          	sb	a5,223(sp)
   1131e:	4c01                	li	s8,0
   11320:	2985                	addiw	s3,s3,1
   11322:	b6c9                	j	10ee4 <_vfprintf_r+0x1c6>
   11324:	0a10                	addi	a2,sp,272
   11326:	85ca                	mv	a1,s2
   11328:	8552                	mv	a0,s4
   1132a:	f816                	sd	t0,48(sp)
   1132c:	246070ef          	jal	ra,18572 <__sprint_r>
   11330:	5c051063          	bnez	a0,118f0 <_vfprintf_r+0xbd2>
   11334:	7792                	ld	a5,288(sp)
   11336:	72c2                	ld	t0,48(sp)
   11338:	835a                	mv	t1,s6
   1133a:	bed5                	j	10f2e <_vfprintf_r+0x210>
   1133c:	11812603          	lw	a2,280(sp)
   11340:	00178c13          	addi	s8,a5,1
   11344:	7782                	ld	a5,32(sp)
   11346:	0016071b          	addiw	a4,a2,1
   1134a:	4585                	li	a1,1
   1134c:	01933023          	sd	s9,0(t1)
   11350:	86ba                	mv	a3,a4
   11352:	01030b93          	addi	s7,t1,16
   11356:	02f5d3e3          	bge	a1,a5,11b7c <_vfprintf_r+0xe5e>
   1135a:	4605                	li	a2,1
   1135c:	10d12c23          	sw	a3,280(sp)
   11360:	00c33423          	sd	a2,8(t1)
   11364:	f262                	sd	s8,288(sp)
   11366:	469d                	li	a3,7
   11368:	2ce6c2e3          	blt	a3,a4,11e2c <_vfprintf_r+0x110e>
   1136c:	77a6                	ld	a5,104(sp)
   1136e:	0017069b          	addiw	a3,a4,1
   11372:	7746                	ld	a4,112(sp)
   11374:	9c3e                	add	s8,s8,a5
   11376:	00fbb423          	sd	a5,8(s7)
   1137a:	00ebb023          	sd	a4,0(s7)
   1137e:	10d12c23          	sw	a3,280(sp)
   11382:	0006871b          	sext.w	a4,a3
   11386:	f262                	sd	s8,288(sp)
   11388:	469d                	li	a3,7
   1138a:	0bc1                	addi	s7,s7,16
   1138c:	2ae6cde3          	blt	a3,a4,11e46 <_vfprintf_r+0x1128>
   11390:	6512                	ld	a0,256(sp)
   11392:	65b2                	ld	a1,264(sp)
   11394:	00170e1b          	addiw	t3,a4,1
   11398:	4601                	li	a2,0
   1139a:	4681                	li	a3,0
   1139c:	d872                	sw	t3,48(sp)
   1139e:	fc3a                	sd	a4,56(sp)
   113a0:	07a0a0ef          	jal	ra,1b41a <__eqtf2>
   113a4:	5e42                	lw	t3,48(sp)
   113a6:	7782                	ld	a5,32(sp)
   113a8:	010b8313          	addi	t1,s7,16
   113ac:	000e061b          	sext.w	a2,t3
   113b0:	fff78d1b          	addiw	s10,a5,-1
   113b4:	7e050563          	beqz	a0,11b9e <_vfprintf_r+0xe80>
   113b8:	001c8813          	addi	a6,s9,1
   113bc:	9c6a                	add	s8,s8,s10
   113be:	010bb023          	sd	a6,0(s7)
   113c2:	01abb423          	sd	s10,8(s7)
   113c6:	f262                	sd	s8,288(sp)
   113c8:	11c12c23          	sw	t3,280(sp)
   113cc:	469d                	li	a3,7
   113ce:	14c6c2e3          	blt	a3,a2,11d12 <_vfprintf_r+0xff4>
   113d2:	7762                	ld	a4,56(sp)
   113d4:	020b8693          	addi	a3,s7,32
   113d8:	8b9a                	mv	s7,t1
   113da:	0027061b          	addiw	a2,a4,2
   113de:	8336                	mv	t1,a3
   113e0:	76e6                	ld	a3,120(sp)
   113e2:	1998                	addi	a4,sp,240
   113e4:	00ebb023          	sd	a4,0(s7)
   113e8:	018687b3          	add	a5,a3,s8
   113ec:	00dbb423          	sd	a3,8(s7)
   113f0:	f23e                	sd	a5,288(sp)
   113f2:	10c12c23          	sw	a2,280(sp)
   113f6:	471d                	li	a4,7
   113f8:	b8c75de3          	bge	a4,a2,10f92 <_vfprintf_r+0x274>
   113fc:	0a10                	addi	a2,sp,272
   113fe:	85ca                	mv	a1,s2
   11400:	8552                	mv	a0,s4
   11402:	170070ef          	jal	ra,18572 <__sprint_r>
   11406:	4e051563          	bnez	a0,118f0 <_vfprintf_r+0xbd2>
   1140a:	7792                	ld	a5,288(sp)
   1140c:	835a                	mv	t1,s6
   1140e:	b651                	j	10f92 <_vfprintf_r+0x274>
   11410:	0104f793          	andi	a5,s1,16
   11414:	00079fe3          	bnez	a5,11c32 <_vfprintf_r+0xf14>
   11418:	66c2                	ld	a3,16(sp)
   1141a:	0404f793          	andi	a5,s1,64
   1141e:	0006a983          	lw	s3,0(a3)
   11422:	3a0787e3          	beqz	a5,11fd0 <_vfprintf_r+0x12b2>
   11426:	19c2                	slli	s3,s3,0x30
   11428:	0309d993          	srli	s3,s3,0x30
   1142c:	b15d                	j	110d2 <_vfprintf_r+0x3b4>
   1142e:	0104f793          	andi	a5,s1,16
   11432:	7e079b63          	bnez	a5,11c28 <_vfprintf_r+0xf0a>
   11436:	0404f793          	andi	a5,s1,64
   1143a:	380781e3          	beqz	a5,11fbc <_vfprintf_r+0x129e>
   1143e:	67c2                	ld	a5,16(sp)
   11440:	00079983          	lh	s3,0(a5)
   11444:	87ce                	mv	a5,s3
   11446:	c207d9e3          	bgez	a5,11078 <_vfprintf_r+0x35a>
   1144a:	02d00793          	li	a5,45
   1144e:	0cf10fa3          	sb	a5,223(sp)
   11452:	e83a                	sd	a4,16(sp)
   11454:	577d                	li	a4,-1
   11456:	413009b3          	neg	s3,s3
   1145a:	8da6                	mv	s11,s1
   1145c:	4785                	li	a5,1
   1145e:	c8ec15e3          	bne	s8,a4,110e8 <_vfprintf_r+0x3ca>
   11462:	4705                	li	a4,1
   11464:	4ae78363          	beq	a5,a4,1190a <_vfprintf_r+0xbec>
   11468:	4709                	li	a4,2
   1146a:	26e78863          	beq	a5,a4,116da <_vfprintf_r+0x9bc>
   1146e:	18c10b93          	addi	s7,sp,396
   11472:	8cde                	mv	s9,s7
   11474:	0079f793          	andi	a5,s3,7
   11478:	03078793          	addi	a5,a5,48
   1147c:	fefc8fa3          	sb	a5,-1(s9)
   11480:	0039d993          	srli	s3,s3,0x3
   11484:	8766                	mv	a4,s9
   11486:	1cfd                	addi	s9,s9,-1
   11488:	fe0996e3          	bnez	s3,11474 <_vfprintf_r+0x756>
   1148c:	001df693          	andi	a3,s11,1
   11490:	26068563          	beqz	a3,116fa <_vfprintf_r+0x9dc>
   11494:	03000693          	li	a3,48
   11498:	26d78163          	beq	a5,a3,116fa <_vfprintf_r+0x9dc>
   1149c:	1779                	addi	a4,a4,-2
   1149e:	fedc8fa3          	sb	a3,-1(s9)
   114a2:	40eb8bbb          	subw	s7,s7,a4
   114a6:	84ee                	mv	s1,s11
   114a8:	8cba                	mv	s9,a4
   114aa:	bec5                	j	1109a <_vfprintf_r+0x37c>
   114ac:	8552                	mv	a0,s4
   114ae:	2b9010ef          	jal	ra,12f66 <__sinit>
   114b2:	b0f1                	j	10d7e <_vfprintf_r+0x60>
   114b4:	67c2                	ld	a5,16(sp)
   114b6:	0c010fa3          	sb	zero,223(sp)
   114ba:	0007bc83          	ld	s9,0(a5)
   114be:	00878d93          	addi	s11,a5,8
   114c2:	0e0c8ce3          	beqz	s9,11dba <_vfprintf_r+0x109c>
   114c6:	57fd                	li	a5,-1
   114c8:	2cfc01e3          	beq	s8,a5,11f8a <_vfprintf_r+0x126c>
   114cc:	8662                	mv	a2,s8
   114ce:	4581                	li	a1,0
   114d0:	8566                	mv	a0,s9
   114d2:	e81a                	sd	t1,16(sp)
   114d4:	228040ef          	jal	ra,156fc <memchr>
   114d8:	ec2a                	sd	a0,24(sp)
   114da:	6342                	ld	t1,16(sp)
   114dc:	e119                	bnez	a0,114e2 <_vfprintf_r+0x7c4>
   114de:	0440106f          	j	12522 <_vfprintf_r+0x1804>
   114e2:	67e2                	ld	a5,24(sp)
   114e4:	e86e                	sd	s11,16(sp)
   114e6:	ec02                	sd	zero,24(sp)
   114e8:	41978bbb          	subw	s7,a5,s9
   114ec:	0df14783          	lbu	a5,223(sp)
   114f0:	fffbc993          	not	s3,s7
   114f4:	43f9d993          	srai	s3,s3,0x3f
   114f8:	e482                	sd	zero,72(sp)
   114fa:	ec82                	sd	zero,88(sp)
   114fc:	e882                	sd	zero,80(sp)
   114fe:	0179f9b3          	and	s3,s3,s7
   11502:	4c01                	li	s8,0
   11504:	ba0799e3          	bnez	a5,110b6 <_vfprintf_r+0x398>
   11508:	baf1                	j	10ee4 <_vfprintf_r+0x1c6>
   1150a:	6742                	ld	a4,16(sp)
   1150c:	0c010fa3          	sb	zero,223(sp)
   11510:	4985                	li	s3,1
   11512:	431c                	lw	a5,0(a4)
   11514:	0721                	addi	a4,a4,8
   11516:	e83a                	sd	a4,16(sp)
   11518:	12f10423          	sb	a5,296(sp)
   1151c:	4b85                	li	s7,1
   1151e:	12810c93          	addi	s9,sp,296
   11522:	ba65                	j	10eda <_vfprintf_r+0x1bc>
   11524:	0084e493          	ori	s1,s1,8
   11528:	00044e03          	lbu	t3,0(s0)
   1152c:	2481                	sext.w	s1,s1
   1152e:	b281                	j	10e6e <_vfprintf_r+0x150>
   11530:	0104e493          	ori	s1,s1,16
   11534:	00048d9b          	sext.w	s11,s1
   11538:	66c2                	ld	a3,16(sp)
   1153a:	020df793          	andi	a5,s11,32
   1153e:	00868713          	addi	a4,a3,8
   11542:	6a078863          	beqz	a5,11bf2 <_vfprintf_r+0xed4>
   11546:	0006b983          	ld	s3,0(a3)
   1154a:	4785                	li	a5,1
   1154c:	e83a                	sd	a4,16(sp)
   1154e:	be41                	j	110de <_vfprintf_r+0x3c0>
   11550:	0204e493          	ori	s1,s1,32
   11554:	00044e03          	lbu	t3,0(s0)
   11558:	2481                	sext.w	s1,s1
   1155a:	ba11                	j	10e6e <_vfprintf_r+0x150>
   1155c:	0804e493          	ori	s1,s1,128
   11560:	00044e03          	lbu	t3,0(s0)
   11564:	2481                	sext.w	s1,s1
   11566:	b221                	j	10e6e <_vfprintf_r+0x150>
   11568:	00044d03          	lbu	s10,0(s0)
   1156c:	00140713          	addi	a4,s0,1
   11570:	00cd1463          	bne	s10,a2,11578 <_vfprintf_r+0x85a>
   11574:	2e60106f          	j	1285a <_vfprintf_r+0x1b3c>
   11578:	fd0d079b          	addiw	a5,s10,-48
   1157c:	843a                	mv	s0,a4
   1157e:	4c01                	li	s8,0
   11580:	8efdece3          	bltu	s11,a5,10e78 <_vfprintf_r+0x15a>
   11584:	00044d03          	lbu	s10,0(s0)
   11588:	002c169b          	slliw	a3,s8,0x2
   1158c:	018686bb          	addw	a3,a3,s8
   11590:	0016969b          	slliw	a3,a3,0x1
   11594:	00f68c3b          	addw	s8,a3,a5
   11598:	fd0d079b          	addiw	a5,s10,-48
   1159c:	0405                	addi	s0,s0,1
   1159e:	fefdf3e3          	bgeu	s11,a5,11584 <_vfprintf_r+0x866>
   115a2:	b8d9                	j	10e78 <_vfprintf_r+0x15a>
   115a4:	00044e03          	lbu	t3,0(s0)
   115a8:	0044e493          	ori	s1,s1,4
   115ac:	2481                	sext.w	s1,s1
   115ae:	b0c1                	j	10e6e <_vfprintf_r+0x150>
   115b0:	02b00793          	li	a5,43
   115b4:	00044e03          	lbu	t3,0(s0)
   115b8:	0cf10fa3          	sb	a5,223(sp)
   115bc:	b84d                	j	10e6e <_vfprintf_r+0x150>
   115be:	67c2                	ld	a5,16(sp)
   115c0:	00044e03          	lbu	t3,0(s0)
   115c4:	0007aa83          	lw	s5,0(a5)
   115c8:	07a1                	addi	a5,a5,8
   115ca:	e83e                	sd	a5,16(sp)
   115cc:	8a0ad1e3          	bgez	s5,10e6e <_vfprintf_r+0x150>
   115d0:	41500abb          	negw	s5,s5
   115d4:	bfd1                	j	115a8 <_vfprintf_r+0x88a>
   115d6:	8552                	mv	a0,s4
   115d8:	ec1a                	sd	t1,24(sp)
   115da:	69d030ef          	jal	ra,15476 <_localeconv_r>
   115de:	651c                	ld	a5,8(a0)
   115e0:	853e                	mv	a0,a5
   115e2:	e53e                	sd	a5,136(sp)
   115e4:	2b2050ef          	jal	ra,16896 <strlen>
   115e8:	87aa                	mv	a5,a0
   115ea:	8552                	mv	a0,s4
   115ec:	8d3e                	mv	s10,a5
   115ee:	e13e                	sd	a5,128(sp)
   115f0:	687030ef          	jal	ra,15476 <_localeconv_r>
   115f4:	691c                	ld	a5,16(a0)
   115f6:	6362                	ld	t1,24(sp)
   115f8:	00044e03          	lbu	t3,0(s0)
   115fc:	f0be                	sd	a5,96(sp)
   115fe:	860d08e3          	beqz	s10,10e6e <_vfprintf_r+0x150>
   11602:	860786e3          	beqz	a5,10e6e <_vfprintf_r+0x150>
   11606:	0007c783          	lbu	a5,0(a5)
   1160a:	860782e3          	beqz	a5,10e6e <_vfprintf_r+0x150>
   1160e:	4004e493          	ori	s1,s1,1024
   11612:	2481                	sext.w	s1,s1
   11614:	b8a9                	j	10e6e <_vfprintf_r+0x150>
   11616:	0014e493          	ori	s1,s1,1
   1161a:	00044e03          	lbu	t3,0(s0)
   1161e:	2481                	sext.w	s1,s1
   11620:	b0b9                	j	10e6e <_vfprintf_r+0x150>
   11622:	0df14783          	lbu	a5,223(sp)
   11626:	00044e03          	lbu	t3,0(s0)
   1162a:	840792e3          	bnez	a5,10e6e <_vfprintf_r+0x150>
   1162e:	02000793          	li	a5,32
   11632:	0cf10fa3          	sb	a5,223(sp)
   11636:	839ff06f          	j	10e6e <_vfprintf_r+0x150>
   1163a:	6742                	ld	a4,16(sp)
   1163c:	77e1                	lui	a5,0xffff8
   1163e:	8307c793          	xori	a5,a5,-2000
   11642:	0ef11023          	sh	a5,224(sp)
   11646:	00870793          	addi	a5,a4,8
   1164a:	e83e                	sd	a5,16(sp)
   1164c:	67f5                	lui	a5,0x1d
   1164e:	8a078793          	addi	a5,a5,-1888 # 1c8a0 <__clzdi2+0x98>
   11652:	0024e493          	ori	s1,s1,2
   11656:	f43e                	sd	a5,40(sp)
   11658:	00073983          	ld	s3,0(a4)
   1165c:	00048d9b          	sext.w	s11,s1
   11660:	4789                	li	a5,2
   11662:	07800d13          	li	s10,120
   11666:	bca5                	j	110de <_vfprintf_r+0x3c0>
   11668:	66c2                	ld	a3,16(sp)
   1166a:	0204f793          	andi	a5,s1,32
   1166e:	6298                	ld	a4,0(a3)
   11670:	06a1                	addi	a3,a3,8
   11672:	e836                	sd	a3,16(sp)
   11674:	5a079563          	bnez	a5,11c1e <_vfprintf_r+0xf00>
   11678:	0104f793          	andi	a5,s1,16
   1167c:	5a079163          	bnez	a5,11c1e <_vfprintf_r+0xf00>
   11680:	0404f793          	andi	a5,s1,64
   11684:	36079fe3          	bnez	a5,12202 <_vfprintf_r+0x14e4>
   11688:	2004f493          	andi	s1,s1,512
   1168c:	67a2                	ld	a5,8(sp)
   1168e:	e099                	bnez	s1,11694 <_vfprintf_r+0x976>
   11690:	06c0106f          	j	126fc <_vfprintf_r+0x19de>
   11694:	00f70023          	sb	a5,0(a4)
   11698:	8ca2                	mv	s9,s0
   1169a:	b22d                	j	10fc4 <_vfprintf_r+0x2a6>
   1169c:	00044e03          	lbu	t3,0(s0)
   116a0:	06c00793          	li	a5,108
   116a4:	6efe0e63          	beq	t3,a5,11da0 <_vfprintf_r+0x1082>
   116a8:	0104e493          	ori	s1,s1,16
   116ac:	2481                	sext.w	s1,s1
   116ae:	fc0ff06f          	j	10e6e <_vfprintf_r+0x150>
   116b2:	00044e03          	lbu	t3,0(s0)
   116b6:	06800793          	li	a5,104
   116ba:	6cfe0b63          	beq	t3,a5,11d90 <_vfprintf_r+0x1072>
   116be:	0404e493          	ori	s1,s1,64
   116c2:	2481                	sext.w	s1,s1
   116c4:	faaff06f          	j	10e6e <_vfprintf_r+0x150>
   116c8:	4705                	li	a4,1
   116ca:	00e79463          	bne	a5,a4,116d2 <_vfprintf_r+0x9b4>
   116ce:	0140106f          	j	126e2 <_vfprintf_r+0x19c4>
   116d2:	4709                	li	a4,2
   116d4:	8da6                	mv	s11,s1
   116d6:	d8e79ce3          	bne	a5,a4,1146e <_vfprintf_r+0x750>
   116da:	18c10b93          	addi	s7,sp,396
   116de:	8cde                	mv	s9,s7
   116e0:	7722                	ld	a4,40(sp)
   116e2:	00f9f793          	andi	a5,s3,15
   116e6:	1cfd                	addi	s9,s9,-1
   116e8:	97ba                	add	a5,a5,a4
   116ea:	0007c783          	lbu	a5,0(a5)
   116ee:	0049d993          	srli	s3,s3,0x4
   116f2:	00fc8023          	sb	a5,0(s9)
   116f6:	fe0995e3          	bnez	s3,116e0 <_vfprintf_r+0x9c2>
   116fa:	419b8bbb          	subw	s7,s7,s9
   116fe:	84ee                	mv	s1,s11
   11700:	ba69                	j	1109a <_vfprintf_r+0x37c>
   11702:	06500713          	li	a4,101
   11706:	c3a75be3          	bge	a4,s10,1133c <_vfprintf_r+0x61e>
   1170a:	6512                	ld	a0,256(sp)
   1170c:	65b2                	ld	a1,264(sp)
   1170e:	4601                	li	a2,0
   11710:	4681                	li	a3,0
   11712:	fc3e                	sd	a5,56(sp)
   11714:	f81a                	sd	t1,48(sp)
   11716:	505090ef          	jal	ra,1b41a <__eqtf2>
   1171a:	7342                	ld	t1,48(sp)
   1171c:	77e2                	ld	a5,56(sp)
   1171e:	32051963          	bnez	a0,11a50 <_vfprintf_r+0xd32>
   11722:	11812703          	lw	a4,280(sp)
   11726:	66f5                	lui	a3,0x1d
   11728:	8c068693          	addi	a3,a3,-1856 # 1c8c0 <__clzdi2+0xb8>
   1172c:	2705                	addiw	a4,a4,1
   1172e:	00d33023          	sd	a3,0(t1)
   11732:	0785                	addi	a5,a5,1
   11734:	4685                	li	a3,1
   11736:	00d33423          	sd	a3,8(t1)
   1173a:	10e12c23          	sw	a4,280(sp)
   1173e:	0007069b          	sext.w	a3,a4
   11742:	f23e                	sd	a5,288(sp)
   11744:	471d                	li	a4,7
   11746:	0341                	addi	t1,t1,16
   11748:	78d74763          	blt	a4,a3,11ed6 <_vfprintf_r+0x11b8>
   1174c:	572e                	lw	a4,232(sp)
   1174e:	7682                	ld	a3,32(sp)
   11750:	4cd75263          	bge	a4,a3,11c14 <_vfprintf_r+0xef6>
   11754:	7746                	ld	a4,112(sp)
   11756:	76a6                	ld	a3,104(sp)
   11758:	0341                	addi	t1,t1,16
   1175a:	fee33823          	sd	a4,-16(t1)
   1175e:	11812703          	lw	a4,280(sp)
   11762:	97b6                	add	a5,a5,a3
   11764:	fed33c23          	sd	a3,-8(t1)
   11768:	2705                	addiw	a4,a4,1
   1176a:	0007069b          	sext.w	a3,a4
   1176e:	10e12c23          	sw	a4,280(sp)
   11772:	f23e                	sd	a5,288(sp)
   11774:	471d                	li	a4,7
   11776:	60d74363          	blt	a4,a3,11d7c <_vfprintf_r+0x105e>
   1177a:	7702                	ld	a4,32(sp)
   1177c:	fff70b9b          	addiw	s7,a4,-1
   11780:	817059e3          	blez	s7,10f92 <_vfprintf_r+0x274>
   11784:	68f5                	lui	a7,0x1d
   11786:	46c1                	li	a3,16
   11788:	11812703          	lw	a4,280(sp)
   1178c:	a4888d93          	addi	s11,a7,-1464 # 1ca48 <zeroes.0>
   11790:	4cc1                	li	s9,16
   11792:	4c1d                	li	s8,7
   11794:	0176c663          	blt	a3,s7,117a0 <_vfprintf_r+0xa82>
   11798:	af91                	j	11eec <_vfprintf_r+0x11ce>
   1179a:	3bc1                	addiw	s7,s7,-16
   1179c:	757cd863          	bge	s9,s7,11eec <_vfprintf_r+0x11ce>
   117a0:	2705                	addiw	a4,a4,1
   117a2:	07c1                	addi	a5,a5,16
   117a4:	01b33023          	sd	s11,0(t1)
   117a8:	01933423          	sd	s9,8(t1)
   117ac:	f23e                	sd	a5,288(sp)
   117ae:	10e12c23          	sw	a4,280(sp)
   117b2:	0341                	addi	t1,t1,16
   117b4:	feec53e3          	bge	s8,a4,1179a <_vfprintf_r+0xa7c>
   117b8:	0a10                	addi	a2,sp,272
   117ba:	85ca                	mv	a1,s2
   117bc:	8552                	mv	a0,s4
   117be:	5b5060ef          	jal	ra,18572 <__sprint_r>
   117c2:	12051763          	bnez	a0,118f0 <_vfprintf_r+0xbd2>
   117c6:	7792                	ld	a5,288(sp)
   117c8:	11812703          	lw	a4,280(sp)
   117cc:	835a                	mv	t1,s6
   117ce:	b7f1                	j	1179a <_vfprintf_r+0xa7c>
   117d0:	413a86bb          	subw	a3,s5,s3
   117d4:	f8d05663          	blez	a3,10f60 <_vfprintf_r+0x242>
   117d8:	68f5                	lui	a7,0x1d
   117da:	4641                	li	a2,16
   117dc:	11812703          	lw	a4,280(sp)
   117e0:	a4888d93          	addi	s11,a7,-1464 # 1ca48 <zeroes.0>
   117e4:	4f41                	li	t5,16
   117e6:	429d                	li	t0,7
   117e8:	00d64663          	blt	a2,a3,117f4 <_vfprintf_r+0xad6>
   117ec:	a089                	j	1182e <_vfprintf_r+0xb10>
   117ee:	36c1                	addiw	a3,a3,-16
   117f0:	02df5f63          	bge	t5,a3,1182e <_vfprintf_r+0xb10>
   117f4:	2705                	addiw	a4,a4,1
   117f6:	07c1                	addi	a5,a5,16
   117f8:	01b33023          	sd	s11,0(t1)
   117fc:	01e33423          	sd	t5,8(t1)
   11800:	f23e                	sd	a5,288(sp)
   11802:	10e12c23          	sw	a4,280(sp)
   11806:	0341                	addi	t1,t1,16
   11808:	fee2d3e3          	bge	t0,a4,117ee <_vfprintf_r+0xad0>
   1180c:	0a10                	addi	a2,sp,272
   1180e:	85ca                	mv	a1,s2
   11810:	8552                	mv	a0,s4
   11812:	f836                	sd	a3,48(sp)
   11814:	55f060ef          	jal	ra,18572 <__sprint_r>
   11818:	ed61                	bnez	a0,118f0 <_vfprintf_r+0xbd2>
   1181a:	76c2                	ld	a3,48(sp)
   1181c:	4f41                	li	t5,16
   1181e:	7792                	ld	a5,288(sp)
   11820:	36c1                	addiw	a3,a3,-16
   11822:	11812703          	lw	a4,280(sp)
   11826:	835a                	mv	t1,s6
   11828:	429d                	li	t0,7
   1182a:	fcdf45e3          	blt	t5,a3,117f4 <_vfprintf_r+0xad6>
   1182e:	2705                	addiw	a4,a4,1
   11830:	97b6                	add	a5,a5,a3
   11832:	00d33423          	sd	a3,8(t1)
   11836:	01b33023          	sd	s11,0(t1)
   1183a:	0007069b          	sext.w	a3,a4
   1183e:	10e12c23          	sw	a4,280(sp)
   11842:	f23e                	sd	a5,288(sp)
   11844:	471d                	li	a4,7
   11846:	0341                	addi	t1,t1,16
   11848:	f0d75c63          	bge	a4,a3,10f60 <_vfprintf_r+0x242>
   1184c:	0a10                	addi	a2,sp,272
   1184e:	85ca                	mv	a1,s2
   11850:	8552                	mv	a0,s4
   11852:	521060ef          	jal	ra,18572 <__sprint_r>
   11856:	ed49                	bnez	a0,118f0 <_vfprintf_r+0xbd2>
   11858:	7792                	ld	a5,288(sp)
   1185a:	835a                	mv	t1,s6
   1185c:	f04ff06f          	j	10f60 <_vfprintf_r+0x242>
   11860:	68f5                	lui	a7,0x1d
   11862:	4641                	li	a2,16
   11864:	11812703          	lw	a4,280(sp)
   11868:	a4888d93          	addi	s11,a7,-1464 # 1ca48 <zeroes.0>
   1186c:	4ec1                	li	t4,16
   1186e:	4f1d                	li	t5,7
   11870:	01864663          	blt	a2,s8,1187c <_vfprintf_r+0xb5e>
   11874:	a83d                	j	118b2 <_vfprintf_r+0xb94>
   11876:	3c41                	addiw	s8,s8,-16
   11878:	038edd63          	bge	t4,s8,118b2 <_vfprintf_r+0xb94>
   1187c:	2705                	addiw	a4,a4,1
   1187e:	07c1                	addi	a5,a5,16
   11880:	01b33023          	sd	s11,0(t1)
   11884:	01d33423          	sd	t4,8(t1)
   11888:	f23e                	sd	a5,288(sp)
   1188a:	10e12c23          	sw	a4,280(sp)
   1188e:	0341                	addi	t1,t1,16
   11890:	feef53e3          	bge	t5,a4,11876 <_vfprintf_r+0xb58>
   11894:	0a10                	addi	a2,sp,272
   11896:	85ca                	mv	a1,s2
   11898:	8552                	mv	a0,s4
   1189a:	4d9060ef          	jal	ra,18572 <__sprint_r>
   1189e:	e929                	bnez	a0,118f0 <_vfprintf_r+0xbd2>
   118a0:	4ec1                	li	t4,16
   118a2:	3c41                	addiw	s8,s8,-16
   118a4:	7792                	ld	a5,288(sp)
   118a6:	11812703          	lw	a4,280(sp)
   118aa:	835a                	mv	t1,s6
   118ac:	4f1d                	li	t5,7
   118ae:	fd8ec7e3          	blt	t4,s8,1187c <_vfprintf_r+0xb5e>
   118b2:	0017069b          	addiw	a3,a4,1
   118b6:	97e2                	add	a5,a5,s8
   118b8:	01b33023          	sd	s11,0(t1)
   118bc:	01833423          	sd	s8,8(t1)
   118c0:	f23e                	sd	a5,288(sp)
   118c2:	10d12c23          	sw	a3,280(sp)
   118c6:	471d                	li	a4,7
   118c8:	0341                	addi	t1,t1,16
   118ca:	e8d75f63          	bge	a4,a3,10f68 <_vfprintf_r+0x24a>
   118ce:	0a10                	addi	a2,sp,272
   118d0:	85ca                	mv	a1,s2
   118d2:	8552                	mv	a0,s4
   118d4:	49f060ef          	jal	ra,18572 <__sprint_r>
   118d8:	ed01                	bnez	a0,118f0 <_vfprintf_r+0xbd2>
   118da:	7792                	ld	a5,288(sp)
   118dc:	835a                	mv	t1,s6
   118de:	e8aff06f          	j	10f68 <_vfprintf_r+0x24a>
   118e2:	0a10                	addi	a2,sp,272
   118e4:	85ca                	mv	a1,s2
   118e6:	8552                	mv	a0,s4
   118e8:	48b060ef          	jal	ra,18572 <__sprint_r>
   118ec:	ec050263          	beqz	a0,10fb0 <_vfprintf_r+0x292>
   118f0:	67e2                	ld	a5,24(sp)
   118f2:	ee078163          	beqz	a5,10fd4 <_vfprintf_r+0x2b6>
   118f6:	85be                	mv	a1,a5
   118f8:	8552                	mv	a0,s4
   118fa:	79e010ef          	jal	ra,13098 <_free_r>
   118fe:	ed6ff06f          	j	10fd4 <_vfprintf_r+0x2b6>
   11902:	4705                	li	a4,1
   11904:	8da6                	mv	s11,s1
   11906:	b6e791e3          	bne	a5,a4,11468 <_vfprintf_r+0x74a>
   1190a:	47a5                	li	a5,9
   1190c:	3537ef63          	bltu	a5,s3,11c6a <_vfprintf_r+0xf4c>
   11910:	0309899b          	addiw	s3,s3,48
   11914:	193105a3          	sb	s3,395(sp)
   11918:	84ee                	mv	s1,s11
   1191a:	4b85                	li	s7,1
   1191c:	18b10c93          	addi	s9,sp,395
   11920:	f7aff06f          	j	1109a <_vfprintf_r+0x37c>
   11924:	46c1                	li	a3,16
   11926:	11812603          	lw	a2,280(sp)
   1192a:	40e6dae3          	bge	a3,a4,1253e <_vfprintf_r+0x1820>
   1192e:	66f5                	lui	a3,0x1d
   11930:	a3868693          	addi	a3,a3,-1480 # 1ca38 <blanks.1>
   11934:	48c1                	li	a7,16
   11936:	439d                	li	t2,7
   11938:	a021                	j	11940 <_vfprintf_r+0xc22>
   1193a:	3741                	addiw	a4,a4,-16
   1193c:	04e8d363          	bge	a7,a4,11982 <_vfprintf_r+0xc64>
   11940:	2605                	addiw	a2,a2,1
   11942:	07c1                	addi	a5,a5,16
   11944:	00d33023          	sd	a3,0(t1)
   11948:	01133423          	sd	a7,8(t1)
   1194c:	f23e                	sd	a5,288(sp)
   1194e:	10c12c23          	sw	a2,280(sp)
   11952:	0341                	addi	t1,t1,16
   11954:	fec3d3e3          	bge	t2,a2,1193a <_vfprintf_r+0xc1c>
   11958:	0a10                	addi	a2,sp,272
   1195a:	85ca                	mv	a1,s2
   1195c:	8552                	mv	a0,s4
   1195e:	e0b6                	sd	a3,64(sp)
   11960:	fc3a                	sd	a4,56(sp)
   11962:	f816                	sd	t0,48(sp)
   11964:	40f060ef          	jal	ra,18572 <__sprint_r>
   11968:	f541                	bnez	a0,118f0 <_vfprintf_r+0xbd2>
   1196a:	7762                	ld	a4,56(sp)
   1196c:	48c1                	li	a7,16
   1196e:	7792                	ld	a5,288(sp)
   11970:	3741                	addiw	a4,a4,-16
   11972:	11812603          	lw	a2,280(sp)
   11976:	6686                	ld	a3,64(sp)
   11978:	72c2                	ld	t0,48(sp)
   1197a:	835a                	mv	t1,s6
   1197c:	439d                	li	t2,7
   1197e:	fce8c1e3          	blt	a7,a4,11940 <_vfprintf_r+0xc22>
   11982:	2605                	addiw	a2,a2,1
   11984:	97ba                	add	a5,a5,a4
   11986:	00d33023          	sd	a3,0(t1)
   1198a:	00e33423          	sd	a4,8(t1)
   1198e:	f23e                	sd	a5,288(sp)
   11990:	0006069b          	sext.w	a3,a2
   11994:	10c12c23          	sw	a2,280(sp)
   11998:	471d                	li	a4,7
   1199a:	0341                	addi	t1,t1,16
   1199c:	d6d75263          	bge	a4,a3,10f00 <_vfprintf_r+0x1e2>
   119a0:	0a10                	addi	a2,sp,272
   119a2:	85ca                	mv	a1,s2
   119a4:	8552                	mv	a0,s4
   119a6:	f816                	sd	t0,48(sp)
   119a8:	3cb060ef          	jal	ra,18572 <__sprint_r>
   119ac:	f131                	bnez	a0,118f0 <_vfprintf_r+0xbd2>
   119ae:	7792                	ld	a5,288(sp)
   119b0:	72c2                	ld	t0,48(sp)
   119b2:	835a                	mv	t1,s6
   119b4:	d4cff06f          	j	10f00 <_vfprintf_r+0x1e2>
   119b8:	0a10                	addi	a2,sp,272
   119ba:	85ca                	mv	a1,s2
   119bc:	8552                	mv	a0,s4
   119be:	3b5060ef          	jal	ra,18572 <__sprint_r>
   119c2:	f51d                	bnez	a0,118f0 <_vfprintf_r+0xbd2>
   119c4:	7792                	ld	a5,288(sp)
   119c6:	835a                	mv	t1,s6
   119c8:	d90ff06f          	j	10f58 <_vfprintf_r+0x23a>
   119cc:	46c1                	li	a3,16
   119ce:	11812703          	lw	a4,280(sp)
   119d2:	4296dbe3          	bge	a3,s1,12608 <_vfprintf_r+0x18ea>
   119d6:	66f5                	lui	a3,0x1d
   119d8:	a3868693          	addi	a3,a3,-1480 # 1ca38 <blanks.1>
   119dc:	4bc1                	li	s7,16
   119de:	4c1d                	li	s8,7
   119e0:	a021                	j	119e8 <_vfprintf_r+0xcca>
   119e2:	34c1                	addiw	s1,s1,-16
   119e4:	029bde63          	bge	s7,s1,11a20 <_vfprintf_r+0xd02>
   119e8:	2705                	addiw	a4,a4,1
   119ea:	07c1                	addi	a5,a5,16
   119ec:	00d33023          	sd	a3,0(t1)
   119f0:	01733423          	sd	s7,8(t1)
   119f4:	f23e                	sd	a5,288(sp)
   119f6:	10e12c23          	sw	a4,280(sp)
   119fa:	0341                	addi	t1,t1,16
   119fc:	feec53e3          	bge	s8,a4,119e2 <_vfprintf_r+0xcc4>
   11a00:	0a10                	addi	a2,sp,272
   11a02:	85ca                	mv	a1,s2
   11a04:	8552                	mv	a0,s4
   11a06:	f836                	sd	a3,48(sp)
   11a08:	36b060ef          	jal	ra,18572 <__sprint_r>
   11a0c:	ee0512e3          	bnez	a0,118f0 <_vfprintf_r+0xbd2>
   11a10:	34c1                	addiw	s1,s1,-16
   11a12:	7792                	ld	a5,288(sp)
   11a14:	11812703          	lw	a4,280(sp)
   11a18:	76c2                	ld	a3,48(sp)
   11a1a:	835a                	mv	t1,s6
   11a1c:	fc9bc6e3          	blt	s7,s1,119e8 <_vfprintf_r+0xcca>
   11a20:	2705                	addiw	a4,a4,1
   11a22:	97a6                	add	a5,a5,s1
   11a24:	00d33023          	sd	a3,0(t1)
   11a28:	10e12c23          	sw	a4,280(sp)
   11a2c:	0007069b          	sext.w	a3,a4
   11a30:	00933423          	sd	s1,8(t1)
   11a34:	f23e                	sd	a5,288(sp)
   11a36:	471d                	li	a4,7
   11a38:	d6d75363          	bge	a4,a3,10f9e <_vfprintf_r+0x280>
   11a3c:	0a10                	addi	a2,sp,272
   11a3e:	85ca                	mv	a1,s2
   11a40:	8552                	mv	a0,s4
   11a42:	331060ef          	jal	ra,18572 <__sprint_r>
   11a46:	ea0515e3          	bnez	a0,118f0 <_vfprintf_r+0xbd2>
   11a4a:	7792                	ld	a5,288(sp)
   11a4c:	d52ff06f          	j	10f9e <_vfprintf_r+0x280>
   11a50:	562e                	lw	a2,232(sp)
   11a52:	40c05763          	blez	a2,11e60 <_vfprintf_r+0x1142>
   11a56:	6746                	ld	a4,80(sp)
   11a58:	7682                	ld	a3,32(sp)
   11a5a:	00070b9b          	sext.w	s7,a4
   11a5e:	28e6c663          	blt	a3,a4,11cea <_vfprintf_r+0xfcc>
   11a62:	03705263          	blez	s7,11a86 <_vfprintf_r+0xd68>
   11a66:	11812703          	lw	a4,280(sp)
   11a6a:	97de                	add	a5,a5,s7
   11a6c:	01933023          	sd	s9,0(t1)
   11a70:	0017069b          	addiw	a3,a4,1
   11a74:	01733423          	sd	s7,8(t1)
   11a78:	f23e                	sd	a5,288(sp)
   11a7a:	10d12c23          	sw	a3,280(sp)
   11a7e:	471d                	li	a4,7
   11a80:	0341                	addi	t1,t1,16
   11a82:	74d74663          	blt	a4,a3,121ce <_vfprintf_r+0x14b0>
   11a86:	fffbc713          	not	a4,s7
   11a8a:	977d                	srai	a4,a4,0x3f
   11a8c:	00ebfbb3          	and	s7,s7,a4
   11a90:	6746                	ld	a4,80(sp)
   11a92:	41770bbb          	subw	s7,a4,s7
   11a96:	33704e63          	bgtz	s7,11dd2 <_vfprintf_r+0x10b4>
   11a9a:	66c6                	ld	a3,80(sp)
   11a9c:	4004f713          	andi	a4,s1,1024
   11aa0:	00dc8c33          	add	s8,s9,a3
   11aa4:	5a071463          	bnez	a4,1204c <_vfprintf_r+0x132e>
   11aa8:	572e                	lw	a4,232(sp)
   11aaa:	7682                	ld	a3,32(sp)
   11aac:	00d74663          	blt	a4,a3,11ab8 <_vfprintf_r+0xd9a>
   11ab0:	0014f693          	andi	a3,s1,1
   11ab4:	72068963          	beqz	a3,121e6 <_vfprintf_r+0x14c8>
   11ab8:	76c6                	ld	a3,112(sp)
   11aba:	7626                	ld	a2,104(sp)
   11abc:	0341                	addi	t1,t1,16
   11abe:	fed33823          	sd	a3,-16(t1)
   11ac2:	11812683          	lw	a3,280(sp)
   11ac6:	97b2                	add	a5,a5,a2
   11ac8:	fec33c23          	sd	a2,-8(t1)
   11acc:	2685                	addiw	a3,a3,1
   11ace:	0006861b          	sext.w	a2,a3
   11ad2:	10d12c23          	sw	a3,280(sp)
   11ad6:	f23e                	sd	a5,288(sp)
   11ad8:	469d                	li	a3,7
   11ada:	22c6c8e3          	blt	a3,a2,1250a <_vfprintf_r+0x17ec>
   11ade:	7682                	ld	a3,32(sp)
   11ae0:	00dc8633          	add	a2,s9,a3
   11ae4:	40e6873b          	subw	a4,a3,a4
   11ae8:	4186063b          	subw	a2,a2,s8
   11aec:	0007069b          	sext.w	a3,a4
   11af0:	00d65363          	bge	a2,a3,11af6 <_vfprintf_r+0xdd8>
   11af4:	8732                	mv	a4,a2
   11af6:	00070b9b          	sext.w	s7,a4
   11afa:	03705263          	blez	s7,11b1e <_vfprintf_r+0xe00>
   11afe:	11812703          	lw	a4,280(sp)
   11b02:	97de                	add	a5,a5,s7
   11b04:	01833023          	sd	s8,0(t1)
   11b08:	0017061b          	addiw	a2,a4,1
   11b0c:	01733423          	sd	s7,8(t1)
   11b10:	f23e                	sd	a5,288(sp)
   11b12:	10c12c23          	sw	a2,280(sp)
   11b16:	471d                	li	a4,7
   11b18:	0341                	addi	t1,t1,16
   11b1a:	26c74ae3          	blt	a4,a2,1258e <_vfprintf_r+0x1870>
   11b1e:	fffbc713          	not	a4,s7
   11b22:	977d                	srai	a4,a4,0x3f
   11b24:	00ebfbb3          	and	s7,s7,a4
   11b28:	41768bbb          	subw	s7,a3,s7
   11b2c:	c7705363          	blez	s7,10f92 <_vfprintf_r+0x274>
   11b30:	68f5                	lui	a7,0x1d
   11b32:	46c1                	li	a3,16
   11b34:	11812703          	lw	a4,280(sp)
   11b38:	a4888d93          	addi	s11,a7,-1464 # 1ca48 <zeroes.0>
   11b3c:	4cc1                	li	s9,16
   11b3e:	4c1d                	li	s8,7
   11b40:	0176c663          	blt	a3,s7,11b4c <_vfprintf_r+0xe2e>
   11b44:	a665                	j	11eec <_vfprintf_r+0x11ce>
   11b46:	3bc1                	addiw	s7,s7,-16
   11b48:	3b7cd263          	bge	s9,s7,11eec <_vfprintf_r+0x11ce>
   11b4c:	2705                	addiw	a4,a4,1
   11b4e:	07c1                	addi	a5,a5,16
   11b50:	01b33023          	sd	s11,0(t1)
   11b54:	01933423          	sd	s9,8(t1)
   11b58:	f23e                	sd	a5,288(sp)
   11b5a:	10e12c23          	sw	a4,280(sp)
   11b5e:	0341                	addi	t1,t1,16
   11b60:	feec53e3          	bge	s8,a4,11b46 <_vfprintf_r+0xe28>
   11b64:	0a10                	addi	a2,sp,272
   11b66:	85ca                	mv	a1,s2
   11b68:	8552                	mv	a0,s4
   11b6a:	209060ef          	jal	ra,18572 <__sprint_r>
   11b6e:	d80511e3          	bnez	a0,118f0 <_vfprintf_r+0xbd2>
   11b72:	7792                	ld	a5,288(sp)
   11b74:	11812703          	lw	a4,280(sp)
   11b78:	835a                	mv	t1,s6
   11b7a:	b7f1                	j	11b46 <_vfprintf_r+0xe28>
   11b7c:	0014f513          	andi	a0,s1,1
   11b80:	fc051d63          	bnez	a0,1135a <_vfprintf_r+0x63c>
   11b84:	00b33423          	sd	a1,8(t1)
   11b88:	f262                	sd	s8,288(sp)
   11b8a:	10e12c23          	sw	a4,280(sp)
   11b8e:	469d                	li	a3,7
   11b90:	18e6c163          	blt	a3,a4,11d12 <_vfprintf_r+0xff4>
   11b94:	2609                	addiw	a2,a2,2
   11b96:	02030313          	addi	t1,t1,32
   11b9a:	847ff06f          	j	113e0 <_vfprintf_r+0x6c2>
   11b9e:	85a051e3          	blez	s10,113e0 <_vfprintf_r+0x6c2>
   11ba2:	4741                	li	a4,16
   11ba4:	47a75de3          	bge	a4,s10,1281e <_vfprintf_r+0x1b00>
   11ba8:	68f5                	lui	a7,0x1d
   11baa:	a4888d93          	addi	s11,a7,-1464 # 1ca48 <zeroes.0>
   11bae:	4841                	li	a6,16
   11bb0:	4c9d                	li	s9,7
   11bb2:	a031                	j	11bbe <_vfprintf_r+0xea0>
   11bb4:	3d41                	addiw	s10,s10,-16
   11bb6:	13a85f63          	bge	a6,s10,11cf4 <_vfprintf_r+0xfd6>
   11bba:	00170e1b          	addiw	t3,a4,1
   11bbe:	0c41                	addi	s8,s8,16
   11bc0:	01bbb023          	sd	s11,0(s7)
   11bc4:	010bb423          	sd	a6,8(s7)
   11bc8:	f262                	sd	s8,288(sp)
   11bca:	000e071b          	sext.w	a4,t3
   11bce:	11c12c23          	sw	t3,280(sp)
   11bd2:	0bc1                	addi	s7,s7,16
   11bd4:	feecd0e3          	bge	s9,a4,11bb4 <_vfprintf_r+0xe96>
   11bd8:	0a10                	addi	a2,sp,272
   11bda:	85ca                	mv	a1,s2
   11bdc:	8552                	mv	a0,s4
   11bde:	195060ef          	jal	ra,18572 <__sprint_r>
   11be2:	d00517e3          	bnez	a0,118f0 <_vfprintf_r+0xbd2>
   11be6:	7c12                	ld	s8,288(sp)
   11be8:	11812703          	lw	a4,280(sp)
   11bec:	8bda                	mv	s7,s6
   11bee:	4841                	li	a6,16
   11bf0:	b7d1                	j	11bb4 <_vfprintf_r+0xe96>
   11bf2:	010df793          	andi	a5,s11,16
   11bf6:	e3b9                	bnez	a5,11c3c <_vfprintf_r+0xf1e>
   11bf8:	66c2                	ld	a3,16(sp)
   11bfa:	040df793          	andi	a5,s11,64
   11bfe:	0006a983          	lw	s3,0(a3)
   11c02:	3e078663          	beqz	a5,11fee <_vfprintf_r+0x12d0>
   11c06:	19c2                	slli	s3,s3,0x30
   11c08:	0309d993          	srli	s3,s3,0x30
   11c0c:	e83a                	sd	a4,16(sp)
   11c0e:	4785                	li	a5,1
   11c10:	cceff06f          	j	110de <_vfprintf_r+0x3c0>
   11c14:	0014f713          	andi	a4,s1,1
   11c18:	b6070d63          	beqz	a4,10f92 <_vfprintf_r+0x274>
   11c1c:	be25                	j	11754 <_vfprintf_r+0xa36>
   11c1e:	67a2                	ld	a5,8(sp)
   11c20:	8ca2                	mv	s9,s0
   11c22:	e31c                	sd	a5,0(a4)
   11c24:	ba0ff06f          	j	10fc4 <_vfprintf_r+0x2a6>
   11c28:	67c2                	ld	a5,16(sp)
   11c2a:	639c                	ld	a5,0(a5)
   11c2c:	89be                	mv	s3,a5
   11c2e:	c46ff06f          	j	11074 <_vfprintf_r+0x356>
   11c32:	67c2                	ld	a5,16(sp)
   11c34:	0007b983          	ld	s3,0(a5)
   11c38:	c9aff06f          	j	110d2 <_vfprintf_r+0x3b4>
   11c3c:	67c2                	ld	a5,16(sp)
   11c3e:	e83a                	sd	a4,16(sp)
   11c40:	0007b983          	ld	s3,0(a5)
   11c44:	4785                	li	a5,1
   11c46:	c98ff06f          	j	110de <_vfprintf_r+0x3c0>
   11c4a:	67c2                	ld	a5,16(sp)
   11c4c:	07bd                	addi	a5,a5,15
   11c4e:	9bc1                	andi	a5,a5,-16
   11c50:	6398                	ld	a4,0(a5)
   11c52:	6794                	ld	a3,8(a5)
   11c54:	07c1                	addi	a5,a5,16
   11c56:	e83e                	sd	a5,16(sp)
   11c58:	e23a                	sd	a4,256(sp)
   11c5a:	e636                	sd	a3,264(sp)
   11c5c:	cf2ff06f          	j	1114e <_vfprintf_r+0x430>
   11c60:	e83a                	sd	a4,16(sp)
   11c62:	47a5                	li	a5,9
   11c64:	8da6                	mv	s11,s1
   11c66:	cb37f5e3          	bgeu	a5,s3,11910 <_vfprintf_r+0xbf2>
   11c6a:	18c10b93          	addi	s7,sp,396
   11c6e:	400df793          	andi	a5,s11,1024
   11c72:	f002                	sd	zero,32(sp)
   11c74:	85de                	mv	a1,s7
   11c76:	44a9                	li	s1,10
   11c78:	4725                	li	a4,9
   11c7a:	0ff00693          	li	a3,255
   11c7e:	a039                	j	11c8c <_vfprintf_r+0xf6e>
   11c80:	0299d633          	divu	a2,s3,s1
   11c84:	a7377be3          	bgeu	a4,s3,116fa <_vfprintf_r+0x9dc>
   11c88:	89b2                	mv	s3,a2
   11c8a:	85e6                	mv	a1,s9
   11c8c:	7502                	ld	a0,32(sp)
   11c8e:	fff58c93          	addi	s9,a1,-1
   11c92:	2505                	addiw	a0,a0,1
   11c94:	f02a                	sd	a0,32(sp)
   11c96:	0299f633          	remu	a2,s3,s1
   11c9a:	0306061b          	addiw	a2,a2,48
   11c9e:	fec58fa3          	sb	a2,-1(a1)
   11ca2:	dff9                	beqz	a5,11c80 <_vfprintf_r+0xf62>
   11ca4:	7606                	ld	a2,96(sp)
   11ca6:	00064603          	lbu	a2,0(a2)
   11caa:	fcc51be3          	bne	a0,a2,11c80 <_vfprintf_r+0xf62>
   11cae:	fcd609e3          	beq	a2,a3,11c80 <_vfprintf_r+0xf62>
   11cb2:	a53774e3          	bgeu	a4,s3,116fa <_vfprintf_r+0x9dc>
   11cb6:	ec3e                	sd	a5,24(sp)
   11cb8:	678a                	ld	a5,128(sp)
   11cba:	65aa                	ld	a1,136(sp)
   11cbc:	f81a                	sd	t1,48(sp)
   11cbe:	40fc8cb3          	sub	s9,s9,a5
   11cc2:	863e                	mv	a2,a5
   11cc4:	8566                	mv	a0,s9
   11cc6:	461040ef          	jal	ra,16926 <strncpy>
   11cca:	7786                	ld	a5,96(sp)
   11ccc:	0299d633          	divu	a2,s3,s1
   11cd0:	7342                	ld	t1,48(sp)
   11cd2:	0017c583          	lbu	a1,1(a5)
   11cd6:	f002                	sd	zero,32(sp)
   11cd8:	4725                	li	a4,9
   11cda:	00b035b3          	snez	a1,a1
   11cde:	97ae                	add	a5,a5,a1
   11ce0:	f0be                	sd	a5,96(sp)
   11ce2:	0ff00693          	li	a3,255
   11ce6:	67e2                	ld	a5,24(sp)
   11ce8:	b745                	j	11c88 <_vfprintf_r+0xf6a>
   11cea:	00068b9b          	sext.w	s7,a3
   11cee:	d7704ce3          	bgtz	s7,11a66 <_vfprintf_r+0xd48>
   11cf2:	bb51                	j	11a86 <_vfprintf_r+0xd68>
   11cf4:	0017061b          	addiw	a2,a4,1
   11cf8:	010b8713          	addi	a4,s7,16
   11cfc:	9c6a                	add	s8,s8,s10
   11cfe:	01bbb023          	sd	s11,0(s7)
   11d02:	01abb423          	sd	s10,8(s7)
   11d06:	f262                	sd	s8,288(sp)
   11d08:	10c12c23          	sw	a2,280(sp)
   11d0c:	469d                	li	a3,7
   11d0e:	48c6db63          	bge	a3,a2,121a4 <_vfprintf_r+0x1486>
   11d12:	0a10                	addi	a2,sp,272
   11d14:	85ca                	mv	a1,s2
   11d16:	8552                	mv	a0,s4
   11d18:	05b060ef          	jal	ra,18572 <__sprint_r>
   11d1c:	bc051ae3          	bnez	a0,118f0 <_vfprintf_r+0xbd2>
   11d20:	11812603          	lw	a2,280(sp)
   11d24:	7c12                	ld	s8,288(sp)
   11d26:	1a010313          	addi	t1,sp,416
   11d2a:	2605                	addiw	a2,a2,1
   11d2c:	8bda                	mv	s7,s6
   11d2e:	eb2ff06f          	j	113e0 <_vfprintf_r+0x6c2>
   11d32:	8da6                	mv	s11,s1
   11d34:	805ff06f          	j	11538 <_vfprintf_r+0x81a>
   11d38:	67f5                	lui	a5,0x1d
   11d3a:	8a078793          	addi	a5,a5,-1888 # 1c8a0 <__clzdi2+0x98>
   11d3e:	f43e                	sd	a5,40(sp)
   11d40:	66c2                	ld	a3,16(sp)
   11d42:	0204f793          	andi	a5,s1,32
   11d46:	00868713          	addi	a4,a3,8
   11d4a:	cbf1                	beqz	a5,11e1e <_vfprintf_r+0x1100>
   11d4c:	0006b983          	ld	s3,0(a3)
   11d50:	0014f793          	andi	a5,s1,1
   11d54:	cf81                	beqz	a5,11d6c <_vfprintf_r+0x104e>
   11d56:	00098b63          	beqz	s3,11d6c <_vfprintf_r+0x104e>
   11d5a:	0024e493          	ori	s1,s1,2
   11d5e:	03000793          	li	a5,48
   11d62:	0ef10023          	sb	a5,224(sp)
   11d66:	0fa100a3          	sb	s10,225(sp)
   11d6a:	2481                	sext.w	s1,s1
   11d6c:	bff4f493          	andi	s1,s1,-1025
   11d70:	00048d9b          	sext.w	s11,s1
   11d74:	e83a                	sd	a4,16(sp)
   11d76:	4789                	li	a5,2
   11d78:	b66ff06f          	j	110de <_vfprintf_r+0x3c0>
   11d7c:	0a10                	addi	a2,sp,272
   11d7e:	85ca                	mv	a1,s2
   11d80:	8552                	mv	a0,s4
   11d82:	7f0060ef          	jal	ra,18572 <__sprint_r>
   11d86:	b60515e3          	bnez	a0,118f0 <_vfprintf_r+0xbd2>
   11d8a:	7792                	ld	a5,288(sp)
   11d8c:	835a                	mv	t1,s6
   11d8e:	b2f5                	j	1177a <_vfprintf_r+0xa5c>
   11d90:	2004e493          	ori	s1,s1,512
   11d94:	00144e03          	lbu	t3,1(s0)
   11d98:	2481                	sext.w	s1,s1
   11d9a:	0405                	addi	s0,s0,1
   11d9c:	8d2ff06f          	j	10e6e <_vfprintf_r+0x150>
   11da0:	0204e493          	ori	s1,s1,32
   11da4:	00144e03          	lbu	t3,1(s0)
   11da8:	2481                	sext.w	s1,s1
   11daa:	0405                	addi	s0,s0,1
   11dac:	8c2ff06f          	j	10e6e <_vfprintf_r+0x150>
   11db0:	67f5                	lui	a5,0x1d
   11db2:	88878793          	addi	a5,a5,-1912 # 1c888 <__clzdi2+0x80>
   11db6:	f43e                	sd	a5,40(sp)
   11db8:	b761                	j	11d40 <_vfprintf_r+0x1022>
   11dba:	4799                	li	a5,6
   11dbc:	000c0b9b          	sext.w	s7,s8
   11dc0:	4387e163          	bltu	a5,s8,121e2 <_vfprintf_r+0x14c4>
   11dc4:	6875                	lui	a6,0x1d
   11dc6:	89de                	mv	s3,s7
   11dc8:	e86e                	sd	s11,16(sp)
   11dca:	8b880c93          	addi	s9,a6,-1864 # 1c8b8 <__clzdi2+0xb0>
   11dce:	90cff06f          	j	10eda <_vfprintf_r+0x1bc>
   11dd2:	68f5                	lui	a7,0x1d
   11dd4:	46c1                	li	a3,16
   11dd6:	11812703          	lw	a4,280(sp)
   11dda:	a4888d93          	addi	s11,a7,-1464 # 1ca48 <zeroes.0>
   11dde:	4d41                	li	s10,16
   11de0:	4c1d                	li	s8,7
   11de2:	0176c663          	blt	a3,s7,11dee <_vfprintf_r+0x10d0>
   11de6:	ac1d                	j	1201c <_vfprintf_r+0x12fe>
   11de8:	3bc1                	addiw	s7,s7,-16
   11dea:	237d5963          	bge	s10,s7,1201c <_vfprintf_r+0x12fe>
   11dee:	2705                	addiw	a4,a4,1
   11df0:	07c1                	addi	a5,a5,16
   11df2:	01b33023          	sd	s11,0(t1)
   11df6:	01a33423          	sd	s10,8(t1)
   11dfa:	f23e                	sd	a5,288(sp)
   11dfc:	10e12c23          	sw	a4,280(sp)
   11e00:	0341                	addi	t1,t1,16
   11e02:	feec53e3          	bge	s8,a4,11de8 <_vfprintf_r+0x10ca>
   11e06:	0a10                	addi	a2,sp,272
   11e08:	85ca                	mv	a1,s2
   11e0a:	8552                	mv	a0,s4
   11e0c:	766060ef          	jal	ra,18572 <__sprint_r>
   11e10:	ae0510e3          	bnez	a0,118f0 <_vfprintf_r+0xbd2>
   11e14:	7792                	ld	a5,288(sp)
   11e16:	11812703          	lw	a4,280(sp)
   11e1a:	835a                	mv	t1,s6
   11e1c:	b7f1                	j	11de8 <_vfprintf_r+0x10ca>
   11e1e:	0104f793          	andi	a5,s1,16
   11e22:	cfd9                	beqz	a5,11ec0 <_vfprintf_r+0x11a2>
   11e24:	67c2                	ld	a5,16(sp)
   11e26:	0007b983          	ld	s3,0(a5)
   11e2a:	b71d                	j	11d50 <_vfprintf_r+0x1032>
   11e2c:	0a10                	addi	a2,sp,272
   11e2e:	85ca                	mv	a1,s2
   11e30:	8552                	mv	a0,s4
   11e32:	740060ef          	jal	ra,18572 <__sprint_r>
   11e36:	aa051de3          	bnez	a0,118f0 <_vfprintf_r+0xbd2>
   11e3a:	7c12                	ld	s8,288(sp)
   11e3c:	11812703          	lw	a4,280(sp)
   11e40:	8bda                	mv	s7,s6
   11e42:	d2aff06f          	j	1136c <_vfprintf_r+0x64e>
   11e46:	0a10                	addi	a2,sp,272
   11e48:	85ca                	mv	a1,s2
   11e4a:	8552                	mv	a0,s4
   11e4c:	726060ef          	jal	ra,18572 <__sprint_r>
   11e50:	aa0510e3          	bnez	a0,118f0 <_vfprintf_r+0xbd2>
   11e54:	7c12                	ld	s8,288(sp)
   11e56:	11812703          	lw	a4,280(sp)
   11e5a:	8bda                	mv	s7,s6
   11e5c:	d34ff06f          	j	11390 <_vfprintf_r+0x672>
   11e60:	11812703          	lw	a4,280(sp)
   11e64:	66f5                	lui	a3,0x1d
   11e66:	8c068693          	addi	a3,a3,-1856 # 1c8c0 <__clzdi2+0xb8>
   11e6a:	2705                	addiw	a4,a4,1
   11e6c:	00d33023          	sd	a3,0(t1)
   11e70:	0785                	addi	a5,a5,1
   11e72:	4685                	li	a3,1
   11e74:	00d33423          	sd	a3,8(t1)
   11e78:	10e12c23          	sw	a4,280(sp)
   11e7c:	0007069b          	sext.w	a3,a4
   11e80:	f23e                	sd	a5,288(sp)
   11e82:	471d                	li	a4,7
   11e84:	0341                	addi	t1,t1,16
   11e86:	32d74563          	blt	a4,a3,121b0 <_vfprintf_r+0x1492>
   11e8a:	ea4d                	bnez	a2,11f3c <_vfprintf_r+0x121e>
   11e8c:	7682                	ld	a3,32(sp)
   11e8e:	0014f713          	andi	a4,s1,1
   11e92:	8f55                	or	a4,a4,a3
   11e94:	8e070f63          	beqz	a4,10f92 <_vfprintf_r+0x274>
   11e98:	7746                	ld	a4,112(sp)
   11e9a:	76a6                	ld	a3,104(sp)
   11e9c:	00e33023          	sd	a4,0(t1)
   11ea0:	11812703          	lw	a4,280(sp)
   11ea4:	97b6                	add	a5,a5,a3
   11ea6:	00d33423          	sd	a3,8(t1)
   11eaa:	2705                	addiw	a4,a4,1
   11eac:	0007069b          	sext.w	a3,a4
   11eb0:	10e12c23          	sw	a4,280(sp)
   11eb4:	f23e                	sd	a5,288(sp)
   11eb6:	471d                	li	a4,7
   11eb8:	38d74d63          	blt	a4,a3,12252 <_vfprintf_r+0x1534>
   11ebc:	0341                	addi	t1,t1,16
   11ebe:	a065                	j	11f66 <_vfprintf_r+0x1248>
   11ec0:	66c2                	ld	a3,16(sp)
   11ec2:	0404f793          	andi	a5,s1,64
   11ec6:	0006a983          	lw	s3,0(a3)
   11eca:	10078b63          	beqz	a5,11fe0 <_vfprintf_r+0x12c2>
   11ece:	19c2                	slli	s3,s3,0x30
   11ed0:	0309d993          	srli	s3,s3,0x30
   11ed4:	bdb5                	j	11d50 <_vfprintf_r+0x1032>
   11ed6:	0a10                	addi	a2,sp,272
   11ed8:	85ca                	mv	a1,s2
   11eda:	8552                	mv	a0,s4
   11edc:	696060ef          	jal	ra,18572 <__sprint_r>
   11ee0:	a00518e3          	bnez	a0,118f0 <_vfprintf_r+0xbd2>
   11ee4:	7792                	ld	a5,288(sp)
   11ee6:	835a                	mv	t1,s6
   11ee8:	865ff06f          	j	1174c <_vfprintf_r+0xa2e>
   11eec:	0017069b          	addiw	a3,a4,1
   11ef0:	8736                	mv	a4,a3
   11ef2:	97de                	add	a5,a5,s7
   11ef4:	01b33023          	sd	s11,0(t1)
   11ef8:	888ff06f          	j	10f80 <_vfprintf_r+0x262>
   11efc:	6512                	ld	a0,256(sp)
   11efe:	65b2                	ld	a1,264(sp)
   11f00:	4601                	li	a2,0
   11f02:	4681                	li	a3,0
   11f04:	650090ef          	jal	ra,1b554 <__letf2>
   11f08:	6362                	ld	t1,24(sp)
   11f0a:	5e054b63          	bltz	a0,12500 <_vfprintf_r+0x17e2>
   11f0e:	0df14783          	lbu	a5,223(sp)
   11f12:	04700713          	li	a4,71
   11f16:	2ba75863          	bge	a4,s10,121c6 <_vfprintf_r+0x14a8>
   11f1a:	6875                	lui	a6,0x1d
   11f1c:	87080c93          	addi	s9,a6,-1936 # 1c870 <__clzdi2+0x68>
   11f20:	f7f4f493          	andi	s1,s1,-129
   11f24:	ec02                	sd	zero,24(sp)
   11f26:	e482                	sd	zero,72(sp)
   11f28:	ec82                	sd	zero,88(sp)
   11f2a:	e882                	sd	zero,80(sp)
   11f2c:	2481                	sext.w	s1,s1
   11f2e:	498d                	li	s3,3
   11f30:	4b8d                	li	s7,3
   11f32:	4c01                	li	s8,0
   11f34:	98079163          	bnez	a5,110b6 <_vfprintf_r+0x398>
   11f38:	fadfe06f          	j	10ee4 <_vfprintf_r+0x1c6>
   11f3c:	7746                	ld	a4,112(sp)
   11f3e:	76a6                	ld	a3,104(sp)
   11f40:	0341                	addi	t1,t1,16
   11f42:	fee33823          	sd	a4,-16(t1)
   11f46:	11812703          	lw	a4,280(sp)
   11f4a:	97b6                	add	a5,a5,a3
   11f4c:	fed33c23          	sd	a3,-8(t1)
   11f50:	2705                	addiw	a4,a4,1
   11f52:	0007069b          	sext.w	a3,a4
   11f56:	10e12c23          	sw	a4,280(sp)
   11f5a:	f23e                	sd	a5,288(sp)
   11f5c:	471d                	li	a4,7
   11f5e:	2ed74a63          	blt	a4,a3,12252 <_vfprintf_r+0x1534>
   11f62:	64064963          	bltz	a2,125b4 <_vfprintf_r+0x1896>
   11f66:	7702                	ld	a4,32(sp)
   11f68:	0016861b          	addiw	a2,a3,1
   11f6c:	01933023          	sd	s9,0(t1)
   11f70:	97ba                	add	a5,a5,a4
   11f72:	00e33423          	sd	a4,8(t1)
   11f76:	f23e                	sd	a5,288(sp)
   11f78:	10c12c23          	sw	a2,280(sp)
   11f7c:	471d                	li	a4,7
   11f7e:	00c74463          	blt	a4,a2,11f86 <_vfprintf_r+0x1268>
   11f82:	80eff06f          	j	10f90 <_vfprintf_r+0x272>
   11f86:	c76ff06f          	j	113fc <_vfprintf_r+0x6de>
   11f8a:	8566                	mv	a0,s9
   11f8c:	f81a                	sd	t1,48(sp)
   11f8e:	109040ef          	jal	ra,16896 <strlen>
   11f92:	00050b9b          	sext.w	s7,a0
   11f96:	0df14783          	lbu	a5,223(sp)
   11f9a:	fffbc993          	not	s3,s7
   11f9e:	43f9d993          	srai	s3,s3,0x3f
   11fa2:	e86e                	sd	s11,16(sp)
   11fa4:	ec02                	sd	zero,24(sp)
   11fa6:	e482                	sd	zero,72(sp)
   11fa8:	ec82                	sd	zero,88(sp)
   11faa:	e882                	sd	zero,80(sp)
   11fac:	7342                	ld	t1,48(sp)
   11fae:	0179f9b3          	and	s3,s3,s7
   11fb2:	4c01                	li	s8,0
   11fb4:	90079163          	bnez	a5,110b6 <_vfprintf_r+0x398>
   11fb8:	f2dfe06f          	j	10ee4 <_vfprintf_r+0x1c6>
   11fbc:	2004f793          	andi	a5,s1,512
   11fc0:	26078363          	beqz	a5,12226 <_vfprintf_r+0x1508>
   11fc4:	67c2                	ld	a5,16(sp)
   11fc6:	00078983          	lb	s3,0(a5)
   11fca:	87ce                	mv	a5,s3
   11fcc:	8a8ff06f          	j	11074 <_vfprintf_r+0x356>
   11fd0:	2004f793          	andi	a5,s1,512
   11fd4:	24078463          	beqz	a5,1221c <_vfprintf_r+0x14fe>
   11fd8:	0ff9f993          	andi	s3,s3,255
   11fdc:	8f6ff06f          	j	110d2 <_vfprintf_r+0x3b4>
   11fe0:	2004f793          	andi	a5,s1,512
   11fe4:	24078763          	beqz	a5,12232 <_vfprintf_r+0x1514>
   11fe8:	0ff9f993          	andi	s3,s3,255
   11fec:	b395                	j	11d50 <_vfprintf_r+0x1032>
   11fee:	200df793          	andi	a5,s11,512
   11ff2:	20078e63          	beqz	a5,1220e <_vfprintf_r+0x14f0>
   11ff6:	0ff9f993          	andi	s3,s3,255
   11ffa:	e83a                	sd	a4,16(sp)
   11ffc:	4785                	li	a5,1
   11ffe:	8e0ff06f          	j	110de <_vfprintf_r+0x3c0>
   12002:	67b2                	ld	a5,264(sp)
   12004:	2207cb63          	bltz	a5,1223a <_vfprintf_r+0x151c>
   12008:	0df14783          	lbu	a5,223(sp)
   1200c:	04700713          	li	a4,71
   12010:	59a75e63          	bge	a4,s10,125ac <_vfprintf_r+0x188e>
   12014:	6875                	lui	a6,0x1d
   12016:	88080c93          	addi	s9,a6,-1920 # 1c880 <__clzdi2+0x78>
   1201a:	b719                	j	11f20 <_vfprintf_r+0x1202>
   1201c:	0017069b          	addiw	a3,a4,1
   12020:	97de                	add	a5,a5,s7
   12022:	01b33023          	sd	s11,0(t1)
   12026:	01733423          	sd	s7,8(t1)
   1202a:	f23e                	sd	a5,288(sp)
   1202c:	10d12c23          	sw	a3,280(sp)
   12030:	471d                	li	a4,7
   12032:	0341                	addi	t1,t1,16
   12034:	a6d753e3          	bge	a4,a3,11a9a <_vfprintf_r+0xd7c>
   12038:	0a10                	addi	a2,sp,272
   1203a:	85ca                	mv	a1,s2
   1203c:	8552                	mv	a0,s4
   1203e:	534060ef          	jal	ra,18572 <__sprint_r>
   12042:	8a0517e3          	bnez	a0,118f0 <_vfprintf_r+0xbd2>
   12046:	7792                	ld	a5,288(sp)
   12048:	835a                	mv	t1,s6
   1204a:	bc81                	j	11a9a <_vfprintf_r+0xd7c>
   1204c:	7702                	ld	a4,32(sp)
   1204e:	6ef5                	lui	t4,0x1d
   12050:	4b9d                	li	s7,7
   12052:	9766                	add	a4,a4,s9
   12054:	fc3a                	sd	a4,56(sp)
   12056:	6766                	ld	a4,88(sp)
   12058:	4dc1                	li	s11,16
   1205a:	a48e8d13          	addi	s10,t4,-1464 # 1ca48 <zeroes.0>
   1205e:	cb51                	beqz	a4,120f2 <_vfprintf_r+0x13d4>
   12060:	6726                	ld	a4,72(sp)
   12062:	eb59                	bnez	a4,120f8 <_vfprintf_r+0x13da>
   12064:	7706                	ld	a4,96(sp)
   12066:	177d                	addi	a4,a4,-1
   12068:	f0ba                	sd	a4,96(sp)
   1206a:	6766                	ld	a4,88(sp)
   1206c:	377d                	addiw	a4,a4,-1
   1206e:	ecba                	sd	a4,88(sp)
   12070:	672a                	ld	a4,136(sp)
   12072:	668a                	ld	a3,128(sp)
   12074:	0341                	addi	t1,t1,16
   12076:	fee33823          	sd	a4,-16(t1)
   1207a:	11812703          	lw	a4,280(sp)
   1207e:	97b6                	add	a5,a5,a3
   12080:	fed33c23          	sd	a3,-8(t1)
   12084:	2705                	addiw	a4,a4,1
   12086:	f23e                	sd	a5,288(sp)
   12088:	0007069b          	sext.w	a3,a4
   1208c:	10e12c23          	sw	a4,280(sp)
   12090:	0cdbcf63          	blt	s7,a3,1216e <_vfprintf_r+0x1450>
   12094:	7706                	ld	a4,96(sp)
   12096:	00074583          	lbu	a1,0(a4)
   1209a:	7762                	ld	a4,56(sp)
   1209c:	0005861b          	sext.w	a2,a1
   120a0:	418706bb          	subw	a3,a4,s8
   120a4:	0006071b          	sext.w	a4,a2
   120a8:	00c6d463          	bge	a3,a2,120b0 <_vfprintf_r+0x1392>
   120ac:	0006871b          	sext.w	a4,a3
   120b0:	02e05663          	blez	a4,120dc <_vfprintf_r+0x13be>
   120b4:	11812683          	lw	a3,280(sp)
   120b8:	97ba                	add	a5,a5,a4
   120ba:	01833023          	sd	s8,0(t1)
   120be:	0016861b          	addiw	a2,a3,1
   120c2:	00e33423          	sd	a4,8(t1)
   120c6:	f23e                	sd	a5,288(sp)
   120c8:	10c12c23          	sw	a2,280(sp)
   120cc:	0acbcb63          	blt	s7,a2,12182 <_vfprintf_r+0x1464>
   120d0:	7686                	ld	a3,96(sp)
   120d2:	0341                	addi	t1,t1,16
   120d4:	0006c583          	lbu	a1,0(a3)
   120d8:	0005861b          	sext.w	a2,a1
   120dc:	fff74693          	not	a3,a4
   120e0:	96fd                	srai	a3,a3,0x3f
   120e2:	8f75                	and	a4,a4,a3
   120e4:	40e6073b          	subw	a4,a2,a4
   120e8:	00e04c63          	bgtz	a4,12100 <_vfprintf_r+0x13e2>
   120ec:	9c2e                	add	s8,s8,a1
   120ee:	6766                	ld	a4,88(sp)
   120f0:	fb25                	bnez	a4,12060 <_vfprintf_r+0x1342>
   120f2:	6726                	ld	a4,72(sp)
   120f4:	2c070f63          	beqz	a4,123d2 <_vfprintf_r+0x16b4>
   120f8:	6726                	ld	a4,72(sp)
   120fa:	377d                	addiw	a4,a4,-1
   120fc:	e4ba                	sd	a4,72(sp)
   120fe:	bf8d                	j	12070 <_vfprintf_r+0x1352>
   12100:	11812683          	lw	a3,280(sp)
   12104:	00edc663          	blt	s11,a4,12110 <_vfprintf_r+0x13f2>
   12108:	a081                	j	12148 <_vfprintf_r+0x142a>
   1210a:	3741                	addiw	a4,a4,-16
   1210c:	02edde63          	bge	s11,a4,12148 <_vfprintf_r+0x142a>
   12110:	2685                	addiw	a3,a3,1
   12112:	07c1                	addi	a5,a5,16
   12114:	01a33023          	sd	s10,0(t1)
   12118:	01b33423          	sd	s11,8(t1)
   1211c:	f23e                	sd	a5,288(sp)
   1211e:	10d12c23          	sw	a3,280(sp)
   12122:	0341                	addi	t1,t1,16
   12124:	fedbd3e3          	bge	s7,a3,1210a <_vfprintf_r+0x13ec>
   12128:	0a10                	addi	a2,sp,272
   1212a:	85ca                	mv	a1,s2
   1212c:	8552                	mv	a0,s4
   1212e:	f83a                	sd	a4,48(sp)
   12130:	442060ef          	jal	ra,18572 <__sprint_r>
   12134:	fa051e63          	bnez	a0,118f0 <_vfprintf_r+0xbd2>
   12138:	7742                	ld	a4,48(sp)
   1213a:	7792                	ld	a5,288(sp)
   1213c:	11812683          	lw	a3,280(sp)
   12140:	3741                	addiw	a4,a4,-16
   12142:	835a                	mv	t1,s6
   12144:	fcedc6e3          	blt	s11,a4,12110 <_vfprintf_r+0x13f2>
   12148:	2685                	addiw	a3,a3,1
   1214a:	97ba                	add	a5,a5,a4
   1214c:	00e33423          	sd	a4,8(t1)
   12150:	01a33023          	sd	s10,0(t1)
   12154:	f23e                	sd	a5,288(sp)
   12156:	0006871b          	sext.w	a4,a3
   1215a:	10d12c23          	sw	a3,280(sp)
   1215e:	2eebce63          	blt	s7,a4,1245a <_vfprintf_r+0x173c>
   12162:	7706                	ld	a4,96(sp)
   12164:	0341                	addi	t1,t1,16
   12166:	00074583          	lbu	a1,0(a4)
   1216a:	9c2e                	add	s8,s8,a1
   1216c:	b749                	j	120ee <_vfprintf_r+0x13d0>
   1216e:	0a10                	addi	a2,sp,272
   12170:	85ca                	mv	a1,s2
   12172:	8552                	mv	a0,s4
   12174:	3fe060ef          	jal	ra,18572 <__sprint_r>
   12178:	f6051c63          	bnez	a0,118f0 <_vfprintf_r+0xbd2>
   1217c:	7792                	ld	a5,288(sp)
   1217e:	835a                	mv	t1,s6
   12180:	bf11                	j	12094 <_vfprintf_r+0x1376>
   12182:	0a10                	addi	a2,sp,272
   12184:	85ca                	mv	a1,s2
   12186:	8552                	mv	a0,s4
   12188:	f83a                	sd	a4,48(sp)
   1218a:	3e8060ef          	jal	ra,18572 <__sprint_r>
   1218e:	f6051163          	bnez	a0,118f0 <_vfprintf_r+0xbd2>
   12192:	7786                	ld	a5,96(sp)
   12194:	7742                	ld	a4,48(sp)
   12196:	835a                	mv	t1,s6
   12198:	0007c583          	lbu	a1,0(a5)
   1219c:	7792                	ld	a5,288(sp)
   1219e:	0005861b          	sext.w	a2,a1
   121a2:	bf2d                	j	120dc <_vfprintf_r+0x13be>
   121a4:	2605                	addiw	a2,a2,1
   121a6:	01070313          	addi	t1,a4,16
   121aa:	8bba                	mv	s7,a4
   121ac:	a34ff06f          	j	113e0 <_vfprintf_r+0x6c2>
   121b0:	0a10                	addi	a2,sp,272
   121b2:	85ca                	mv	a1,s2
   121b4:	8552                	mv	a0,s4
   121b6:	3bc060ef          	jal	ra,18572 <__sprint_r>
   121ba:	f2051b63          	bnez	a0,118f0 <_vfprintf_r+0xbd2>
   121be:	562e                	lw	a2,232(sp)
   121c0:	7792                	ld	a5,288(sp)
   121c2:	835a                	mv	t1,s6
   121c4:	b1d9                	j	11e8a <_vfprintf_r+0x116c>
   121c6:	6875                	lui	a6,0x1d
   121c8:	86880c93          	addi	s9,a6,-1944 # 1c868 <__clzdi2+0x60>
   121cc:	bb91                	j	11f20 <_vfprintf_r+0x1202>
   121ce:	0a10                	addi	a2,sp,272
   121d0:	85ca                	mv	a1,s2
   121d2:	8552                	mv	a0,s4
   121d4:	39e060ef          	jal	ra,18572 <__sprint_r>
   121d8:	f0051c63          	bnez	a0,118f0 <_vfprintf_r+0xbd2>
   121dc:	7792                	ld	a5,288(sp)
   121de:	835a                	mv	t1,s6
   121e0:	b05d                	j	11a86 <_vfprintf_r+0xd68>
   121e2:	4b99                	li	s7,6
   121e4:	b6c5                	j	11dc4 <_vfprintf_r+0x10a6>
   121e6:	7682                	ld	a3,32(sp)
   121e8:	00dc8833          	add	a6,s9,a3
   121ec:	40e68bbb          	subw	s7,a3,a4
   121f0:	41880f3b          	subw	t5,a6,s8
   121f4:	000b869b          	sext.w	a3,s7
   121f8:	92df53e3          	bge	t5,a3,11b1e <_vfprintf_r+0xe00>
   121fc:	000f0b9b          	sext.w	s7,t5
   12200:	ba39                	j	11b1e <_vfprintf_r+0xe00>
   12202:	67a2                	ld	a5,8(sp)
   12204:	8ca2                	mv	s9,s0
   12206:	00f71023          	sh	a5,0(a4)
   1220a:	dbbfe06f          	j	10fc4 <_vfprintf_r+0x2a6>
   1220e:	1982                	slli	s3,s3,0x20
   12210:	0209d993          	srli	s3,s3,0x20
   12214:	e83a                	sd	a4,16(sp)
   12216:	4785                	li	a5,1
   12218:	ec7fe06f          	j	110de <_vfprintf_r+0x3c0>
   1221c:	1982                	slli	s3,s3,0x20
   1221e:	0209d993          	srli	s3,s3,0x20
   12222:	eb1fe06f          	j	110d2 <_vfprintf_r+0x3b4>
   12226:	67c2                	ld	a5,16(sp)
   12228:	0007a983          	lw	s3,0(a5)
   1222c:	87ce                	mv	a5,s3
   1222e:	e47fe06f          	j	11074 <_vfprintf_r+0x356>
   12232:	1982                	slli	s3,s3,0x20
   12234:	0209d993          	srli	s3,s3,0x20
   12238:	be21                	j	11d50 <_vfprintf_r+0x1032>
   1223a:	02d00793          	li	a5,45
   1223e:	0cf10fa3          	sb	a5,223(sp)
   12242:	b3e9                	j	1200c <_vfprintf_r+0x12ee>
   12244:	0a10                	addi	a2,sp,272
   12246:	85ca                	mv	a1,s2
   12248:	8552                	mv	a0,s4
   1224a:	328060ef          	jal	ra,18572 <__sprint_r>
   1224e:	d87fe06f          	j	10fd4 <_vfprintf_r+0x2b6>
   12252:	0a10                	addi	a2,sp,272
   12254:	85ca                	mv	a1,s2
   12256:	8552                	mv	a0,s4
   12258:	31a060ef          	jal	ra,18572 <__sprint_r>
   1225c:	e8051a63          	bnez	a0,118f0 <_vfprintf_r+0xbd2>
   12260:	562e                	lw	a2,232(sp)
   12262:	7792                	ld	a5,288(sp)
   12264:	11812683          	lw	a3,280(sp)
   12268:	835a                	mv	t1,s6
   1226a:	b9e5                	j	11f62 <_vfprintf_r+0x1244>
   1226c:	03000793          	li	a5,48
   12270:	0ef10023          	sb	a5,224(sp)
   12274:	05800713          	li	a4,88
   12278:	0024e793          	ori	a5,s1,2
   1227c:	2781                	sext.w	a5,a5
   1227e:	0ee100a3          	sb	a4,225(sp)
   12282:	fd3e                	sd	a5,184(sp)
   12284:	06300713          	li	a4,99
   12288:	ec02                	sd	zero,24(sp)
   1228a:	12810c93          	addi	s9,sp,296
   1228e:	3d874463          	blt	a4,s8,12656 <_vfprintf_r+0x1938>
   12292:	69b2                	ld	s3,264(sp)
   12294:	fdfd7793          	andi	a5,s10,-33
   12298:	1024e493          	ori	s1,s1,258
   1229c:	ecbe                	sd	a5,88(sp)
   1229e:	e582                	sd	zero,200(sp)
   122a0:	6b92                	ld	s7,256(sp)
   122a2:	2481                	sext.w	s1,s1
   122a4:	1a09c363          	bltz	s3,1244a <_vfprintf_r+0x172c>
   122a8:	06100793          	li	a5,97
   122ac:	50fd0563          	beq	s10,a5,127b6 <_vfprintf_r+0x1a98>
   122b0:	04100793          	li	a5,65
   122b4:	00fd0463          	beq	s10,a5,122bc <_vfprintf_r+0x159e>
   122b8:	efdfe06f          	j	111b4 <_vfprintf_r+0x496>
   122bc:	85ce                	mv	a1,s3
   122be:	855e                	mv	a0,s7
   122c0:	fc1a                	sd	t1,56(sp)
   122c2:	31a0a0ef          	jal	ra,1c5dc <__trunctfdf2>
   122c6:	11a8                	addi	a0,sp,232
   122c8:	266040ef          	jal	ra,1652e <frexp>
   122cc:	24e0a0ef          	jal	ra,1c51a <__extenddftf2>
   122d0:	66ea                	ld	a3,152(sp)
   122d2:	4601                	li	a2,0
   122d4:	326090ef          	jal	ra,1b5fa <__multf3>
   122d8:	4601                	li	a2,0
   122da:	4681                	li	a3,0
   122dc:	f82a                	sd	a0,48(sp)
   122de:	f02e                	sd	a1,32(sp)
   122e0:	13a090ef          	jal	ra,1b41a <__eqtf2>
   122e4:	7282                	ld	t0,32(sp)
   122e6:	7742                	ld	a4,48(sp)
   122e8:	7362                	ld	t1,56(sp)
   122ea:	e119                	bnez	a0,122f0 <_vfprintf_r+0x15d2>
   122ec:	4785                	li	a5,1
   122ee:	d5be                	sw	a5,232(sp)
   122f0:	6bf5                	lui	s7,0x1d
   122f2:	888b8793          	addi	a5,s7,-1912 # 1c888 <__clzdi2+0x80>
   122f6:	e4be                	sd	a5,72(sp)
   122f8:	020c1793          	slli	a5,s8,0x20
   122fc:	9381                	srli	a5,a5,0x20
   122fe:	0785                	addi	a5,a5,1
   12300:	97e6                	add	a5,a5,s9
   12302:	f53e                	sd	a5,168(sp)
   12304:	018c87bb          	addw	a5,s9,s8
   12308:	8de6                	mv	s11,s9
   1230a:	c3be                	sw	a5,196(sp)
   1230c:	a819                	j	12322 <_vfprintf_r+0x1604>
   1230e:	4601                	li	a2,0
   12310:	4681                	li	a3,0
   12312:	e0aa                	sd	a0,64(sp)
   12314:	106090ef          	jal	ra,1b41a <__eqtf2>
   12318:	6f06                	ld	t5,64(sp)
   1231a:	7342                	ld	t1,48(sp)
   1231c:	82de                	mv	t0,s7
   1231e:	877a                	mv	a4,t5
   12320:	cd39                	beqz	a0,1237e <_vfprintf_r+0x1660>
   12322:	66ca                	ld	a3,144(sp)
   12324:	4601                	li	a2,0
   12326:	853a                	mv	a0,a4
   12328:	8596                	mv	a1,t0
   1232a:	f81a                	sd	t1,48(sp)
   1232c:	2ce090ef          	jal	ra,1b5fa <__multf3>
   12330:	8bae                	mv	s7,a1
   12332:	f02a                	sd	a0,32(sp)
   12334:	0f60a0ef          	jal	ra,1c42a <__fixtfsi>
   12338:	0005099b          	sext.w	s3,a0
   1233c:	854e                	mv	a0,s3
   1233e:	1840a0ef          	jal	ra,1c4c2 <__floatsitf>
   12342:	7702                	ld	a4,32(sp)
   12344:	862a                	mv	a2,a0
   12346:	86ae                	mv	a3,a1
   12348:	853a                	mv	a0,a4
   1234a:	85de                	mv	a1,s7
   1234c:	0af090ef          	jal	ra,1bbfa <__subtf3>
   12350:	67a6                	ld	a5,72(sp)
   12352:	f96e                	sd	s11,176(sp)
   12354:	0d85                	addi	s11,s11,1
   12356:	01378733          	add	a4,a5,s3
   1235a:	479e                	lw	a5,196(sp)
   1235c:	00074703          	lbu	a4,0(a4)
   12360:	fc2a                	sd	a0,56(sp)
   12362:	41b787bb          	subw	a5,a5,s11
   12366:	e8be                	sd	a5,80(sp)
   12368:	77aa                	ld	a5,168(sp)
   1236a:	feed8fa3          	sb	a4,-1(s11)
   1236e:	f02e                	sd	a1,32(sp)
   12370:	7342                	ld	t1,48(sp)
   12372:	8f2a                	mv	t5,a0
   12374:	8bae                	mv	s7,a1
   12376:	f9b79ce3          	bne	a5,s11,1230e <_vfprintf_r+0x15f0>
   1237a:	57fd                	li	a5,-1
   1237c:	e8be                	sd	a5,80(sp)
   1237e:	768a                	ld	a3,160(sp)
   12380:	4601                	li	a2,0
   12382:	857a                	mv	a0,t5
   12384:	85de                	mv	a1,s7
   12386:	f01a                	sd	t1,32(sp)
   12388:	f87a                	sd	t5,48(sp)
   1238a:	124090ef          	jal	ra,1b4ae <__getf2>
   1238e:	7302                	ld	t1,32(sp)
   12390:	2ca04f63          	bgtz	a0,1266e <_vfprintf_r+0x1950>
   12394:	7f42                	ld	t5,48(sp)
   12396:	768a                	ld	a3,160(sp)
   12398:	4601                	li	a2,0
   1239a:	857a                	mv	a0,t5
   1239c:	85de                	mv	a1,s7
   1239e:	07c090ef          	jal	ra,1b41a <__eqtf2>
   123a2:	7302                	ld	t1,32(sp)
   123a4:	e509                	bnez	a0,123ae <_vfprintf_r+0x1690>
   123a6:	0019f993          	andi	s3,s3,1
   123aa:	2c099263          	bnez	s3,1266e <_vfprintf_r+0x1950>
   123ae:	67c6                	ld	a5,80(sp)
   123b0:	03000693          	li	a3,48
   123b4:	0017871b          	addiw	a4,a5,1
   123b8:	976e                	add	a4,a4,s11
   123ba:	0007c763          	bltz	a5,123c8 <_vfprintf_r+0x16aa>
   123be:	0d85                	addi	s11,s11,1
   123c0:	fedd8fa3          	sb	a3,-1(s11)
   123c4:	ffb71de3          	bne	a4,s11,123be <_vfprintf_r+0x16a0>
   123c8:	419d87bb          	subw	a5,s11,s9
   123cc:	f03e                	sd	a5,32(sp)
   123ce:	e3ffe06f          	j	1120c <_vfprintf_r+0x4ee>
   123d2:	7702                	ld	a4,32(sp)
   123d4:	9766                	add	a4,a4,s9
   123d6:	ed877963          	bgeu	a4,s8,11aa8 <_vfprintf_r+0xd8a>
   123da:	8c3a                	mv	s8,a4
   123dc:	eccff06f          	j	11aa8 <_vfprintf_r+0xd8a>
   123e0:	6746                	ld	a4,80(sp)
   123e2:	57f5                	li	a5,-3
   123e4:	00f74463          	blt	a4,a5,123ec <_vfprintf_r+0x16ce>
   123e8:	00ec5863          	bge	s8,a4,123f8 <_vfprintf_r+0x16da>
   123ec:	3d79                	addiw	s10,s10,-2
   123ee:	fdfd7793          	andi	a5,s10,-33
   123f2:	ecbe                	sd	a5,88(sp)
   123f4:	e39fe06f          	j	1122c <_vfprintf_r+0x50e>
   123f8:	6746                	ld	a4,80(sp)
   123fa:	7782                	ld	a5,32(sp)
   123fc:	14f74663          	blt	a4,a5,12548 <_vfprintf_r+0x182a>
   12400:	77ea                	ld	a5,184(sp)
   12402:	8bba                	mv	s7,a4
   12404:	8b85                	andi	a5,a5,1
   12406:	c781                	beqz	a5,1240e <_vfprintf_r+0x16f0>
   12408:	77a6                	ld	a5,104(sp)
   1240a:	00e78bbb          	addw	s7,a5,a4
   1240e:	77ea                	ld	a5,184(sp)
   12410:	4007f793          	andi	a5,a5,1024
   12414:	c781                	beqz	a5,1241c <_vfprintf_r+0x16fe>
   12416:	67c6                	ld	a5,80(sp)
   12418:	32f04363          	bgtz	a5,1273e <_vfprintf_r+0x1a20>
   1241c:	fffbc993          	not	s3,s7
   12420:	43f9d993          	srai	s3,s3,0x3f
   12424:	013bf9b3          	and	s3,s7,s3
   12428:	2981                	sext.w	s3,s3
   1242a:	06700d13          	li	s10,103
   1242e:	e482                	sd	zero,72(sp)
   12430:	ec82                	sd	zero,88(sp)
   12432:	eddfe06f          	j	1130e <_vfprintf_r+0x5f0>
   12436:	0df14783          	lbu	a5,223(sp)
   1243a:	4c01                	li	s8,0
   1243c:	c399                	beqz	a5,12442 <_vfprintf_r+0x1724>
   1243e:	c79fe06f          	j	110b6 <_vfprintf_r+0x398>
   12442:	aa3fe06f          	j	10ee4 <_vfprintf_r+0x1c6>
   12446:	ec02                	sd	zero,24(sp)
   12448:	84be                	mv	s1,a5
   1244a:	57fd                	li	a5,-1
   1244c:	17fe                	slli	a5,a5,0x3f
   1244e:	00f9c9b3          	xor	s3,s3,a5
   12452:	02d00793          	li	a5,45
   12456:	e5be                	sd	a5,200(sp)
   12458:	bd81                	j	122a8 <_vfprintf_r+0x158a>
   1245a:	0a10                	addi	a2,sp,272
   1245c:	85ca                	mv	a1,s2
   1245e:	8552                	mv	a0,s4
   12460:	112060ef          	jal	ra,18572 <__sprint_r>
   12464:	c8051663          	bnez	a0,118f0 <_vfprintf_r+0xbd2>
   12468:	7786                	ld	a5,96(sp)
   1246a:	835a                	mv	t1,s6
   1246c:	0007c583          	lbu	a1,0(a5)
   12470:	7792                	ld	a5,288(sp)
   12472:	9c2e                	add	s8,s8,a1
   12474:	b9ad                	j	120ee <_vfprintf_r+0x13d0>
   12476:	11bc                	addi	a5,sp,232
   12478:	8762                	mv	a4,s8
   1247a:	0f810893          	addi	a7,sp,248
   1247e:	0ec10813          	addi	a6,sp,236
   12482:	468d                	li	a3,3
   12484:	85de                	mv	a1,s7
   12486:	864e                	mv	a2,s3
   12488:	8552                	mv	a0,s4
   1248a:	f01a                	sd	t1,32(sp)
   1248c:	1c8020ef          	jal	ra,14654 <_ldtoa_r>
   12490:	00054703          	lbu	a4,0(a0)
   12494:	03000793          	li	a5,48
   12498:	7302                	ld	t1,32(sp)
   1249a:	8caa                	mv	s9,a0
   1249c:	04f70463          	beq	a4,a5,124e4 <_vfprintf_r+0x17c6>
   124a0:	57ae                	lw	a5,232(sp)
   124a2:	97e2                	add	a5,a5,s8
   124a4:	97e6                	add	a5,a5,s9
   124a6:	4601                	li	a2,0
   124a8:	4681                	li	a3,0
   124aa:	855e                	mv	a0,s7
   124ac:	85ce                	mv	a1,s3
   124ae:	f83e                	sd	a5,48(sp)
   124b0:	f01a                	sd	t1,32(sp)
   124b2:	769080ef          	jal	ra,1b41a <__eqtf2>
   124b6:	77c2                	ld	a5,48(sp)
   124b8:	7302                	ld	t1,32(sp)
   124ba:	863e                	mv	a2,a5
   124bc:	e119                	bnez	a0,124c2 <_vfprintf_r+0x17a4>
   124be:	d49fe06f          	j	11206 <_vfprintf_r+0x4e8>
   124c2:	766e                	ld	a2,248(sp)
   124c4:	00f66463          	bltu	a2,a5,124cc <_vfprintf_r+0x17ae>
   124c8:	d3ffe06f          	j	11206 <_vfprintf_r+0x4e8>
   124cc:	03000693          	li	a3,48
   124d0:	00160713          	addi	a4,a2,1
   124d4:	fdba                	sd	a4,248(sp)
   124d6:	00d60023          	sb	a3,0(a2)
   124da:	766e                	ld	a2,248(sp)
   124dc:	fef66ae3          	bltu	a2,a5,124d0 <_vfprintf_r+0x17b2>
   124e0:	d27fe06f          	j	11206 <_vfprintf_r+0x4e8>
   124e4:	4601                	li	a2,0
   124e6:	4681                	li	a3,0
   124e8:	855e                	mv	a0,s7
   124ea:	85ce                	mv	a1,s3
   124ec:	f01a                	sd	t1,32(sp)
   124ee:	72d080ef          	jal	ra,1b41a <__eqtf2>
   124f2:	7302                	ld	t1,32(sp)
   124f4:	d555                	beqz	a0,124a0 <_vfprintf_r+0x1782>
   124f6:	4705                	li	a4,1
   124f8:	418707bb          	subw	a5,a4,s8
   124fc:	d5be                	sw	a5,232(sp)
   124fe:	b755                	j	124a2 <_vfprintf_r+0x1784>
   12500:	02d00793          	li	a5,45
   12504:	0cf10fa3          	sb	a5,223(sp)
   12508:	b429                	j	11f12 <_vfprintf_r+0x11f4>
   1250a:	0a10                	addi	a2,sp,272
   1250c:	85ca                	mv	a1,s2
   1250e:	8552                	mv	a0,s4
   12510:	062060ef          	jal	ra,18572 <__sprint_r>
   12514:	bc051e63          	bnez	a0,118f0 <_vfprintf_r+0xbd2>
   12518:	572e                	lw	a4,232(sp)
   1251a:	7792                	ld	a5,288(sp)
   1251c:	835a                	mv	t1,s6
   1251e:	dc0ff06f          	j	11ade <_vfprintf_r+0xdc0>
   12522:	0df14783          	lbu	a5,223(sp)
   12526:	e86e                	sd	s11,16(sp)
   12528:	e482                	sd	zero,72(sp)
   1252a:	ec82                	sd	zero,88(sp)
   1252c:	e882                	sd	zero,80(sp)
   1252e:	89e2                	mv	s3,s8
   12530:	8be2                	mv	s7,s8
   12532:	4c01                	li	s8,0
   12534:	c399                	beqz	a5,1253a <_vfprintf_r+0x181c>
   12536:	b81fe06f          	j	110b6 <_vfprintf_r+0x398>
   1253a:	9abfe06f          	j	10ee4 <_vfprintf_r+0x1c6>
   1253e:	66f5                	lui	a3,0x1d
   12540:	a3868693          	addi	a3,a3,-1480 # 1ca38 <blanks.1>
   12544:	c3eff06f          	j	11982 <_vfprintf_r+0xc64>
   12548:	7702                	ld	a4,32(sp)
   1254a:	77a6                	ld	a5,104(sp)
   1254c:	06700d13          	li	s10,103
   12550:	00e78bbb          	addw	s7,a5,a4
   12554:	6746                	ld	a4,80(sp)
   12556:	28e05f63          	blez	a4,127f4 <_vfprintf_r+0x1ad6>
   1255a:	77ea                	ld	a5,184(sp)
   1255c:	4007f793          	andi	a5,a5,1024
   12560:	1e079163          	bnez	a5,12742 <_vfprintf_r+0x1a24>
   12564:	fffbc993          	not	s3,s7
   12568:	43f9d993          	srai	s3,s3,0x3f
   1256c:	013bf9b3          	and	s3,s7,s3
   12570:	2981                	sext.w	s3,s3
   12572:	bd75                	j	1242e <_vfprintf_r+0x1710>
   12574:	77ea                	ld	a5,184(sp)
   12576:	6746                	ld	a4,80(sp)
   12578:	8b85                	andi	a5,a5,1
   1257a:	00fc67b3          	or	a5,s8,a5
   1257e:	2ae05663          	blez	a4,1282a <_vfprintf_r+0x1b0c>
   12582:	18079163          	bnez	a5,12704 <_vfprintf_r+0x19e6>
   12586:	6bc6                	ld	s7,80(sp)
   12588:	06600d13          	li	s10,102
   1258c:	b7f9                	j	1255a <_vfprintf_r+0x183c>
   1258e:	0a10                	addi	a2,sp,272
   12590:	85ca                	mv	a1,s2
   12592:	8552                	mv	a0,s4
   12594:	7df050ef          	jal	ra,18572 <__sprint_r>
   12598:	b4051c63          	bnez	a0,118f0 <_vfprintf_r+0xbd2>
   1259c:	56ae                	lw	a3,232(sp)
   1259e:	7702                	ld	a4,32(sp)
   125a0:	7792                	ld	a5,288(sp)
   125a2:	835a                	mv	t1,s6
   125a4:	40d706bb          	subw	a3,a4,a3
   125a8:	d76ff06f          	j	11b1e <_vfprintf_r+0xe00>
   125ac:	6875                	lui	a6,0x1d
   125ae:	87880c93          	addi	s9,a6,-1928 # 1c878 <__clzdi2+0x70>
   125b2:	b2bd                	j	11f20 <_vfprintf_r+0x1202>
   125b4:	68f5                	lui	a7,0x1d
   125b6:	5741                	li	a4,-16
   125b8:	40c00c3b          	negw	s8,a2
   125bc:	a4888d93          	addi	s11,a7,-1464 # 1ca48 <zeroes.0>
   125c0:	4bc1                	li	s7,16
   125c2:	4d1d                	li	s10,7
   125c4:	00e64663          	blt	a2,a4,125d0 <_vfprintf_r+0x18b2>
   125c8:	a0a9                	j	12612 <_vfprintf_r+0x18f4>
   125ca:	3c41                	addiw	s8,s8,-16
   125cc:	058bd363          	bge	s7,s8,12612 <_vfprintf_r+0x18f4>
   125d0:	2685                	addiw	a3,a3,1
   125d2:	07c1                	addi	a5,a5,16
   125d4:	01b33023          	sd	s11,0(t1)
   125d8:	01733423          	sd	s7,8(t1)
   125dc:	f23e                	sd	a5,288(sp)
   125de:	10d12c23          	sw	a3,280(sp)
   125e2:	0341                	addi	t1,t1,16
   125e4:	fedd53e3          	bge	s10,a3,125ca <_vfprintf_r+0x18ac>
   125e8:	0a10                	addi	a2,sp,272
   125ea:	85ca                	mv	a1,s2
   125ec:	8552                	mv	a0,s4
   125ee:	785050ef          	jal	ra,18572 <__sprint_r>
   125f2:	ae051f63          	bnez	a0,118f0 <_vfprintf_r+0xbd2>
   125f6:	7792                	ld	a5,288(sp)
   125f8:	11812683          	lw	a3,280(sp)
   125fc:	835a                	mv	t1,s6
   125fe:	b7f1                	j	125ca <_vfprintf_r+0x18ac>
   12600:	57fd                	li	a5,-1
   12602:	e43e                	sd	a5,8(sp)
   12604:	9dffe06f          	j	10fe2 <_vfprintf_r+0x2c4>
   12608:	66f5                	lui	a3,0x1d
   1260a:	a3868693          	addi	a3,a3,-1480 # 1ca38 <blanks.1>
   1260e:	c12ff06f          	j	11a20 <_vfprintf_r+0xd02>
   12612:	2685                	addiw	a3,a3,1
   12614:	97e2                	add	a5,a5,s8
   12616:	01b33023          	sd	s11,0(t1)
   1261a:	01833423          	sd	s8,8(t1)
   1261e:	f23e                	sd	a5,288(sp)
   12620:	10d12c23          	sw	a3,280(sp)
   12624:	471d                	li	a4,7
   12626:	88d75be3          	bge	a4,a3,11ebc <_vfprintf_r+0x119e>
   1262a:	0a10                	addi	a2,sp,272
   1262c:	85ca                	mv	a1,s2
   1262e:	8552                	mv	a0,s4
   12630:	743050ef          	jal	ra,18572 <__sprint_r>
   12634:	aa051e63          	bnez	a0,118f0 <_vfprintf_r+0xbd2>
   12638:	7792                	ld	a5,288(sp)
   1263a:	11812683          	lw	a3,280(sp)
   1263e:	835a                	mv	t1,s6
   12640:	b21d                	j	11f66 <_vfprintf_r+0x1248>
   12642:	03000793          	li	a5,48
   12646:	0ef10023          	sb	a5,224(sp)
   1264a:	07800713          	li	a4,120
   1264e:	b12d                	j	12278 <_vfprintf_r+0x155a>
   12650:	018c87b3          	add	a5,s9,s8
   12654:	bd89                	j	124a6 <_vfprintf_r+0x1788>
   12656:	001c059b          	addiw	a1,s8,1
   1265a:	8552                	mv	a0,s4
   1265c:	ec1a                	sd	t1,24(sp)
   1265e:	f6dfd0ef          	jal	ra,105ca <_malloc_r>
   12662:	6362                	ld	t1,24(sp)
   12664:	8caa                	mv	s9,a0
   12666:	20050e63          	beqz	a0,12882 <_vfprintf_r+0x1b64>
   1266a:	ec2a                	sd	a0,24(sp)
   1266c:	b11d                	j	12292 <_vfprintf_r+0x1574>
   1266e:	77ca                	ld	a5,176(sp)
   12670:	876e                	mv	a4,s11
   12672:	fdbe                	sd	a5,248(sp)
   12674:	67a6                	ld	a5,72(sp)
   12676:	fffdc683          	lbu	a3,-1(s11)
   1267a:	00f7c603          	lbu	a2,15(a5)
   1267e:	00d61e63          	bne	a2,a3,1269a <_vfprintf_r+0x197c>
   12682:	03000593          	li	a1,48
   12686:	feb70fa3          	sb	a1,-1(a4)
   1268a:	776e                	ld	a4,248(sp)
   1268c:	fff70693          	addi	a3,a4,-1
   12690:	fdb6                	sd	a3,248(sp)
   12692:	fff74683          	lbu	a3,-1(a4)
   12696:	fed608e3          	beq	a2,a3,12686 <_vfprintf_r+0x1968>
   1269a:	0016861b          	addiw	a2,a3,1
   1269e:	03900593          	li	a1,57
   126a2:	0ff67613          	andi	a2,a2,255
   126a6:	00b68563          	beq	a3,a1,126b0 <_vfprintf_r+0x1992>
   126aa:	fec70fa3          	sb	a2,-1(a4)
   126ae:	bb29                	j	123c8 <_vfprintf_r+0x16aa>
   126b0:	67a6                	ld	a5,72(sp)
   126b2:	00a7c603          	lbu	a2,10(a5)
   126b6:	fec70fa3          	sb	a2,-1(a4)
   126ba:	b339                	j	123c8 <_vfprintf_r+0x16aa>
   126bc:	001c0d9b          	addiw	s11,s8,1
   126c0:	11bc                	addi	a5,sp,232
   126c2:	0f810893          	addi	a7,sp,248
   126c6:	0ec10813          	addi	a6,sp,236
   126ca:	876e                	mv	a4,s11
   126cc:	4689                	li	a3,2
   126ce:	85de                	mv	a1,s7
   126d0:	864e                	mv	a2,s3
   126d2:	8552                	mv	a0,s4
   126d4:	781010ef          	jal	ra,14654 <_ldtoa_r>
   126d8:	8caa                	mv	s9,a0
   126da:	7302                	ld	t1,32(sp)
   126dc:	01bc87b3          	add	a5,s9,s11
   126e0:	b3d9                	j	124a6 <_vfprintf_r+0x1788>
   126e2:	8da6                	mv	s11,s1
   126e4:	a2cff06f          	j	11910 <_vfprintf_r+0xbf2>
   126e8:	000c0463          	beqz	s8,126f0 <_vfprintf_r+0x19d2>
   126ec:	aaffe06f          	j	1119a <_vfprintf_r+0x47c>
   126f0:	4c05                	li	s8,1
   126f2:	aa9fe06f          	j	1119a <_vfprintf_r+0x47c>
   126f6:	4c19                	li	s8,6
   126f8:	aa3fe06f          	j	1119a <_vfprintf_r+0x47c>
   126fc:	c31c                	sw	a5,0(a4)
   126fe:	8ca2                	mv	s9,s0
   12700:	8c5fe06f          	j	10fc4 <_vfprintf_r+0x2a6>
   12704:	77a6                	ld	a5,104(sp)
   12706:	06600d13          	li	s10,102
   1270a:	00e78bbb          	addw	s7,a5,a4
   1270e:	018b8bbb          	addw	s7,s7,s8
   12712:	b5a1                	j	1255a <_vfprintf_r+0x183c>
   12714:	0f210713          	addi	a4,sp,242
   12718:	e699                	bnez	a3,12726 <_vfprintf_r+0x1a08>
   1271a:	03000713          	li	a4,48
   1271e:	0ee10923          	sb	a4,242(sp)
   12722:	0f310713          	addi	a4,sp,243
   12726:	0c14                	addi	a3,sp,528
   12728:	0307879b          	addiw	a5,a5,48
   1272c:	40d706b3          	sub	a3,a4,a3
   12730:	00f70023          	sb	a5,0(a4)
   12734:	1216879b          	addiw	a5,a3,289
   12738:	fcbe                	sd	a5,120(sp)
   1273a:	b9bfe06f          	j	112d4 <_vfprintf_r+0x5b6>
   1273e:	06700d13          	li	s10,103
   12742:	7786                	ld	a5,96(sp)
   12744:	0ff00713          	li	a4,255
   12748:	e482                	sd	zero,72(sp)
   1274a:	0007c783          	lbu	a5,0(a5)
   1274e:	ec82                	sd	zero,88(sp)
   12750:	02e78863          	beq	a5,a4,12780 <_vfprintf_r+0x1a62>
   12754:	0ff00693          	li	a3,255
   12758:	6646                	ld	a2,80(sp)
   1275a:	0007871b          	sext.w	a4,a5
   1275e:	02c7d163          	bge	a5,a2,12780 <_vfprintf_r+0x1a62>
   12762:	7586                	ld	a1,96(sp)
   12764:	40e6073b          	subw	a4,a2,a4
   12768:	e8ba                	sd	a4,80(sp)
   1276a:	0015c783          	lbu	a5,1(a1)
   1276e:	cf8d                	beqz	a5,127a8 <_vfprintf_r+0x1a8a>
   12770:	6766                	ld	a4,88(sp)
   12772:	2705                	addiw	a4,a4,1
   12774:	ecba                	sd	a4,88(sp)
   12776:	00158713          	addi	a4,a1,1
   1277a:	f0ba                	sd	a4,96(sp)
   1277c:	fcd79ee3          	bne	a5,a3,12758 <_vfprintf_r+0x1a3a>
   12780:	6726                	ld	a4,72(sp)
   12782:	67e6                	ld	a5,88(sp)
   12784:	9fb9                	addw	a5,a5,a4
   12786:	670a                	ld	a4,128(sp)
   12788:	02e787bb          	mulw	a5,a5,a4
   1278c:	017787bb          	addw	a5,a5,s7
   12790:	00078b9b          	sext.w	s7,a5
   12794:	fffbc993          	not	s3,s7
   12798:	43f9d993          	srai	s3,s3,0x3f
   1279c:	0137f7b3          	and	a5,a5,s3
   127a0:	0007899b          	sext.w	s3,a5
   127a4:	b6bfe06f          	j	1130e <_vfprintf_r+0x5f0>
   127a8:	6726                	ld	a4,72(sp)
   127aa:	7786                	ld	a5,96(sp)
   127ac:	2705                	addiw	a4,a4,1
   127ae:	0007c783          	lbu	a5,0(a5)
   127b2:	e4ba                	sd	a4,72(sp)
   127b4:	b7e1                	j	1277c <_vfprintf_r+0x1a5e>
   127b6:	85ce                	mv	a1,s3
   127b8:	855e                	mv	a0,s7
   127ba:	fc1a                	sd	t1,56(sp)
   127bc:	621090ef          	jal	ra,1c5dc <__trunctfdf2>
   127c0:	11a8                	addi	a0,sp,232
   127c2:	56d030ef          	jal	ra,1652e <frexp>
   127c6:	555090ef          	jal	ra,1c51a <__extenddftf2>
   127ca:	66ea                	ld	a3,152(sp)
   127cc:	4601                	li	a2,0
   127ce:	62d080ef          	jal	ra,1b5fa <__multf3>
   127d2:	4601                	li	a2,0
   127d4:	4681                	li	a3,0
   127d6:	f82a                	sd	a0,48(sp)
   127d8:	f02e                	sd	a1,32(sp)
   127da:	441080ef          	jal	ra,1b41a <__eqtf2>
   127de:	7282                	ld	t0,32(sp)
   127e0:	7742                	ld	a4,48(sp)
   127e2:	7362                	ld	t1,56(sp)
   127e4:	e119                	bnez	a0,127ea <_vfprintf_r+0x1acc>
   127e6:	4785                	li	a5,1
   127e8:	d5be                	sw	a5,232(sp)
   127ea:	6bf5                	lui	s7,0x1d
   127ec:	8a0b8793          	addi	a5,s7,-1888 # 1c8a0 <__clzdi2+0x98>
   127f0:	e4be                	sd	a5,72(sp)
   127f2:	b619                	j	122f8 <_vfprintf_r+0x15da>
   127f4:	40eb87bb          	subw	a5,s7,a4
   127f8:	2785                	addiw	a5,a5,1
   127fa:	00078b9b          	sext.w	s7,a5
   127fe:	fffbc993          	not	s3,s7
   12802:	43f9d993          	srai	s3,s3,0x3f
   12806:	0137f7b3          	and	a5,a5,s3
   1280a:	0007899b          	sext.w	s3,a5
   1280e:	b105                	j	1242e <_vfprintf_r+0x1710>
   12810:	776a                	ld	a4,184(sp)
   12812:	8b05                	andi	a4,a4,1
   12814:	e319                	bnez	a4,1281a <_vfprintf_r+0x1afc>
   12816:	ad9fe06f          	j	112ee <_vfprintf_r+0x5d0>
   1281a:	acffe06f          	j	112e8 <_vfprintf_r+0x5ca>
   1281e:	68f5                	lui	a7,0x1d
   12820:	871a                	mv	a4,t1
   12822:	a4888d93          	addi	s11,a7,-1464 # 1ca48 <zeroes.0>
   12826:	cd6ff06f          	j	11cfc <_vfprintf_r+0xfde>
   1282a:	e791                	bnez	a5,12836 <_vfprintf_r+0x1b18>
   1282c:	4985                	li	s3,1
   1282e:	06600d13          	li	s10,102
   12832:	4b85                	li	s7,1
   12834:	beed                	j	1242e <_vfprintf_r+0x1710>
   12836:	77a6                	ld	a5,104(sp)
   12838:	06600d13          	li	s10,102
   1283c:	0017869b          	addiw	a3,a5,1
   12840:	018686bb          	addw	a3,a3,s8
   12844:	00068b9b          	sext.w	s7,a3
   12848:	fffbc993          	not	s3,s7
   1284c:	43f9d993          	srai	s3,s3,0x3f
   12850:	0136f6b3          	and	a3,a3,s3
   12854:	0006899b          	sext.w	s3,a3
   12858:	bed9                	j	1242e <_vfprintf_r+0x1710>
   1285a:	66c2                	ld	a3,16(sp)
   1285c:	429c                	lw	a5,0(a3)
   1285e:	00868613          	addi	a2,a3,8
   12862:	86be                	mv	a3,a5
   12864:	0007d363          	bgez	a5,1286a <_vfprintf_r+0x1b4c>
   12868:	56fd                	li	a3,-1
   1286a:	00144e03          	lbu	t3,1(s0)
   1286e:	00068c1b          	sext.w	s8,a3
   12872:	e832                	sd	a2,16(sp)
   12874:	843a                	mv	s0,a4
   12876:	df8fe06f          	j	10e6e <_vfprintf_r+0x150>
   1287a:	8de2                	mv	s11,s8
   1287c:	01bc87b3          	add	a5,s9,s11
   12880:	b11d                	j	124a6 <_vfprintf_r+0x1788>
   12882:	01095783          	lhu	a5,16(s2)
   12886:	0407e793          	ori	a5,a5,64
   1288a:	00f91823          	sh	a5,16(s2)
   1288e:	f46fe06f          	j	10fd4 <_vfprintf_r+0x2b6>
   12892:	4789                	li	a5,2
   12894:	fcbe                	sd	a5,120(sp)
   12896:	a3ffe06f          	j	112d4 <_vfprintf_r+0x5b6>

000000000001289a <vfprintf>:
   1289a:	87aa                	mv	a5,a0
   1289c:	7501b503          	ld	a0,1872(gp) # 1f868 <_impure_ptr>
   128a0:	86b2                	mv	a3,a2
   128a2:	862e                	mv	a2,a1
   128a4:	85be                	mv	a1,a5
   128a6:	c78fe06f          	j	10d1e <_vfprintf_r>

00000000000128aa <__sbprintf>:
   128aa:	0105d783          	lhu	a5,16(a1)
   128ae:	0ac5ae03          	lw	t3,172(a1)
   128b2:	0125d303          	lhu	t1,18(a1)
   128b6:	0305b883          	ld	a7,48(a1)
   128ba:	0405b803          	ld	a6,64(a1)
   128be:	b3010113          	addi	sp,sp,-1232
   128c2:	9bf5                	andi	a5,a5,-3
   128c4:	40000713          	li	a4,1024
   128c8:	4c813023          	sd	s0,1216(sp)
   128cc:	00f11823          	sh	a5,16(sp)
   128d0:	842e                	mv	s0,a1
   128d2:	191c                	addi	a5,sp,176
   128d4:	858a                	mv	a1,sp
   128d6:	4a913c23          	sd	s1,1208(sp)
   128da:	4b213823          	sd	s2,1200(sp)
   128de:	4c113423          	sd	ra,1224(sp)
   128e2:	892a                	mv	s2,a0
   128e4:	d772                	sw	t3,172(sp)
   128e6:	00611923          	sh	t1,18(sp)
   128ea:	f846                	sd	a7,48(sp)
   128ec:	e0c2                	sd	a6,64(sp)
   128ee:	e03e                	sd	a5,0(sp)
   128f0:	ec3e                	sd	a5,24(sp)
   128f2:	c63a                	sw	a4,12(sp)
   128f4:	d03a                	sw	a4,32(sp)
   128f6:	d402                	sw	zero,40(sp)
   128f8:	c26fe0ef          	jal	ra,10d1e <_vfprintf_r>
   128fc:	84aa                	mv	s1,a0
   128fe:	02055963          	bgez	a0,12930 <__sbprintf+0x86>
   12902:	01015783          	lhu	a5,16(sp)
   12906:	0407f793          	andi	a5,a5,64
   1290a:	c799                	beqz	a5,12918 <__sbprintf+0x6e>
   1290c:	01045783          	lhu	a5,16(s0)
   12910:	0407e793          	ori	a5,a5,64
   12914:	00f41823          	sh	a5,16(s0)
   12918:	4c813083          	ld	ra,1224(sp)
   1291c:	4c013403          	ld	s0,1216(sp)
   12920:	4b013903          	ld	s2,1200(sp)
   12924:	8526                	mv	a0,s1
   12926:	4b813483          	ld	s1,1208(sp)
   1292a:	4d010113          	addi	sp,sp,1232
   1292e:	8082                	ret
   12930:	858a                	mv	a1,sp
   12932:	854a                	mv	a0,s2
   12934:	356000ef          	jal	ra,12c8a <_fflush_r>
   12938:	d569                	beqz	a0,12902 <__sbprintf+0x58>
   1293a:	54fd                	li	s1,-1
   1293c:	b7d9                	j	12902 <__sbprintf+0x58>

000000000001293e <__swsetup_r>:
   1293e:	7501b783          	ld	a5,1872(gp) # 1f868 <_impure_ptr>
   12942:	1101                	addi	sp,sp,-32
   12944:	e822                	sd	s0,16(sp)
   12946:	e426                	sd	s1,8(sp)
   12948:	ec06                	sd	ra,24(sp)
   1294a:	84aa                	mv	s1,a0
   1294c:	842e                	mv	s0,a1
   1294e:	c399                	beqz	a5,12954 <__swsetup_r+0x16>
   12950:	4bb8                	lw	a4,80(a5)
   12952:	cf21                	beqz	a4,129aa <__swsetup_r+0x6c>
   12954:	01041703          	lh	a4,16(s0)
   12958:	03071793          	slli	a5,a4,0x30
   1295c:	00877693          	andi	a3,a4,8
   12960:	93c1                	srli	a5,a5,0x30
   12962:	ceb9                	beqz	a3,129c0 <__swsetup_r+0x82>
   12964:	6c14                	ld	a3,24(s0)
   12966:	cabd                	beqz	a3,129dc <__swsetup_r+0x9e>
   12968:	0017f613          	andi	a2,a5,1
   1296c:	ce11                	beqz	a2,12988 <__swsetup_r+0x4a>
   1296e:	5010                	lw	a2,32(s0)
   12970:	00042623          	sw	zero,12(s0)
   12974:	4501                	li	a0,0
   12976:	40c0063b          	negw	a2,a2
   1297a:	d410                	sw	a2,40(s0)
   1297c:	ce91                	beqz	a3,12998 <__swsetup_r+0x5a>
   1297e:	60e2                	ld	ra,24(sp)
   12980:	6442                	ld	s0,16(sp)
   12982:	64a2                	ld	s1,8(sp)
   12984:	6105                	addi	sp,sp,32
   12986:	8082                	ret
   12988:	0027f613          	andi	a2,a5,2
   1298c:	4581                	li	a1,0
   1298e:	e211                	bnez	a2,12992 <__swsetup_r+0x54>
   12990:	500c                	lw	a1,32(s0)
   12992:	c44c                	sw	a1,12(s0)
   12994:	4501                	li	a0,0
   12996:	f6e5                	bnez	a3,1297e <__swsetup_r+0x40>
   12998:	0807f793          	andi	a5,a5,128
   1299c:	d3ed                	beqz	a5,1297e <__swsetup_r+0x40>
   1299e:	04076713          	ori	a4,a4,64
   129a2:	00e41823          	sh	a4,16(s0)
   129a6:	557d                	li	a0,-1
   129a8:	bfd9                	j	1297e <__swsetup_r+0x40>
   129aa:	853e                	mv	a0,a5
   129ac:	5ba000ef          	jal	ra,12f66 <__sinit>
   129b0:	01041703          	lh	a4,16(s0)
   129b4:	03071793          	slli	a5,a4,0x30
   129b8:	00877693          	andi	a3,a4,8
   129bc:	93c1                	srli	a5,a5,0x30
   129be:	f2dd                	bnez	a3,12964 <__swsetup_r+0x26>
   129c0:	0107f693          	andi	a3,a5,16
   129c4:	c2ad                	beqz	a3,12a26 <__swsetup_r+0xe8>
   129c6:	8b91                	andi	a5,a5,4
   129c8:	eb9d                	bnez	a5,129fe <__swsetup_r+0xc0>
   129ca:	6c14                	ld	a3,24(s0)
   129cc:	00876713          	ori	a4,a4,8
   129d0:	03071793          	slli	a5,a4,0x30
   129d4:	00e41823          	sh	a4,16(s0)
   129d8:	93c1                	srli	a5,a5,0x30
   129da:	f6d9                	bnez	a3,12968 <__swsetup_r+0x2a>
   129dc:	2807f613          	andi	a2,a5,640
   129e0:	20000593          	li	a1,512
   129e4:	f8b602e3          	beq	a2,a1,12968 <__swsetup_r+0x2a>
   129e8:	85a2                	mv	a1,s0
   129ea:	8526                	mv	a0,s1
   129ec:	335020ef          	jal	ra,15520 <__smakebuf_r>
   129f0:	01041703          	lh	a4,16(s0)
   129f4:	6c14                	ld	a3,24(s0)
   129f6:	03071793          	slli	a5,a4,0x30
   129fa:	93c1                	srli	a5,a5,0x30
   129fc:	b7b5                	j	12968 <__swsetup_r+0x2a>
   129fe:	6c2c                	ld	a1,88(s0)
   12a00:	cd81                	beqz	a1,12a18 <__swsetup_r+0xda>
   12a02:	07440793          	addi	a5,s0,116
   12a06:	00f58763          	beq	a1,a5,12a14 <__swsetup_r+0xd6>
   12a0a:	8526                	mv	a0,s1
   12a0c:	68c000ef          	jal	ra,13098 <_free_r>
   12a10:	01041703          	lh	a4,16(s0)
   12a14:	04043c23          	sd	zero,88(s0)
   12a18:	6c14                	ld	a3,24(s0)
   12a1a:	fdb77713          	andi	a4,a4,-37
   12a1e:	00042423          	sw	zero,8(s0)
   12a22:	e014                	sd	a3,0(s0)
   12a24:	b765                	j	129cc <__swsetup_r+0x8e>
   12a26:	47a5                	li	a5,9
   12a28:	c09c                	sw	a5,0(s1)
   12a2a:	04076713          	ori	a4,a4,64
   12a2e:	00e41823          	sh	a4,16(s0)
   12a32:	557d                	li	a0,-1
   12a34:	b7a9                	j	1297e <__swsetup_r+0x40>

0000000000012a36 <__call_exitprocs>:
   12a36:	715d                	addi	sp,sp,-80
   12a38:	f052                	sd	s4,32(sp)
   12a3a:	7401ba03          	ld	s4,1856(gp) # 1f858 <_global_impure_ptr>
   12a3e:	f84a                	sd	s2,48(sp)
   12a40:	e486                	sd	ra,72(sp)
   12a42:	1f8a3903          	ld	s2,504(s4)
   12a46:	e0a2                	sd	s0,64(sp)
   12a48:	fc26                	sd	s1,56(sp)
   12a4a:	f44e                	sd	s3,40(sp)
   12a4c:	ec56                	sd	s5,24(sp)
   12a4e:	e85a                	sd	s6,16(sp)
   12a50:	e45e                	sd	s7,8(sp)
   12a52:	e062                	sd	s8,0(sp)
   12a54:	02090863          	beqz	s2,12a84 <__call_exitprocs+0x4e>
   12a58:	8b2a                	mv	s6,a0
   12a5a:	8bae                	mv	s7,a1
   12a5c:	4a85                	li	s5,1
   12a5e:	59fd                	li	s3,-1
   12a60:	00892483          	lw	s1,8(s2)
   12a64:	fff4841b          	addiw	s0,s1,-1
   12a68:	00044e63          	bltz	s0,12a84 <__call_exitprocs+0x4e>
   12a6c:	048e                	slli	s1,s1,0x3
   12a6e:	94ca                	add	s1,s1,s2
   12a70:	020b8663          	beqz	s7,12a9c <__call_exitprocs+0x66>
   12a74:	2084b783          	ld	a5,520(s1)
   12a78:	03778263          	beq	a5,s7,12a9c <__call_exitprocs+0x66>
   12a7c:	347d                	addiw	s0,s0,-1
   12a7e:	14e1                	addi	s1,s1,-8
   12a80:	ff3418e3          	bne	s0,s3,12a70 <__call_exitprocs+0x3a>
   12a84:	60a6                	ld	ra,72(sp)
   12a86:	6406                	ld	s0,64(sp)
   12a88:	74e2                	ld	s1,56(sp)
   12a8a:	7942                	ld	s2,48(sp)
   12a8c:	79a2                	ld	s3,40(sp)
   12a8e:	7a02                	ld	s4,32(sp)
   12a90:	6ae2                	ld	s5,24(sp)
   12a92:	6b42                	ld	s6,16(sp)
   12a94:	6ba2                	ld	s7,8(sp)
   12a96:	6c02                	ld	s8,0(sp)
   12a98:	6161                	addi	sp,sp,80
   12a9a:	8082                	ret
   12a9c:	00892783          	lw	a5,8(s2)
   12aa0:	6498                	ld	a4,8(s1)
   12aa2:	37fd                	addiw	a5,a5,-1
   12aa4:	04878463          	beq	a5,s0,12aec <__call_exitprocs+0xb6>
   12aa8:	0004b423          	sd	zero,8(s1)
   12aac:	db61                	beqz	a4,12a7c <__call_exitprocs+0x46>
   12aae:	31092783          	lw	a5,784(s2)
   12ab2:	008a96bb          	sllw	a3,s5,s0
   12ab6:	00892c03          	lw	s8,8(s2)
   12aba:	8ff5                	and	a5,a5,a3
   12abc:	2781                	sext.w	a5,a5
   12abe:	ef89                	bnez	a5,12ad8 <__call_exitprocs+0xa2>
   12ac0:	9702                	jalr	a4
   12ac2:	00892703          	lw	a4,8(s2)
   12ac6:	1f8a3783          	ld	a5,504(s4)
   12aca:	01871463          	bne	a4,s8,12ad2 <__call_exitprocs+0x9c>
   12ace:	fb2787e3          	beq	a5,s2,12a7c <__call_exitprocs+0x46>
   12ad2:	dbcd                	beqz	a5,12a84 <__call_exitprocs+0x4e>
   12ad4:	893e                	mv	s2,a5
   12ad6:	b769                	j	12a60 <__call_exitprocs+0x2a>
   12ad8:	31492783          	lw	a5,788(s2)
   12adc:	1084b583          	ld	a1,264(s1)
   12ae0:	8ff5                	and	a5,a5,a3
   12ae2:	2781                	sext.w	a5,a5
   12ae4:	e799                	bnez	a5,12af2 <__call_exitprocs+0xbc>
   12ae6:	855a                	mv	a0,s6
   12ae8:	9702                	jalr	a4
   12aea:	bfe1                	j	12ac2 <__call_exitprocs+0x8c>
   12aec:	00892423          	sw	s0,8(s2)
   12af0:	bf75                	j	12aac <__call_exitprocs+0x76>
   12af2:	852e                	mv	a0,a1
   12af4:	9702                	jalr	a4
   12af6:	b7f1                	j	12ac2 <__call_exitprocs+0x8c>

0000000000012af8 <__sflush_r>:
   12af8:	01059783          	lh	a5,16(a1)
   12afc:	7179                	addi	sp,sp,-48
   12afe:	f022                	sd	s0,32(sp)
   12b00:	e44e                	sd	s3,8(sp)
   12b02:	f406                	sd	ra,40(sp)
   12b04:	ec26                	sd	s1,24(sp)
   12b06:	e84a                	sd	s2,16(sp)
   12b08:	0087f693          	andi	a3,a5,8
   12b0c:	842e                	mv	s0,a1
   12b0e:	89aa                	mv	s3,a0
   12b10:	ead5                	bnez	a3,12bc4 <__sflush_r+0xcc>
   12b12:	6705                	lui	a4,0x1
   12b14:	80070713          	addi	a4,a4,-2048 # 800 <register_fini-0xf8e8>
   12b18:	4594                	lw	a3,8(a1)
   12b1a:	8fd9                	or	a5,a5,a4
   12b1c:	00f59823          	sh	a5,16(a1)
   12b20:	10d05063          	blez	a3,12c20 <__sflush_r+0x128>
   12b24:	6438                	ld	a4,72(s0)
   12b26:	c759                	beqz	a4,12bb4 <__sflush_r+0xbc>
   12b28:	17c2                	slli	a5,a5,0x30
   12b2a:	93c1                	srli	a5,a5,0x30
   12b2c:	6685                	lui	a3,0x1
   12b2e:	0009a483          	lw	s1,0(s3)
   12b32:	8efd                	and	a3,a3,a5
   12b34:	0009a023          	sw	zero,0(s3)
   12b38:	780c                	ld	a1,48(s0)
   12b3a:	e6fd                	bnez	a3,12c28 <__sflush_r+0x130>
   12b3c:	4601                	li	a2,0
   12b3e:	4685                	li	a3,1
   12b40:	854e                	mv	a0,s3
   12b42:	9702                	jalr	a4
   12b44:	57fd                	li	a5,-1
   12b46:	862a                	mv	a2,a0
   12b48:	10f50763          	beq	a0,a5,12c56 <__sflush_r+0x15e>
   12b4c:	01045783          	lhu	a5,16(s0)
   12b50:	6438                	ld	a4,72(s0)
   12b52:	780c                	ld	a1,48(s0)
   12b54:	8b91                	andi	a5,a5,4
   12b56:	c799                	beqz	a5,12b64 <__sflush_r+0x6c>
   12b58:	4414                	lw	a3,8(s0)
   12b5a:	6c3c                	ld	a5,88(s0)
   12b5c:	8e15                	sub	a2,a2,a3
   12b5e:	c399                	beqz	a5,12b64 <__sflush_r+0x6c>
   12b60:	583c                	lw	a5,112(s0)
   12b62:	8e1d                	sub	a2,a2,a5
   12b64:	4681                	li	a3,0
   12b66:	854e                	mv	a0,s3
   12b68:	9702                	jalr	a4
   12b6a:	57fd                	li	a5,-1
   12b6c:	0cf51063          	bne	a0,a5,12c2c <__sflush_r+0x134>
   12b70:	0009a703          	lw	a4,0(s3)
   12b74:	01041783          	lh	a5,16(s0)
   12b78:	cf6d                	beqz	a4,12c72 <__sflush_r+0x17a>
   12b7a:	46f5                	li	a3,29
   12b7c:	00d70563          	beq	a4,a3,12b86 <__sflush_r+0x8e>
   12b80:	46d9                	li	a3,22
   12b82:	0ed71e63          	bne	a4,a3,12c7e <__sflush_r+0x186>
   12b86:	6c14                	ld	a3,24(s0)
   12b88:	777d                	lui	a4,0xfffff
   12b8a:	7ff70713          	addi	a4,a4,2047 # fffffffffffff7ff <__BSS_END__+0xfffffffffffdfee7>
   12b8e:	8ff9                	and	a5,a5,a4
   12b90:	00f41823          	sh	a5,16(s0)
   12b94:	00042423          	sw	zero,8(s0)
   12b98:	e014                	sd	a3,0(s0)
   12b9a:	6c2c                	ld	a1,88(s0)
   12b9c:	0099a023          	sw	s1,0(s3)
   12ba0:	c991                	beqz	a1,12bb4 <__sflush_r+0xbc>
   12ba2:	07440793          	addi	a5,s0,116
   12ba6:	00f58563          	beq	a1,a5,12bb0 <__sflush_r+0xb8>
   12baa:	854e                	mv	a0,s3
   12bac:	4ec000ef          	jal	ra,13098 <_free_r>
   12bb0:	04043c23          	sd	zero,88(s0)
   12bb4:	4501                	li	a0,0
   12bb6:	70a2                	ld	ra,40(sp)
   12bb8:	7402                	ld	s0,32(sp)
   12bba:	64e2                	ld	s1,24(sp)
   12bbc:	6942                	ld	s2,16(sp)
   12bbe:	69a2                	ld	s3,8(sp)
   12bc0:	6145                	addi	sp,sp,48
   12bc2:	8082                	ret
   12bc4:	0185b903          	ld	s2,24(a1)
   12bc8:	fe0906e3          	beqz	s2,12bb4 <__sflush_r+0xbc>
   12bcc:	6184                	ld	s1,0(a1)
   12bce:	03079713          	slli	a4,a5,0x30
   12bd2:	9341                	srli	a4,a4,0x30
   12bd4:	8b0d                	andi	a4,a4,3
   12bd6:	0125b023          	sd	s2,0(a1)
   12bda:	412484bb          	subw	s1,s1,s2
   12bde:	4781                	li	a5,0
   12be0:	e311                	bnez	a4,12be4 <__sflush_r+0xec>
   12be2:	519c                	lw	a5,32(a1)
   12be4:	c45c                	sw	a5,12(s0)
   12be6:	00904663          	bgtz	s1,12bf2 <__sflush_r+0xfa>
   12bea:	b7e9                	j	12bb4 <__sflush_r+0xbc>
   12bec:	992a                	add	s2,s2,a0
   12bee:	fc9053e3          	blez	s1,12bb4 <__sflush_r+0xbc>
   12bf2:	603c                	ld	a5,64(s0)
   12bf4:	780c                	ld	a1,48(s0)
   12bf6:	86a6                	mv	a3,s1
   12bf8:	864a                	mv	a2,s2
   12bfa:	854e                	mv	a0,s3
   12bfc:	9782                	jalr	a5
   12bfe:	9c89                	subw	s1,s1,a0
   12c00:	fea046e3          	bgtz	a0,12bec <__sflush_r+0xf4>
   12c04:	01045783          	lhu	a5,16(s0)
   12c08:	70a2                	ld	ra,40(sp)
   12c0a:	64e2                	ld	s1,24(sp)
   12c0c:	0407e793          	ori	a5,a5,64
   12c10:	00f41823          	sh	a5,16(s0)
   12c14:	7402                	ld	s0,32(sp)
   12c16:	6942                	ld	s2,16(sp)
   12c18:	69a2                	ld	s3,8(sp)
   12c1a:	557d                	li	a0,-1
   12c1c:	6145                	addi	sp,sp,48
   12c1e:	8082                	ret
   12c20:	59b8                	lw	a4,112(a1)
   12c22:	f0e041e3          	bgtz	a4,12b24 <__sflush_r+0x2c>
   12c26:	b779                	j	12bb4 <__sflush_r+0xbc>
   12c28:	6850                	ld	a2,144(s0)
   12c2a:	b72d                	j	12b54 <__sflush_r+0x5c>
   12c2c:	01045783          	lhu	a5,16(s0)
   12c30:	777d                	lui	a4,0xfffff
   12c32:	7ff70713          	addi	a4,a4,2047 # fffffffffffff7ff <__BSS_END__+0xfffffffffffdfee7>
   12c36:	8ff9                	and	a5,a5,a4
   12c38:	6c14                	ld	a3,24(s0)
   12c3a:	0107979b          	slliw	a5,a5,0x10
   12c3e:	4107d79b          	sraiw	a5,a5,0x10
   12c42:	6705                	lui	a4,0x1
   12c44:	00f41823          	sh	a5,16(s0)
   12c48:	00042423          	sw	zero,8(s0)
   12c4c:	e014                	sd	a3,0(s0)
   12c4e:	8ff9                	and	a5,a5,a4
   12c50:	d7a9                	beqz	a5,12b9a <__sflush_r+0xa2>
   12c52:	e848                	sd	a0,144(s0)
   12c54:	b799                	j	12b9a <__sflush_r+0xa2>
   12c56:	0009a783          	lw	a5,0(s3)
   12c5a:	ee0789e3          	beqz	a5,12b4c <__sflush_r+0x54>
   12c5e:	4775                	li	a4,29
   12c60:	00e78563          	beq	a5,a4,12c6a <__sflush_r+0x172>
   12c64:	4759                	li	a4,22
   12c66:	f8e79fe3          	bne	a5,a4,12c04 <__sflush_r+0x10c>
   12c6a:	0099a023          	sw	s1,0(s3)
   12c6e:	4501                	li	a0,0
   12c70:	b799                	j	12bb6 <__sflush_r+0xbe>
   12c72:	777d                	lui	a4,0xfffff
   12c74:	7ff70713          	addi	a4,a4,2047 # fffffffffffff7ff <__BSS_END__+0xfffffffffffdfee7>
   12c78:	6c14                	ld	a3,24(s0)
   12c7a:	8ff9                	and	a5,a5,a4
   12c7c:	b7d9                	j	12c42 <__sflush_r+0x14a>
   12c7e:	0407e793          	ori	a5,a5,64
   12c82:	00f41823          	sh	a5,16(s0)
   12c86:	557d                	li	a0,-1
   12c88:	b73d                	j	12bb6 <__sflush_r+0xbe>

0000000000012c8a <_fflush_r>:
   12c8a:	1101                	addi	sp,sp,-32
   12c8c:	e822                	sd	s0,16(sp)
   12c8e:	ec06                	sd	ra,24(sp)
   12c90:	842a                	mv	s0,a0
   12c92:	c119                	beqz	a0,12c98 <_fflush_r+0xe>
   12c94:	493c                	lw	a5,80(a0)
   12c96:	cb89                	beqz	a5,12ca8 <_fflush_r+0x1e>
   12c98:	01059783          	lh	a5,16(a1)
   12c9c:	ef89                	bnez	a5,12cb6 <_fflush_r+0x2c>
   12c9e:	60e2                	ld	ra,24(sp)
   12ca0:	6442                	ld	s0,16(sp)
   12ca2:	4501                	li	a0,0
   12ca4:	6105                	addi	sp,sp,32
   12ca6:	8082                	ret
   12ca8:	e42e                	sd	a1,8(sp)
   12caa:	2bc000ef          	jal	ra,12f66 <__sinit>
   12cae:	65a2                	ld	a1,8(sp)
   12cb0:	01059783          	lh	a5,16(a1)
   12cb4:	d7ed                	beqz	a5,12c9e <_fflush_r+0x14>
   12cb6:	8522                	mv	a0,s0
   12cb8:	6442                	ld	s0,16(sp)
   12cba:	60e2                	ld	ra,24(sp)
   12cbc:	6105                	addi	sp,sp,32
   12cbe:	bd2d                	j	12af8 <__sflush_r>

0000000000012cc0 <fflush>:
   12cc0:	cd1d                	beqz	a0,12cfe <fflush+0x3e>
   12cc2:	1101                	addi	sp,sp,-32
   12cc4:	e822                	sd	s0,16(sp)
   12cc6:	842a                	mv	s0,a0
   12cc8:	7501b503          	ld	a0,1872(gp) # 1f868 <_impure_ptr>
   12ccc:	ec06                	sd	ra,24(sp)
   12cce:	c119                	beqz	a0,12cd4 <fflush+0x14>
   12cd0:	493c                	lw	a5,80(a0)
   12cd2:	cf91                	beqz	a5,12cee <fflush+0x2e>
   12cd4:	01041783          	lh	a5,16(s0)
   12cd8:	e791                	bnez	a5,12ce4 <fflush+0x24>
   12cda:	60e2                	ld	ra,24(sp)
   12cdc:	6442                	ld	s0,16(sp)
   12cde:	4501                	li	a0,0
   12ce0:	6105                	addi	sp,sp,32
   12ce2:	8082                	ret
   12ce4:	85a2                	mv	a1,s0
   12ce6:	6442                	ld	s0,16(sp)
   12ce8:	60e2                	ld	ra,24(sp)
   12cea:	6105                	addi	sp,sp,32
   12cec:	b531                	j	12af8 <__sflush_r>
   12cee:	e42a                	sd	a0,8(sp)
   12cf0:	276000ef          	jal	ra,12f66 <__sinit>
   12cf4:	01041783          	lh	a5,16(s0)
   12cf8:	6522                	ld	a0,8(sp)
   12cfa:	d3e5                	beqz	a5,12cda <fflush+0x1a>
   12cfc:	b7e5                	j	12ce4 <fflush+0x24>
   12cfe:	7401b503          	ld	a0,1856(gp) # 1f858 <_global_impure_ptr>
   12d02:	65cd                	lui	a1,0x13
   12d04:	c8a58593          	addi	a1,a1,-886 # 12c8a <_fflush_r>
   12d08:	a595                	j	1336c <_fwalk_reent>

0000000000012d0a <__fp_lock>:
   12d0a:	4501                	li	a0,0
   12d0c:	8082                	ret

0000000000012d0e <_cleanup_r>:
   12d0e:	65e5                	lui	a1,0x19
   12d10:	47258593          	addi	a1,a1,1138 # 19472 <_fclose_r>
   12d14:	ada1                	j	1336c <_fwalk_reent>

0000000000012d16 <__fp_unlock>:
   12d16:	4501                	li	a0,0
   12d18:	8082                	ret

0000000000012d1a <__sinit.part.0>:
   12d1a:	7139                	addi	sp,sp,-64
   12d1c:	67cd                	lui	a5,0x13
   12d1e:	fc06                	sd	ra,56(sp)
   12d20:	f822                	sd	s0,48(sp)
   12d22:	f426                	sd	s1,40(sp)
   12d24:	f04a                	sd	s2,32(sp)
   12d26:	ec4e                	sd	s3,24(sp)
   12d28:	e852                	sd	s4,16(sp)
   12d2a:	e456                	sd	s5,8(sp)
   12d2c:	e05a                	sd	s6,0(sp)
   12d2e:	6500                	ld	s0,8(a0)
   12d30:	d0e78793          	addi	a5,a5,-754 # 12d0e <_cleanup_r>
   12d34:	ed3c                	sd	a5,88(a0)
   12d36:	53850713          	addi	a4,a0,1336
   12d3a:	478d                	li	a5,3
   12d3c:	52e53823          	sd	a4,1328(a0)
   12d40:	52f52423          	sw	a5,1320(a0)
   12d44:	52053023          	sd	zero,1312(a0)
   12d48:	4791                	li	a5,4
   12d4a:	892a                	mv	s2,a0
   12d4c:	c81c                	sw	a5,16(s0)
   12d4e:	4621                	li	a2,8
   12d50:	4581                	li	a1,0
   12d52:	0a042623          	sw	zero,172(s0)
   12d56:	00043023          	sd	zero,0(s0)
   12d5a:	00043423          	sd	zero,8(s0)
   12d5e:	00043c23          	sd	zero,24(s0)
   12d62:	02042023          	sw	zero,32(s0)
   12d66:	02042423          	sw	zero,40(s0)
   12d6a:	0a440513          	addi	a0,s0,164
   12d6e:	e7ffd0ef          	jal	ra,10bec <memset>
   12d72:	6b59                	lui	s6,0x16
   12d74:	01093483          	ld	s1,16(s2)
   12d78:	6ad9                	lui	s5,0x16
   12d7a:	6a59                	lui	s4,0x16
   12d7c:	69d9                	lui	s3,0x16
   12d7e:	636b0b13          	addi	s6,s6,1590 # 16636 <__sread>
   12d82:	672a8a93          	addi	s5,s5,1650 # 16672 <__swrite>
   12d86:	6c6a0a13          	addi	s4,s4,1734 # 166c6 <__sseek>
   12d8a:	70898993          	addi	s3,s3,1800 # 16708 <__sclose>
   12d8e:	67c1                	lui	a5,0x10
   12d90:	03643c23          	sd	s6,56(s0)
   12d94:	05543023          	sd	s5,64(s0)
   12d98:	05443423          	sd	s4,72(s0)
   12d9c:	05343823          	sd	s3,80(s0)
   12da0:	f800                	sd	s0,48(s0)
   12da2:	07a5                	addi	a5,a5,9
   12da4:	c89c                	sw	a5,16(s1)
   12da6:	4621                	li	a2,8
   12da8:	4581                	li	a1,0
   12daa:	0a04a623          	sw	zero,172(s1)
   12dae:	0004b023          	sd	zero,0(s1)
   12db2:	0004b423          	sd	zero,8(s1)
   12db6:	0004bc23          	sd	zero,24(s1)
   12dba:	0204a023          	sw	zero,32(s1)
   12dbe:	0204a423          	sw	zero,40(s1)
   12dc2:	0a448513          	addi	a0,s1,164
   12dc6:	e27fd0ef          	jal	ra,10bec <memset>
   12dca:	01893403          	ld	s0,24(s2)
   12dce:	000207b7          	lui	a5,0x20
   12dd2:	0364bc23          	sd	s6,56(s1)
   12dd6:	0554b023          	sd	s5,64(s1)
   12dda:	0544b423          	sd	s4,72(s1)
   12dde:	0534b823          	sd	s3,80(s1)
   12de2:	f884                	sd	s1,48(s1)
   12de4:	07c9                	addi	a5,a5,18
   12de6:	c81c                	sw	a5,16(s0)
   12de8:	0a042623          	sw	zero,172(s0)
   12dec:	00043023          	sd	zero,0(s0)
   12df0:	00043423          	sd	zero,8(s0)
   12df4:	00043c23          	sd	zero,24(s0)
   12df8:	02042023          	sw	zero,32(s0)
   12dfc:	02042423          	sw	zero,40(s0)
   12e00:	0a440513          	addi	a0,s0,164
   12e04:	4621                	li	a2,8
   12e06:	4581                	li	a1,0
   12e08:	de5fd0ef          	jal	ra,10bec <memset>
   12e0c:	70e2                	ld	ra,56(sp)
   12e0e:	03643c23          	sd	s6,56(s0)
   12e12:	05543023          	sd	s5,64(s0)
   12e16:	05443423          	sd	s4,72(s0)
   12e1a:	05343823          	sd	s3,80(s0)
   12e1e:	f800                	sd	s0,48(s0)
   12e20:	7442                	ld	s0,48(sp)
   12e22:	4785                	li	a5,1
   12e24:	04f92823          	sw	a5,80(s2)
   12e28:	74a2                	ld	s1,40(sp)
   12e2a:	7902                	ld	s2,32(sp)
   12e2c:	69e2                	ld	s3,24(sp)
   12e2e:	6a42                	ld	s4,16(sp)
   12e30:	6aa2                	ld	s5,8(sp)
   12e32:	6b02                	ld	s6,0(sp)
   12e34:	6121                	addi	sp,sp,64
   12e36:	8082                	ret

0000000000012e38 <__sfmoreglue>:
   12e38:	1101                	addi	sp,sp,-32
   12e3a:	e426                	sd	s1,8(sp)
   12e3c:	0b000613          	li	a2,176
   12e40:	fff5849b          	addiw	s1,a1,-1
   12e44:	02c484b3          	mul	s1,s1,a2
   12e48:	e04a                	sd	s2,0(sp)
   12e4a:	892e                	mv	s2,a1
   12e4c:	e822                	sd	s0,16(sp)
   12e4e:	ec06                	sd	ra,24(sp)
   12e50:	0c848593          	addi	a1,s1,200
   12e54:	f76fd0ef          	jal	ra,105ca <_malloc_r>
   12e58:	842a                	mv	s0,a0
   12e5a:	cd01                	beqz	a0,12e72 <__sfmoreglue+0x3a>
   12e5c:	0561                	addi	a0,a0,24
   12e5e:	00043023          	sd	zero,0(s0)
   12e62:	01242423          	sw	s2,8(s0)
   12e66:	e808                	sd	a0,16(s0)
   12e68:	0b048613          	addi	a2,s1,176
   12e6c:	4581                	li	a1,0
   12e6e:	d7ffd0ef          	jal	ra,10bec <memset>
   12e72:	60e2                	ld	ra,24(sp)
   12e74:	8522                	mv	a0,s0
   12e76:	6442                	ld	s0,16(sp)
   12e78:	64a2                	ld	s1,8(sp)
   12e7a:	6902                	ld	s2,0(sp)
   12e7c:	6105                	addi	sp,sp,32
   12e7e:	8082                	ret

0000000000012e80 <__sfp>:
   12e80:	7179                	addi	sp,sp,-48
   12e82:	ec26                	sd	s1,24(sp)
   12e84:	7401b483          	ld	s1,1856(gp) # 1f858 <_global_impure_ptr>
   12e88:	e84a                	sd	s2,16(sp)
   12e8a:	f406                	sd	ra,40(sp)
   12e8c:	48bc                	lw	a5,80(s1)
   12e8e:	f022                	sd	s0,32(sp)
   12e90:	e44e                	sd	s3,8(sp)
   12e92:	e052                	sd	s4,0(sp)
   12e94:	892a                	mv	s2,a0
   12e96:	c3d9                	beqz	a5,12f1c <__sfp+0x9c>
   12e98:	52048493          	addi	s1,s1,1312
   12e9c:	0b000993          	li	s3,176
   12ea0:	4a11                	li	s4,4
   12ea2:	449c                	lw	a5,8(s1)
   12ea4:	6880                	ld	s0,16(s1)
   12ea6:	06f05763          	blez	a5,12f14 <__sfp+0x94>
   12eaa:	37fd                	addiw	a5,a5,-1
   12eac:	1782                	slli	a5,a5,0x20
   12eae:	9381                	srli	a5,a5,0x20
   12eb0:	0785                	addi	a5,a5,1
   12eb2:	033787b3          	mul	a5,a5,s3
   12eb6:	97a2                	add	a5,a5,s0
   12eb8:	a029                	j	12ec2 <__sfp+0x42>
   12eba:	0b040413          	addi	s0,s0,176
   12ebe:	04f40b63          	beq	s0,a5,12f14 <__sfp+0x94>
   12ec2:	01041703          	lh	a4,16(s0)
   12ec6:	fb75                	bnez	a4,12eba <__sfp+0x3a>
   12ec8:	77c1                	lui	a5,0xffff0
   12eca:	0785                	addi	a5,a5,1
   12ecc:	0a042623          	sw	zero,172(s0)
   12ed0:	00043023          	sd	zero,0(s0)
   12ed4:	00043423          	sd	zero,8(s0)
   12ed8:	c81c                	sw	a5,16(s0)
   12eda:	00043c23          	sd	zero,24(s0)
   12ede:	02042023          	sw	zero,32(s0)
   12ee2:	02042423          	sw	zero,40(s0)
   12ee6:	4621                	li	a2,8
   12ee8:	4581                	li	a1,0
   12eea:	0a440513          	addi	a0,s0,164
   12eee:	cfffd0ef          	jal	ra,10bec <memset>
   12ef2:	04043c23          	sd	zero,88(s0)
   12ef6:	06042023          	sw	zero,96(s0)
   12efa:	06043c23          	sd	zero,120(s0)
   12efe:	08042023          	sw	zero,128(s0)
   12f02:	70a2                	ld	ra,40(sp)
   12f04:	8522                	mv	a0,s0
   12f06:	7402                	ld	s0,32(sp)
   12f08:	64e2                	ld	s1,24(sp)
   12f0a:	6942                	ld	s2,16(sp)
   12f0c:	69a2                	ld	s3,8(sp)
   12f0e:	6a02                	ld	s4,0(sp)
   12f10:	6145                	addi	sp,sp,48
   12f12:	8082                	ret
   12f14:	6080                	ld	s0,0(s1)
   12f16:	c419                	beqz	s0,12f24 <__sfp+0xa4>
   12f18:	84a2                	mv	s1,s0
   12f1a:	b761                	j	12ea2 <__sfp+0x22>
   12f1c:	8526                	mv	a0,s1
   12f1e:	dfdff0ef          	jal	ra,12d1a <__sinit.part.0>
   12f22:	bf9d                	j	12e98 <__sfp+0x18>
   12f24:	2d800593          	li	a1,728
   12f28:	854a                	mv	a0,s2
   12f2a:	ea0fd0ef          	jal	ra,105ca <_malloc_r>
   12f2e:	842a                	mv	s0,a0
   12f30:	cd19                	beqz	a0,12f4e <__sfp+0xce>
   12f32:	0561                	addi	a0,a0,24
   12f34:	00043023          	sd	zero,0(s0)
   12f38:	01442423          	sw	s4,8(s0)
   12f3c:	e808                	sd	a0,16(s0)
   12f3e:	2c000613          	li	a2,704
   12f42:	4581                	li	a1,0
   12f44:	ca9fd0ef          	jal	ra,10bec <memset>
   12f48:	e080                	sd	s0,0(s1)
   12f4a:	84a2                	mv	s1,s0
   12f4c:	bf99                	j	12ea2 <__sfp+0x22>
   12f4e:	0004b023          	sd	zero,0(s1)
   12f52:	47b1                	li	a5,12
   12f54:	00f92023          	sw	a5,0(s2)
   12f58:	b76d                	j	12f02 <__sfp+0x82>

0000000000012f5a <_cleanup>:
   12f5a:	7401b503          	ld	a0,1856(gp) # 1f858 <_global_impure_ptr>
   12f5e:	65e5                	lui	a1,0x19
   12f60:	47258593          	addi	a1,a1,1138 # 19472 <_fclose_r>
   12f64:	a121                	j	1336c <_fwalk_reent>

0000000000012f66 <__sinit>:
   12f66:	493c                	lw	a5,80(a0)
   12f68:	c391                	beqz	a5,12f6c <__sinit+0x6>
   12f6a:	8082                	ret
   12f6c:	b37d                	j	12d1a <__sinit.part.0>

0000000000012f6e <__sfp_lock_acquire>:
   12f6e:	8082                	ret

0000000000012f70 <__sfp_lock_release>:
   12f70:	8082                	ret

0000000000012f72 <__sinit_lock_acquire>:
   12f72:	8082                	ret

0000000000012f74 <__sinit_lock_release>:
   12f74:	8082                	ret

0000000000012f76 <__fp_lock_all>:
   12f76:	7501b503          	ld	a0,1872(gp) # 1f868 <_impure_ptr>
   12f7a:	65cd                	lui	a1,0x13
   12f7c:	d0a58593          	addi	a1,a1,-758 # 12d0a <__fp_lock>
   12f80:	a6ad                	j	132ea <_fwalk>

0000000000012f82 <__fp_unlock_all>:
   12f82:	7501b503          	ld	a0,1872(gp) # 1f868 <_impure_ptr>
   12f86:	65cd                	lui	a1,0x13
   12f88:	d1658593          	addi	a1,a1,-746 # 12d16 <__fp_unlock>
   12f8c:	aeb9                	j	132ea <_fwalk>

0000000000012f8e <__libc_fini_array>:
   12f8e:	1101                	addi	sp,sp,-32
   12f90:	e822                	sd	s0,16(sp)
   12f92:	67f9                	lui	a5,0x1e
   12f94:	6479                	lui	s0,0x1e
   12f96:	6a840413          	addi	s0,s0,1704 # 1e6a8 <__do_global_dtors_aux_fini_array_entry>
   12f9a:	6b078793          	addi	a5,a5,1712 # 1e6b0 <data>
   12f9e:	8f81                	sub	a5,a5,s0
   12fa0:	e426                	sd	s1,8(sp)
   12fa2:	ec06                	sd	ra,24(sp)
   12fa4:	4037d493          	srai	s1,a5,0x3
   12fa8:	c881                	beqz	s1,12fb8 <__libc_fini_array+0x2a>
   12faa:	17e1                	addi	a5,a5,-8
   12fac:	943e                	add	s0,s0,a5
   12fae:	601c                	ld	a5,0(s0)
   12fb0:	14fd                	addi	s1,s1,-1
   12fb2:	1461                	addi	s0,s0,-8
   12fb4:	9782                	jalr	a5
   12fb6:	fce5                	bnez	s1,12fae <__libc_fini_array+0x20>
   12fb8:	60e2                	ld	ra,24(sp)
   12fba:	6442                	ld	s0,16(sp)
   12fbc:	64a2                	ld	s1,8(sp)
   12fbe:	6105                	addi	sp,sp,32
   12fc0:	8082                	ret

0000000000012fc2 <_malloc_trim_r>:
   12fc2:	7179                	addi	sp,sp,-48
   12fc4:	e44e                	sd	s3,8(sp)
   12fc6:	0001f9b7          	lui	s3,0x1f
   12fca:	f022                	sd	s0,32(sp)
   12fcc:	ec26                	sd	s1,24(sp)
   12fce:	e84a                	sd	s2,16(sp)
   12fd0:	e052                	sd	s4,0(sp)
   12fd2:	f406                	sd	ra,40(sp)
   12fd4:	8a2e                	mv	s4,a1
   12fd6:	892a                	mv	s2,a0
   12fd8:	e7098993          	addi	s3,s3,-400 # 1ee70 <__malloc_av_>
   12fdc:	cbbfd0ef          	jal	ra,10c96 <__malloc_lock>
   12fe0:	0109b703          	ld	a4,16(s3)
   12fe4:	6785                	lui	a5,0x1
   12fe6:	fdf78413          	addi	s0,a5,-33 # fdf <register_fini-0xf109>
   12fea:	6704                	ld	s1,8(a4)
   12fec:	41440433          	sub	s0,s0,s4
   12ff0:	98f1                	andi	s1,s1,-4
   12ff2:	9426                	add	s0,s0,s1
   12ff4:	8031                	srli	s0,s0,0xc
   12ff6:	147d                	addi	s0,s0,-1
   12ff8:	0432                	slli	s0,s0,0xc
   12ffa:	00f44b63          	blt	s0,a5,13010 <_malloc_trim_r+0x4e>
   12ffe:	4581                	li	a1,0
   13000:	854a                	mv	a0,s2
   13002:	ce7fd0ef          	jal	ra,10ce8 <_sbrk_r>
   13006:	0109b783          	ld	a5,16(s3)
   1300a:	97a6                	add	a5,a5,s1
   1300c:	00f50e63          	beq	a0,a5,13028 <_malloc_trim_r+0x66>
   13010:	854a                	mv	a0,s2
   13012:	c87fd0ef          	jal	ra,10c98 <__malloc_unlock>
   13016:	70a2                	ld	ra,40(sp)
   13018:	7402                	ld	s0,32(sp)
   1301a:	64e2                	ld	s1,24(sp)
   1301c:	6942                	ld	s2,16(sp)
   1301e:	69a2                	ld	s3,8(sp)
   13020:	6a02                	ld	s4,0(sp)
   13022:	4501                	li	a0,0
   13024:	6145                	addi	sp,sp,48
   13026:	8082                	ret
   13028:	408005b3          	neg	a1,s0
   1302c:	854a                	mv	a0,s2
   1302e:	cbbfd0ef          	jal	ra,10ce8 <_sbrk_r>
   13032:	57fd                	li	a5,-1
   13034:	02f50c63          	beq	a0,a5,1306c <_malloc_trim_r+0xaa>
   13038:	000207b7          	lui	a5,0x20
   1303c:	8f078793          	addi	a5,a5,-1808 # 1f8f0 <__malloc_current_mallinfo>
   13040:	4398                	lw	a4,0(a5)
   13042:	0109b683          	ld	a3,16(s3)
   13046:	8c81                	sub	s1,s1,s0
   13048:	0014e493          	ori	s1,s1,1
   1304c:	4087043b          	subw	s0,a4,s0
   13050:	854a                	mv	a0,s2
   13052:	e684                	sd	s1,8(a3)
   13054:	c380                	sw	s0,0(a5)
   13056:	c43fd0ef          	jal	ra,10c98 <__malloc_unlock>
   1305a:	70a2                	ld	ra,40(sp)
   1305c:	7402                	ld	s0,32(sp)
   1305e:	64e2                	ld	s1,24(sp)
   13060:	6942                	ld	s2,16(sp)
   13062:	69a2                	ld	s3,8(sp)
   13064:	6a02                	ld	s4,0(sp)
   13066:	4505                	li	a0,1
   13068:	6145                	addi	sp,sp,48
   1306a:	8082                	ret
   1306c:	4581                	li	a1,0
   1306e:	854a                	mv	a0,s2
   13070:	c79fd0ef          	jal	ra,10ce8 <_sbrk_r>
   13074:	0109b703          	ld	a4,16(s3)
   13078:	46fd                	li	a3,31
   1307a:	40e507b3          	sub	a5,a0,a4
   1307e:	f8f6d9e3          	bge	a3,a5,13010 <_malloc_trim_r+0x4e>
   13082:	7581b683          	ld	a3,1880(gp) # 1f870 <__malloc_sbrk_base>
   13086:	0017e793          	ori	a5,a5,1
   1308a:	e71c                	sd	a5,8(a4)
   1308c:	8d15                	sub	a0,a0,a3
   1308e:	000206b7          	lui	a3,0x20
   13092:	8ea6a823          	sw	a0,-1808(a3) # 1f8f0 <__malloc_current_mallinfo>
   13096:	bfad                	j	13010 <_malloc_trim_r+0x4e>

0000000000013098 <_free_r>:
   13098:	c9e5                	beqz	a1,13188 <_free_r+0xf0>
   1309a:	1101                	addi	sp,sp,-32
   1309c:	e822                	sd	s0,16(sp)
   1309e:	e426                	sd	s1,8(sp)
   130a0:	842e                	mv	s0,a1
   130a2:	84aa                	mv	s1,a0
   130a4:	ec06                	sd	ra,24(sp)
   130a6:	bf1fd0ef          	jal	ra,10c96 <__malloc_lock>
   130aa:	ff843503          	ld	a0,-8(s0)
   130ae:	ff040713          	addi	a4,s0,-16
   130b2:	0001f5b7          	lui	a1,0x1f
   130b6:	ffe57793          	andi	a5,a0,-2
   130ba:	00f70633          	add	a2,a4,a5
   130be:	e7058593          	addi	a1,a1,-400 # 1ee70 <__malloc_av_>
   130c2:	6614                	ld	a3,8(a2)
   130c4:	0105b803          	ld	a6,16(a1)
   130c8:	9af1                	andi	a3,a3,-4
   130ca:	14c80263          	beq	a6,a2,1320e <_free_r+0x176>
   130ce:	e614                	sd	a3,8(a2)
   130d0:	8905                	andi	a0,a0,1
   130d2:	00d60833          	add	a6,a2,a3
   130d6:	e149                	bnez	a0,13158 <_free_r+0xc0>
   130d8:	ff043303          	ld	t1,-16(s0)
   130dc:	00883803          	ld	a6,8(a6)
   130e0:	0001f537          	lui	a0,0x1f
   130e4:	40670733          	sub	a4,a4,t1
   130e8:	01073883          	ld	a7,16(a4)
   130ec:	e8050513          	addi	a0,a0,-384 # 1ee80 <__malloc_av_+0x10>
   130f0:	979a                	add	a5,a5,t1
   130f2:	00187813          	andi	a6,a6,1
   130f6:	0ea88963          	beq	a7,a0,131e8 <_free_r+0x150>
   130fa:	01873303          	ld	t1,24(a4)
   130fe:	0068bc23          	sd	t1,24(a7)
   13102:	01133823          	sd	a7,16(t1)
   13106:	14080e63          	beqz	a6,13262 <_free_r+0x1ca>
   1310a:	0017e693          	ori	a3,a5,1
   1310e:	e714                	sd	a3,8(a4)
   13110:	e21c                	sd	a5,0(a2)
   13112:	1ff00693          	li	a3,511
   13116:	08f6e363          	bltu	a3,a5,1319c <_free_r+0x104>
   1311a:	838d                	srli	a5,a5,0x3
   1311c:	0017869b          	addiw	a3,a5,1
   13120:	0016969b          	slliw	a3,a3,0x1
   13124:	068e                	slli	a3,a3,0x3
   13126:	0085b803          	ld	a6,8(a1)
   1312a:	96ae                	add	a3,a3,a1
   1312c:	6288                	ld	a0,0(a3)
   1312e:	4027d61b          	sraiw	a2,a5,0x2
   13132:	4785                	li	a5,1
   13134:	00c797b3          	sll	a5,a5,a2
   13138:	0107e7b3          	or	a5,a5,a6
   1313c:	ff068613          	addi	a2,a3,-16
   13140:	ef10                	sd	a2,24(a4)
   13142:	eb08                	sd	a0,16(a4)
   13144:	e59c                	sd	a5,8(a1)
   13146:	e298                	sd	a4,0(a3)
   13148:	ed18                	sd	a4,24(a0)
   1314a:	6442                	ld	s0,16(sp)
   1314c:	60e2                	ld	ra,24(sp)
   1314e:	8526                	mv	a0,s1
   13150:	64a2                	ld	s1,8(sp)
   13152:	6105                	addi	sp,sp,32
   13154:	b45fd06f          	j	10c98 <__malloc_unlock>
   13158:	00883503          	ld	a0,8(a6)
   1315c:	8905                	andi	a0,a0,1
   1315e:	e515                	bnez	a0,1318a <_free_r+0xf2>
   13160:	0001f537          	lui	a0,0x1f
   13164:	97b6                	add	a5,a5,a3
   13166:	e8050513          	addi	a0,a0,-384 # 1ee80 <__malloc_av_+0x10>
   1316a:	6a14                	ld	a3,16(a2)
   1316c:	0017e893          	ori	a7,a5,1
   13170:	00f70833          	add	a6,a4,a5
   13174:	10a68163          	beq	a3,a0,13276 <_free_r+0x1de>
   13178:	6e10                	ld	a2,24(a2)
   1317a:	ee90                	sd	a2,24(a3)
   1317c:	ea14                	sd	a3,16(a2)
   1317e:	01173423          	sd	a7,8(a4)
   13182:	00f83023          	sd	a5,0(a6)
   13186:	b771                	j	13112 <_free_r+0x7a>
   13188:	8082                	ret
   1318a:	0017e693          	ori	a3,a5,1
   1318e:	fed43c23          	sd	a3,-8(s0)
   13192:	e21c                	sd	a5,0(a2)
   13194:	1ff00693          	li	a3,511
   13198:	f8f6f1e3          	bgeu	a3,a5,1311a <_free_r+0x82>
   1319c:	0097d693          	srli	a3,a5,0x9
   131a0:	4611                	li	a2,4
   131a2:	08d66f63          	bltu	a2,a3,13240 <_free_r+0x1a8>
   131a6:	0067d693          	srli	a3,a5,0x6
   131aa:	0396851b          	addiw	a0,a3,57
   131ae:	0015151b          	slliw	a0,a0,0x1
   131b2:	0386861b          	addiw	a2,a3,56
   131b6:	050e                	slli	a0,a0,0x3
   131b8:	952e                	add	a0,a0,a1
   131ba:	6114                	ld	a3,0(a0)
   131bc:	1541                	addi	a0,a0,-16
   131be:	0cd50563          	beq	a0,a3,13288 <_free_r+0x1f0>
   131c2:	6690                	ld	a2,8(a3)
   131c4:	9a71                	andi	a2,a2,-4
   131c6:	00c7f563          	bgeu	a5,a2,131d0 <_free_r+0x138>
   131ca:	6a94                	ld	a3,16(a3)
   131cc:	fed51be3          	bne	a0,a3,131c2 <_free_r+0x12a>
   131d0:	6e88                	ld	a0,24(a3)
   131d2:	ef08                	sd	a0,24(a4)
   131d4:	eb14                	sd	a3,16(a4)
   131d6:	6442                	ld	s0,16(sp)
   131d8:	e918                	sd	a4,16(a0)
   131da:	60e2                	ld	ra,24(sp)
   131dc:	8526                	mv	a0,s1
   131de:	64a2                	ld	s1,8(sp)
   131e0:	ee98                	sd	a4,24(a3)
   131e2:	6105                	addi	sp,sp,32
   131e4:	ab5fd06f          	j	10c98 <__malloc_unlock>
   131e8:	0e081c63          	bnez	a6,132e0 <_free_r+0x248>
   131ec:	6e0c                	ld	a1,24(a2)
   131ee:	6a10                	ld	a2,16(a2)
   131f0:	97b6                	add	a5,a5,a3
   131f2:	6442                	ld	s0,16(sp)
   131f4:	ee0c                	sd	a1,24(a2)
   131f6:	e990                	sd	a2,16(a1)
   131f8:	0017e693          	ori	a3,a5,1
   131fc:	60e2                	ld	ra,24(sp)
   131fe:	e714                	sd	a3,8(a4)
   13200:	8526                	mv	a0,s1
   13202:	973e                	add	a4,a4,a5
   13204:	64a2                	ld	s1,8(sp)
   13206:	e31c                	sd	a5,0(a4)
   13208:	6105                	addi	sp,sp,32
   1320a:	a8ffd06f          	j	10c98 <__malloc_unlock>
   1320e:	8905                	andi	a0,a0,1
   13210:	97b6                	add	a5,a5,a3
   13212:	e909                	bnez	a0,13224 <_free_r+0x18c>
   13214:	ff043503          	ld	a0,-16(s0)
   13218:	8f09                	sub	a4,a4,a0
   1321a:	6f14                	ld	a3,24(a4)
   1321c:	6b10                	ld	a2,16(a4)
   1321e:	97aa                	add	a5,a5,a0
   13220:	ee14                	sd	a3,24(a2)
   13222:	ea90                	sd	a2,16(a3)
   13224:	0017e613          	ori	a2,a5,1
   13228:	7601b683          	ld	a3,1888(gp) # 1f878 <__malloc_trim_threshold>
   1322c:	e710                	sd	a2,8(a4)
   1322e:	e998                	sd	a4,16(a1)
   13230:	f0d7ede3          	bltu	a5,a3,1314a <_free_r+0xb2>
   13234:	7801b583          	ld	a1,1920(gp) # 1f898 <__malloc_top_pad>
   13238:	8526                	mv	a0,s1
   1323a:	d89ff0ef          	jal	ra,12fc2 <_malloc_trim_r>
   1323e:	b731                	j	1314a <_free_r+0xb2>
   13240:	4651                	li	a2,20
   13242:	02d67263          	bgeu	a2,a3,13266 <_free_r+0x1ce>
   13246:	05400613          	li	a2,84
   1324a:	04d66a63          	bltu	a2,a3,1329e <_free_r+0x206>
   1324e:	00c7d693          	srli	a3,a5,0xc
   13252:	06f6851b          	addiw	a0,a3,111
   13256:	0015151b          	slliw	a0,a0,0x1
   1325a:	06e6861b          	addiw	a2,a3,110
   1325e:	050e                	slli	a0,a0,0x3
   13260:	bfa1                	j	131b8 <_free_r+0x120>
   13262:	97b6                	add	a5,a5,a3
   13264:	b719                	j	1316a <_free_r+0xd2>
   13266:	05c6851b          	addiw	a0,a3,92
   1326a:	0015151b          	slliw	a0,a0,0x1
   1326e:	05b6861b          	addiw	a2,a3,91
   13272:	050e                	slli	a0,a0,0x3
   13274:	b791                	j	131b8 <_free_r+0x120>
   13276:	f598                	sd	a4,40(a1)
   13278:	f198                	sd	a4,32(a1)
   1327a:	ef08                	sd	a0,24(a4)
   1327c:	eb08                	sd	a0,16(a4)
   1327e:	01173423          	sd	a7,8(a4)
   13282:	00f83023          	sd	a5,0(a6)
   13286:	b5d1                	j	1314a <_free_r+0xb2>
   13288:	0085b803          	ld	a6,8(a1)
   1328c:	4026561b          	sraiw	a2,a2,0x2
   13290:	4785                	li	a5,1
   13292:	00c79633          	sll	a2,a5,a2
   13296:	01066633          	or	a2,a2,a6
   1329a:	e590                	sd	a2,8(a1)
   1329c:	bf1d                	j	131d2 <_free_r+0x13a>
   1329e:	15400613          	li	a2,340
   132a2:	00d66c63          	bltu	a2,a3,132ba <_free_r+0x222>
   132a6:	00f7d693          	srli	a3,a5,0xf
   132aa:	0786851b          	addiw	a0,a3,120
   132ae:	0015151b          	slliw	a0,a0,0x1
   132b2:	0776861b          	addiw	a2,a3,119
   132b6:	050e                	slli	a0,a0,0x3
   132b8:	b701                	j	131b8 <_free_r+0x120>
   132ba:	55400613          	li	a2,1364
   132be:	00d66c63          	bltu	a2,a3,132d6 <_free_r+0x23e>
   132c2:	0127d693          	srli	a3,a5,0x12
   132c6:	07d6851b          	addiw	a0,a3,125
   132ca:	0015151b          	slliw	a0,a0,0x1
   132ce:	07c6861b          	addiw	a2,a3,124
   132d2:	050e                	slli	a0,a0,0x3
   132d4:	b5d5                	j	131b8 <_free_r+0x120>
   132d6:	7f000513          	li	a0,2032
   132da:	07e00613          	li	a2,126
   132de:	bde9                	j	131b8 <_free_r+0x120>
   132e0:	0017e693          	ori	a3,a5,1
   132e4:	e714                	sd	a3,8(a4)
   132e6:	e21c                	sd	a5,0(a2)
   132e8:	b58d                	j	1314a <_free_r+0xb2>

00000000000132ea <_fwalk>:
   132ea:	715d                	addi	sp,sp,-80
   132ec:	f84a                	sd	s2,48(sp)
   132ee:	f44e                	sd	s3,40(sp)
   132f0:	f052                	sd	s4,32(sp)
   132f2:	ec56                	sd	s5,24(sp)
   132f4:	e85a                	sd	s6,16(sp)
   132f6:	e45e                	sd	s7,8(sp)
   132f8:	e486                	sd	ra,72(sp)
   132fa:	e0a2                	sd	s0,64(sp)
   132fc:	fc26                	sd	s1,56(sp)
   132fe:	8a2e                	mv	s4,a1
   13300:	52050913          	addi	s2,a0,1312
   13304:	4b01                	li	s6,0
   13306:	0b000a93          	li	s5,176
   1330a:	4b85                	li	s7,1
   1330c:	59fd                	li	s3,-1
   1330e:	00892783          	lw	a5,8(s2)
   13312:	01093403          	ld	s0,16(s2)
   13316:	02f05b63          	blez	a5,1334c <_fwalk+0x62>
   1331a:	fff7849b          	addiw	s1,a5,-1
   1331e:	1482                	slli	s1,s1,0x20
   13320:	9081                	srli	s1,s1,0x20
   13322:	0485                	addi	s1,s1,1
   13324:	035484b3          	mul	s1,s1,s5
   13328:	94a2                	add	s1,s1,s0
   1332a:	01045783          	lhu	a5,16(s0)
   1332e:	00fbfb63          	bgeu	s7,a5,13344 <_fwalk+0x5a>
   13332:	01241783          	lh	a5,18(s0)
   13336:	8522                	mv	a0,s0
   13338:	01378663          	beq	a5,s3,13344 <_fwalk+0x5a>
   1333c:	9a02                	jalr	s4
   1333e:	01656b33          	or	s6,a0,s6
   13342:	2b01                	sext.w	s6,s6
   13344:	0b040413          	addi	s0,s0,176
   13348:	fe8491e3          	bne	s1,s0,1332a <_fwalk+0x40>
   1334c:	00093903          	ld	s2,0(s2)
   13350:	fa091fe3          	bnez	s2,1330e <_fwalk+0x24>
   13354:	60a6                	ld	ra,72(sp)
   13356:	6406                	ld	s0,64(sp)
   13358:	74e2                	ld	s1,56(sp)
   1335a:	7942                	ld	s2,48(sp)
   1335c:	79a2                	ld	s3,40(sp)
   1335e:	7a02                	ld	s4,32(sp)
   13360:	6ae2                	ld	s5,24(sp)
   13362:	6ba2                	ld	s7,8(sp)
   13364:	855a                	mv	a0,s6
   13366:	6b42                	ld	s6,16(sp)
   13368:	6161                	addi	sp,sp,80
   1336a:	8082                	ret

000000000001336c <_fwalk_reent>:
   1336c:	715d                	addi	sp,sp,-80
   1336e:	f84a                	sd	s2,48(sp)
   13370:	f44e                	sd	s3,40(sp)
   13372:	f052                	sd	s4,32(sp)
   13374:	ec56                	sd	s5,24(sp)
   13376:	e85a                	sd	s6,16(sp)
   13378:	e45e                	sd	s7,8(sp)
   1337a:	e062                	sd	s8,0(sp)
   1337c:	e486                	sd	ra,72(sp)
   1337e:	e0a2                	sd	s0,64(sp)
   13380:	fc26                	sd	s1,56(sp)
   13382:	8c2a                	mv	s8,a0
   13384:	8a2e                	mv	s4,a1
   13386:	52050913          	addi	s2,a0,1312
   1338a:	4b01                	li	s6,0
   1338c:	0b000a93          	li	s5,176
   13390:	4b85                	li	s7,1
   13392:	59fd                	li	s3,-1
   13394:	00892783          	lw	a5,8(s2)
   13398:	01093403          	ld	s0,16(s2)
   1339c:	02f05c63          	blez	a5,133d4 <_fwalk_reent+0x68>
   133a0:	fff7849b          	addiw	s1,a5,-1
   133a4:	1482                	slli	s1,s1,0x20
   133a6:	9081                	srli	s1,s1,0x20
   133a8:	0485                	addi	s1,s1,1
   133aa:	035484b3          	mul	s1,s1,s5
   133ae:	94a2                	add	s1,s1,s0
   133b0:	01045783          	lhu	a5,16(s0)
   133b4:	00fbfc63          	bgeu	s7,a5,133cc <_fwalk_reent+0x60>
   133b8:	01241783          	lh	a5,18(s0)
   133bc:	85a2                	mv	a1,s0
   133be:	8562                	mv	a0,s8
   133c0:	01378663          	beq	a5,s3,133cc <_fwalk_reent+0x60>
   133c4:	9a02                	jalr	s4
   133c6:	01656b33          	or	s6,a0,s6
   133ca:	2b01                	sext.w	s6,s6
   133cc:	0b040413          	addi	s0,s0,176
   133d0:	fe8490e3          	bne	s1,s0,133b0 <_fwalk_reent+0x44>
   133d4:	00093903          	ld	s2,0(s2)
   133d8:	fa091ee3          	bnez	s2,13394 <_fwalk_reent+0x28>
   133dc:	60a6                	ld	ra,72(sp)
   133de:	6406                	ld	s0,64(sp)
   133e0:	74e2                	ld	s1,56(sp)
   133e2:	7942                	ld	s2,48(sp)
   133e4:	79a2                	ld	s3,40(sp)
   133e6:	7a02                	ld	s4,32(sp)
   133e8:	6ae2                	ld	s5,24(sp)
   133ea:	6ba2                	ld	s7,8(sp)
   133ec:	6c02                	ld	s8,0(sp)
   133ee:	855a                	mv	a0,s6
   133f0:	6b42                	ld	s6,16(sp)
   133f2:	6161                	addi	sp,sp,80
   133f4:	8082                	ret

00000000000133f6 <eshdn1>:
   133f6:	00450693          	addi	a3,a0,4
   133fa:	4781                	li	a5,0
   133fc:	0569                	addi	a0,a0,26
   133fe:	7861                	lui	a6,0xffff8
   13400:	a811                	j	13414 <eshdn1+0x1e>
   13402:	0017979b          	slliw	a5,a5,0x1
   13406:	00e69023          	sh	a4,0(a3)
   1340a:	17c2                	slli	a5,a5,0x30
   1340c:	0689                	addi	a3,a3,2
   1340e:	93c1                	srli	a5,a5,0x30
   13410:	02d50863          	beq	a0,a3,13440 <eshdn1+0x4a>
   13414:	0006d703          	lhu	a4,0(a3)
   13418:	00177613          	andi	a2,a4,1
   1341c:	c219                	beqz	a2,13422 <eshdn1+0x2c>
   1341e:	0017e793          	ori	a5,a5,1
   13422:	8305                	srli	a4,a4,0x1
   13424:	0027f613          	andi	a2,a5,2
   13428:	010765b3          	or	a1,a4,a6
   1342c:	da79                	beqz	a2,13402 <eshdn1+0xc>
   1342e:	0017979b          	slliw	a5,a5,0x1
   13432:	00b69023          	sh	a1,0(a3)
   13436:	17c2                	slli	a5,a5,0x30
   13438:	0689                	addi	a3,a3,2
   1343a:	93c1                	srli	a5,a5,0x30
   1343c:	fcd51ce3          	bne	a0,a3,13414 <eshdn1+0x1e>
   13440:	8082                	ret

0000000000013442 <eshup1>:
   13442:	01850693          	addi	a3,a0,24
   13446:	4701                	li	a4,0
   13448:	0509                	addi	a0,a0,2
   1344a:	a811                	j	1345e <eshup1+0x1c>
   1344c:	0017171b          	slliw	a4,a4,0x1
   13450:	00f69023          	sh	a5,0(a3)
   13454:	1742                	slli	a4,a4,0x30
   13456:	16f9                	addi	a3,a3,-2
   13458:	9341                	srli	a4,a4,0x30
   1345a:	02d50b63          	beq	a0,a3,13490 <eshup1+0x4e>
   1345e:	0006d783          	lhu	a5,0(a3)
   13462:	00f7d613          	srli	a2,a5,0xf
   13466:	0017979b          	slliw	a5,a5,0x1
   1346a:	c219                	beqz	a2,13470 <eshup1+0x2e>
   1346c:	00176713          	ori	a4,a4,1
   13470:	17c2                	slli	a5,a5,0x30
   13472:	93c1                	srli	a5,a5,0x30
   13474:	00277613          	andi	a2,a4,2
   13478:	0017e593          	ori	a1,a5,1
   1347c:	da61                	beqz	a2,1344c <eshup1+0xa>
   1347e:	0017171b          	slliw	a4,a4,0x1
   13482:	00b69023          	sh	a1,0(a3)
   13486:	1742                	slli	a4,a4,0x30
   13488:	16f9                	addi	a3,a3,-2
   1348a:	9341                	srli	a4,a4,0x30
   1348c:	fcd519e3          	bne	a0,a3,1345e <eshup1+0x1c>
   13490:	8082                	ret

0000000000013492 <m16m>:
   13492:	1101                	addi	sp,sp,-32
   13494:	6e41                	lui	t3,0x10
   13496:	00011b23          	sh	zero,22(sp)
   1349a:	00011c23          	sh	zero,24(sp)
   1349e:	05e1                	addi	a1,a1,24
   134a0:	083c                	addi	a5,sp,24
   134a2:	00410813          	addi	a6,sp,4
   134a6:	1e7d                	addi	t3,t3,-1
   134a8:	0005d703          	lhu	a4,0(a1)
   134ac:	17f9                	addi	a5,a5,-2
   134ae:	15f9                	addi	a1,a1,-2
   134b0:	e315                	bnez	a4,134d4 <m16m+0x42>
   134b2:	fe079f23          	sh	zero,-2(a5)
   134b6:	ff0799e3          	bne	a5,a6,134a8 <m16m+0x16>
   134ba:	0611                	addi	a2,a2,4
   134bc:	01a10693          	addi	a3,sp,26
   134c0:	0007d703          	lhu	a4,0(a5)
   134c4:	0789                	addi	a5,a5,2
   134c6:	0609                	addi	a2,a2,2
   134c8:	fee61f23          	sh	a4,-2(a2)
   134cc:	fed79ae3          	bne	a5,a3,134c0 <m16m+0x2e>
   134d0:	6105                	addi	sp,sp,32
   134d2:	8082                	ret
   134d4:	02a70733          	mul	a4,a4,a0
   134d8:	0027d883          	lhu	a7,2(a5)
   134dc:	0007d303          	lhu	t1,0(a5)
   134e0:	01c776b3          	and	a3,a4,t3
   134e4:	96c6                	add	a3,a3,a7
   134e6:	8341                	srli	a4,a4,0x10
   134e8:	0106d893          	srli	a7,a3,0x10
   134ec:	971a                	add	a4,a4,t1
   134ee:	9746                	add	a4,a4,a7
   134f0:	01075893          	srli	a7,a4,0x10
   134f4:	00d79123          	sh	a3,2(a5)
   134f8:	00e79023          	sh	a4,0(a5)
   134fc:	ff179f23          	sh	a7,-2(a5)
   13500:	fb0794e3          	bne	a5,a6,134a8 <m16m+0x16>
   13504:	bf5d                	j	134ba <m16m+0x28>

0000000000013506 <emovo.constprop.0>:
   13506:	00055703          	lhu	a4,0(a0)
   1350a:	00255783          	lhu	a5,2(a0)
   1350e:	c319                	beqz	a4,13514 <emovo.constprop.0+0xe>
   13510:	6721                	lui	a4,0x8
   13512:	8fd9                	or	a5,a5,a4
   13514:	00f59923          	sh	a5,18(a1)
   13518:	00255703          	lhu	a4,2(a0)
   1351c:	67a1                	lui	a5,0x8
   1351e:	17fd                	addi	a5,a5,-1
   13520:	00f70f63          	beq	a4,a5,1353e <emovo.constprop.0+0x38>
   13524:	00650793          	addi	a5,a0,6
   13528:	05c1                	addi	a1,a1,16
   1352a:	0561                	addi	a0,a0,24
   1352c:	0007d703          	lhu	a4,0(a5) # 8000 <register_fini-0x80e8>
   13530:	0789                	addi	a5,a5,2
   13532:	15f9                	addi	a1,a1,-2
   13534:	00e59123          	sh	a4,2(a1)
   13538:	fea79ae3          	bne	a5,a0,1352c <emovo.constprop.0+0x26>
   1353c:	8082                	ret
   1353e:	00650793          	addi	a5,a0,6
   13542:	0569                	addi	a0,a0,26
   13544:	0007d703          	lhu	a4,0(a5)
   13548:	0789                	addi	a5,a5,2
   1354a:	e31d                	bnez	a4,13570 <emovo.constprop.0+0x6a>
   1354c:	fea79ce3          	bne	a5,a0,13544 <emovo.constprop.0+0x3e>
   13550:	01258713          	addi	a4,a1,18
   13554:	87ae                	mv	a5,a1
   13556:	0789                	addi	a5,a5,2
   13558:	fe079f23          	sh	zero,-2(a5)
   1355c:	fef71de3          	bne	a4,a5,13556 <emovo.constprop.0+0x50>
   13560:	0125d783          	lhu	a5,18(a1)
   13564:	6721                	lui	a4,0x8
   13566:	177d                	addi	a4,a4,-1
   13568:	8fd9                	or	a5,a5,a4
   1356a:	00f59923          	sh	a5,18(a1)
   1356e:	8082                	ret
   13570:	01058713          	addi	a4,a1,16
   13574:	87ae                	mv	a5,a1
   13576:	0789                	addi	a5,a5,2
   13578:	fe079f23          	sh	zero,-2(a5)
   1357c:	fef71de3          	bne	a4,a5,13576 <emovo.constprop.0+0x70>
   13580:	77f1                	lui	a5,0xffffc
   13582:	00f59823          	sh	a5,16(a1)
   13586:	77e1                	lui	a5,0xffff8
   13588:	fff7c793          	not	a5,a5
   1358c:	00f59923          	sh	a5,18(a1)
   13590:	8082                	ret

0000000000013592 <enormlz>:
   13592:	00455783          	lhu	a5,4(a0)
   13596:	1101                	addi	sp,sp,-32
   13598:	e426                	sd	s1,8(sp)
   1359a:	ec06                	sd	ra,24(sp)
   1359c:	e822                	sd	s0,16(sp)
   1359e:	e04a                	sd	s2,0(sp)
   135a0:	84aa                	mv	s1,a0
   135a2:	efc9                	bnez	a5,1363c <enormlz+0xaa>
   135a4:	00655703          	lhu	a4,6(a0)
   135a8:	4401                	li	s0,0
   135aa:	00f75793          	srli	a5,a4,0xf
   135ae:	e3c1                	bnez	a5,1362e <enormlz+0x9c>
   135b0:	01a50693          	addi	a3,a0,26
   135b4:	0a000613          	li	a2,160
   135b8:	e31d                	bnez	a4,135de <enormlz+0x4c>
   135ba:	00648793          	addi	a5,s1,6
   135be:	a019                	j	135c4 <enormlz+0x32>
   135c0:	0007d703          	lhu	a4,0(a5) # ffffffffffff8000 <__BSS_END__+0xfffffffffffd86e8>
   135c4:	0789                	addi	a5,a5,2
   135c6:	fee79e23          	sh	a4,-4(a5)
   135ca:	fed79be3          	bne	a5,a3,135c0 <enormlz+0x2e>
   135ce:	00049c23          	sh	zero,24(s1)
   135d2:	2441                	addiw	s0,s0,16
   135d4:	04c40d63          	beq	s0,a2,1362e <enormlz+0x9c>
   135d8:	0064d703          	lhu	a4,6(s1)
   135dc:	df79                	beqz	a4,135ba <enormlz+0x28>
   135de:	f0077793          	andi	a5,a4,-256
   135e2:	eb8d                	bnez	a5,13614 <enormlz+0x82>
   135e4:	01848513          	addi	a0,s1,24
   135e8:	00248593          	addi	a1,s1,2
   135ec:	4781                	li	a5,0
   135ee:	872a                	mv	a4,a0
   135f0:	00075683          	lhu	a3,0(a4) # 8000 <register_fini-0x80e8>
   135f4:	1779                	addi	a4,a4,-2
   135f6:	0086961b          	slliw	a2,a3,0x8
   135fa:	8fd1                	or	a5,a5,a2
   135fc:	00f71123          	sh	a5,2(a4)
   13600:	0086d793          	srli	a5,a3,0x8
   13604:	fee596e3          	bne	a1,a4,135f0 <enormlz+0x5e>
   13608:	0064d703          	lhu	a4,6(s1)
   1360c:	2421                	addiw	s0,s0,8
   1360e:	f0077793          	andi	a5,a4,-256
   13612:	dfe9                	beqz	a5,135ec <enormlz+0x5a>
   13614:	0a000913          	li	s2,160
   13618:	a801                	j	13628 <enormlz+0x96>
   1361a:	2405                	addiw	s0,s0,1
   1361c:	e27ff0ef          	jal	ra,13442 <eshup1>
   13620:	00894763          	blt	s2,s0,1362e <enormlz+0x9c>
   13624:	0064d703          	lhu	a4,6(s1)
   13628:	833d                	srli	a4,a4,0xf
   1362a:	8526                	mv	a0,s1
   1362c:	d77d                	beqz	a4,1361a <enormlz+0x88>
   1362e:	60e2                	ld	ra,24(sp)
   13630:	8522                	mv	a0,s0
   13632:	6442                	ld	s0,16(sp)
   13634:	64a2                	ld	s1,8(sp)
   13636:	6902                	ld	s2,0(sp)
   13638:	6105                	addi	sp,sp,32
   1363a:	8082                	ret
   1363c:	f007f713          	andi	a4,a5,-256
   13640:	4401                	li	s0,0
   13642:	e705                	bnez	a4,1366a <enormlz+0xd8>
   13644:	f6f00913          	li	s2,-145
   13648:	a801                	j	13658 <enormlz+0xc6>
   1364a:	347d                	addiw	s0,s0,-1
   1364c:	dabff0ef          	jal	ra,133f6 <eshdn1>
   13650:	fd240fe3          	beq	s0,s2,1362e <enormlz+0x9c>
   13654:	0044d783          	lhu	a5,4(s1)
   13658:	8526                	mv	a0,s1
   1365a:	fbe5                	bnez	a5,1364a <enormlz+0xb8>
   1365c:	60e2                	ld	ra,24(sp)
   1365e:	8522                	mv	a0,s0
   13660:	6442                	ld	s0,16(sp)
   13662:	64a2                	ld	s1,8(sp)
   13664:	6902                	ld	s2,0(sp)
   13666:	6105                	addi	sp,sp,32
   13668:	8082                	ret
   1366a:	00450693          	addi	a3,a0,4
   1366e:	01a50593          	addi	a1,a0,26
   13672:	4701                	li	a4,0
   13674:	a019                	j	1367a <enormlz+0xe8>
   13676:	0006d783          	lhu	a5,0(a3)
   1367a:	0087d61b          	srliw	a2,a5,0x8
   1367e:	8f51                	or	a4,a4,a2
   13680:	0087979b          	slliw	a5,a5,0x8
   13684:	00e69023          	sh	a4,0(a3)
   13688:	03079713          	slli	a4,a5,0x30
   1368c:	0689                	addi	a3,a3,2
   1368e:	9341                	srli	a4,a4,0x30
   13690:	fed593e3          	bne	a1,a3,13676 <enormlz+0xe4>
   13694:	0044d783          	lhu	a5,4(s1)
   13698:	5461                	li	s0,-8
   1369a:	b76d                	j	13644 <enormlz+0xb2>

000000000001369c <eshift.part.0>:
   1369c:	7179                	addi	sp,sp,-48
   1369e:	f022                	sd	s0,32(sp)
   136a0:	ec26                	sd	s1,24(sp)
   136a2:	f406                	sd	ra,40(sp)
   136a4:	e84a                	sd	s2,16(sp)
   136a6:	e44e                	sd	s3,8(sp)
   136a8:	84ae                	mv	s1,a1
   136aa:	842a                	mv	s0,a0
   136ac:	0605cb63          	bltz	a1,13722 <eshift.part.0+0x86>
   136b0:	47bd                	li	a5,15
   136b2:	862e                	mv	a2,a1
   136b4:	0511                	addi	a0,a0,4
   136b6:	01840693          	addi	a3,s0,24
   136ba:	45bd                	li	a1,15
   136bc:	0297d063          	bge	a5,s1,136dc <eshift.part.0+0x40>
   136c0:	87aa                	mv	a5,a0
   136c2:	0027d703          	lhu	a4,2(a5)
   136c6:	0789                	addi	a5,a5,2
   136c8:	fee79f23          	sh	a4,-2(a5)
   136cc:	fef69be3          	bne	a3,a5,136c2 <eshift.part.0+0x26>
   136d0:	00041c23          	sh	zero,24(s0)
   136d4:	3641                	addiw	a2,a2,-16
   136d6:	fec5c5e3          	blt	a1,a2,136c0 <eshift.part.0+0x24>
   136da:	88bd                	andi	s1,s1,15
   136dc:	479d                	li	a5,7
   136de:	0297d463          	bge	a5,s1,13706 <eshift.part.0+0x6a>
   136e2:	01840713          	addi	a4,s0,24
   136e6:	00240593          	addi	a1,s0,2
   136ea:	4781                	li	a5,0
   136ec:	00075683          	lhu	a3,0(a4)
   136f0:	1779                	addi	a4,a4,-2
   136f2:	0086961b          	slliw	a2,a3,0x8
   136f6:	8fd1                	or	a5,a5,a2
   136f8:	00f71123          	sh	a5,2(a4)
   136fc:	0086d793          	srli	a5,a3,0x8
   13700:	fee596e3          	bne	a1,a4,136ec <eshift.part.0+0x50>
   13704:	34e1                	addiw	s1,s1,-8
   13706:	c491                	beqz	s1,13712 <eshift.part.0+0x76>
   13708:	34fd                	addiw	s1,s1,-1
   1370a:	8522                	mv	a0,s0
   1370c:	d37ff0ef          	jal	ra,13442 <eshup1>
   13710:	fce5                	bnez	s1,13708 <eshift.part.0+0x6c>
   13712:	70a2                	ld	ra,40(sp)
   13714:	7402                	ld	s0,32(sp)
   13716:	64e2                	ld	s1,24(sp)
   13718:	6942                	ld	s2,16(sp)
   1371a:	69a2                	ld	s3,8(sp)
   1371c:	4501                	li	a0,0
   1371e:	6145                	addi	sp,sp,48
   13720:	8082                	ret
   13722:	57c5                	li	a5,-15
   13724:	40b0093b          	negw	s2,a1
   13728:	0ef5d263          	bge	a1,a5,1380c <eshift.part.0+0x170>
   1372c:	01850593          	addi	a1,a0,24
   13730:	4981                	li	s3,0
   13732:	00450693          	addi	a3,a0,4
   13736:	463d                	li	a2,15
   13738:	01845703          	lhu	a4,24(s0)
   1373c:	87ae                	mv	a5,a1
   1373e:	00e9e9b3          	or	s3,s3,a4
   13742:	ffe7d703          	lhu	a4,-2(a5)
   13746:	17f9                	addi	a5,a5,-2
   13748:	00e79123          	sh	a4,2(a5)
   1374c:	fed79be3          	bne	a5,a3,13742 <eshift.part.0+0xa6>
   13750:	00041223          	sh	zero,4(s0)
   13754:	3941                	addiw	s2,s2,-16
   13756:	ff2641e3          	blt	a2,s2,13738 <eshift.part.0+0x9c>
   1375a:	5941                	li	s2,-16
   1375c:	5745                	li	a4,-15
   1375e:	4099093b          	subw	s2,s2,s1
   13762:	4781                	li	a5,0
   13764:	08e4ca63          	blt	s1,a4,137f8 <eshift.part.0+0x15c>
   13768:	00f9093b          	addw	s2,s2,a5
   1376c:	479d                	li	a5,7
   1376e:	0527c563          	blt	a5,s2,137b8 <eshift.part.0+0x11c>
   13772:	02090c63          	beqz	s2,137aa <eshift.part.0+0x10e>
   13776:	01845783          	lhu	a5,24(s0)
   1377a:	397d                	addiw	s2,s2,-1
   1377c:	8522                	mv	a0,s0
   1377e:	8b85                	andi	a5,a5,1
   13780:	0137e9b3          	or	s3,a5,s3
   13784:	c73ff0ef          	jal	ra,133f6 <eshdn1>
   13788:	fe0917e3          	bnez	s2,13776 <eshift.part.0+0xda>
   1378c:	0109979b          	slliw	a5,s3,0x10
   13790:	4107d79b          	sraiw	a5,a5,0x10
   13794:	854e                	mv	a0,s3
   13796:	ef89                	bnez	a5,137b0 <eshift.part.0+0x114>
   13798:	1542                	slli	a0,a0,0x30
   1379a:	9141                	srli	a0,a0,0x30
   1379c:	70a2                	ld	ra,40(sp)
   1379e:	7402                	ld	s0,32(sp)
   137a0:	64e2                	ld	s1,24(sp)
   137a2:	6942                	ld	s2,16(sp)
   137a4:	69a2                	ld	s3,8(sp)
   137a6:	6145                	addi	sp,sp,48
   137a8:	8082                	ret
   137aa:	854e                	mv	a0,s3
   137ac:	fe0986e3          	beqz	s3,13798 <eshift.part.0+0xfc>
   137b0:	4505                	li	a0,1
   137b2:	1542                	slli	a0,a0,0x30
   137b4:	9141                	srli	a0,a0,0x30
   137b6:	b7dd                	j	1379c <eshift.part.0+0x100>
   137b8:	0109951b          	slliw	a0,s3,0x10
   137bc:	4105551b          	sraiw	a0,a0,0x10
   137c0:	01844983          	lbu	s3,24(s0)
   137c4:	01a40593          	addi	a1,s0,26
   137c8:	4781                	li	a5,0
   137ca:	01356533          	or	a0,a0,s3
   137ce:	03051993          	slli	s3,a0,0x30
   137d2:	0309d993          	srli	s3,s3,0x30
   137d6:	0006d703          	lhu	a4,0(a3)
   137da:	0689                	addi	a3,a3,2
   137dc:	0087561b          	srliw	a2,a4,0x8
   137e0:	8fd1                	or	a5,a5,a2
   137e2:	0087171b          	slliw	a4,a4,0x8
   137e6:	fef69f23          	sh	a5,-2(a3)
   137ea:	03071793          	slli	a5,a4,0x30
   137ee:	93c1                	srli	a5,a5,0x30
   137f0:	fed593e3          	bne	a1,a3,137d6 <eshift.part.0+0x13a>
   137f4:	3961                	addiw	s2,s2,-8
   137f6:	bfb5                	j	13772 <eshift.part.0+0xd6>
   137f8:	ff097793          	andi	a5,s2,-16
   137fc:	40f007bb          	negw	a5,a5
   13800:	00f9093b          	addw	s2,s2,a5
   13804:	479d                	li	a5,7
   13806:	f727d6e3          	bge	a5,s2,13772 <eshift.part.0+0xd6>
   1380a:	b77d                	j	137b8 <eshift.part.0+0x11c>
   1380c:	57e5                	li	a5,-7
   1380e:	4981                	li	s3,0
   13810:	f6f5d3e3          	bge	a1,a5,13776 <eshift.part.0+0xda>
   13814:	4501                	li	a0,0
   13816:	00440693          	addi	a3,s0,4
   1381a:	b75d                	j	137c0 <eshift.part.0+0x124>

000000000001381c <emovi>:
   1381c:	01255783          	lhu	a5,18(a0)
   13820:	6621                	lui	a2,0x8
   13822:	167d                	addi	a2,a2,-1
   13824:	00f7d79b          	srliw	a5,a5,0xf
   13828:	40f007bb          	negw	a5,a5
   1382c:	00f59023          	sh	a5,0(a1)
   13830:	01255683          	lhu	a3,18(a0)
   13834:	01050793          	addi	a5,a0,16
   13838:	00458713          	addi	a4,a1,4
   1383c:	8ef1                	and	a3,a3,a2
   1383e:	00d59123          	sh	a3,2(a1)
   13842:	0006881b          	sext.w	a6,a3
   13846:	02c68263          	beq	a3,a2,1386a <emovi+0x4e>
   1384a:	00658713          	addi	a4,a1,6
   1384e:	00059223          	sh	zero,4(a1)
   13852:	1579                	addi	a0,a0,-2
   13854:	0007d683          	lhu	a3,0(a5)
   13858:	17f9                	addi	a5,a5,-2
   1385a:	0709                	addi	a4,a4,2
   1385c:	fed71f23          	sh	a3,-2(a4)
   13860:	fef51ae3          	bne	a0,a5,13854 <emovi+0x38>
   13864:	00059c23          	sh	zero,24(a1)
   13868:	8082                	ret
   1386a:	01255683          	lhu	a3,18(a0)
   1386e:	00d876b3          	and	a3,a6,a3
   13872:	01069b63          	bne	a3,a6,13888 <emovi+0x6c>
   13876:	01250813          	addi	a6,a0,18
   1387a:	86aa                	mv	a3,a0
   1387c:	0006d603          	lhu	a2,0(a3)
   13880:	0689                	addi	a3,a3,2
   13882:	ea11                	bnez	a2,13896 <emovi+0x7a>
   13884:	ff069ce3          	bne	a3,a6,1387c <emovi+0x60>
   13888:	05e9                	addi	a1,a1,26
   1388a:	0709                	addi	a4,a4,2
   1388c:	fe071f23          	sh	zero,-2(a4)
   13890:	fee59de3          	bne	a1,a4,1388a <emovi+0x6e>
   13894:	8082                	ret
   13896:	00658713          	addi	a4,a1,6
   1389a:	00059223          	sh	zero,4(a1)
   1389e:	1571                	addi	a0,a0,-4
   138a0:	0007d683          	lhu	a3,0(a5)
   138a4:	17f9                	addi	a5,a5,-2
   138a6:	0709                	addi	a4,a4,2
   138a8:	fed71f23          	sh	a3,-2(a4)
   138ac:	fea79ae3          	bne	a5,a0,138a0 <emovi+0x84>
   138b0:	8082                	ret

00000000000138b2 <ecmp>:
   138b2:	01255783          	lhu	a5,18(a0)
   138b6:	715d                	addi	sp,sp,-80
   138b8:	e0a2                	sd	s0,64(sp)
   138ba:	fff7c793          	not	a5,a5
   138be:	e486                	sd	ra,72(sp)
   138c0:	03179713          	slli	a4,a5,0x31
   138c4:	842e                	mv	s0,a1
   138c6:	eb11                	bnez	a4,138da <ecmp+0x28>
   138c8:	01250693          	addi	a3,a0,18
   138cc:	87aa                	mv	a5,a0
   138ce:	0007d703          	lhu	a4,0(a5)
   138d2:	0789                	addi	a5,a5,2
   138d4:	eb25                	bnez	a4,13944 <ecmp+0x92>
   138d6:	fed79ce3          	bne	a5,a3,138ce <ecmp+0x1c>
   138da:	01245783          	lhu	a5,18(s0)
   138de:	fff7c793          	not	a5,a5
   138e2:	03179713          	slli	a4,a5,0x31
   138e6:	c331                	beqz	a4,1392a <ecmp+0x78>
   138e8:	858a                	mv	a1,sp
   138ea:	f33ff0ef          	jal	ra,1381c <emovi>
   138ee:	100c                	addi	a1,sp,32
   138f0:	8522                	mv	a0,s0
   138f2:	f2bff0ef          	jal	ra,1381c <emovi>
   138f6:	00015583          	lhu	a1,0(sp)
   138fa:	02015783          	lhu	a5,32(sp)
   138fe:	04b78863          	beq	a5,a1,1394e <ecmp+0x9c>
   13902:	00210793          	addi	a5,sp,2
   13906:	02210713          	addi	a4,sp,34
   1390a:	0830                	addi	a2,sp,24
   1390c:	0007d683          	lhu	a3,0(a5)
   13910:	0789                	addi	a5,a5,2
   13912:	eea5                	bnez	a3,1398a <ecmp+0xd8>
   13914:	00075683          	lhu	a3,0(a4)
   13918:	0709                	addi	a4,a4,2
   1391a:	eaa5                	bnez	a3,1398a <ecmp+0xd8>
   1391c:	fef618e3          	bne	a2,a5,1390c <ecmp+0x5a>
   13920:	4501                	li	a0,0
   13922:	60a6                	ld	ra,72(sp)
   13924:	6406                	ld	s0,64(sp)
   13926:	6161                	addi	sp,sp,80
   13928:	8082                	ret
   1392a:	87a2                	mv	a5,s0
   1392c:	0007d703          	lhu	a4,0(a5)
   13930:	01240693          	addi	a3,s0,18
   13934:	0789                	addi	a5,a5,2
   13936:	e719                	bnez	a4,13944 <ecmp+0x92>
   13938:	fad788e3          	beq	a5,a3,138e8 <ecmp+0x36>
   1393c:	0007d703          	lhu	a4,0(a5)
   13940:	0789                	addi	a5,a5,2
   13942:	db7d                	beqz	a4,13938 <ecmp+0x86>
   13944:	60a6                	ld	ra,72(sp)
   13946:	6406                	ld	s0,64(sp)
   13948:	5579                	li	a0,-2
   1394a:	6161                	addi	sp,sp,80
   1394c:	8082                	ret
   1394e:	4505                	li	a0,1
   13950:	e1a9                	bnez	a1,13992 <ecmp+0xe0>
   13952:	00215603          	lhu	a2,2(sp)
   13956:	02215683          	lhu	a3,34(sp)
   1395a:	00210713          	addi	a4,sp,2
   1395e:	02210793          	addi	a5,sp,34
   13962:	182c                	addi	a1,sp,56
   13964:	0789                	addi	a5,a5,2
   13966:	0709                	addi	a4,a4,2
   13968:	00d61c63          	bne	a2,a3,13980 <ecmp+0xce>
   1396c:	fab78ae3          	beq	a5,a1,13920 <ecmp+0x6e>
   13970:	00075603          	lhu	a2,0(a4)
   13974:	0007d683          	lhu	a3,0(a5)
   13978:	0709                	addi	a4,a4,2
   1397a:	0789                	addi	a5,a5,2
   1397c:	fed608e3          	beq	a2,a3,1396c <ecmp+0xba>
   13980:	fac6e1e3          	bltu	a3,a2,13922 <ecmp+0x70>
   13984:	40a0053b          	negw	a0,a0
   13988:	bf69                	j	13922 <ecmp+0x70>
   1398a:	4505                	li	a0,1
   1398c:	d9d9                	beqz	a1,13922 <ecmp+0x70>
   1398e:	557d                	li	a0,-1
   13990:	bf49                	j	13922 <ecmp+0x70>
   13992:	557d                	li	a0,-1
   13994:	bf7d                	j	13952 <ecmp+0xa0>

0000000000013996 <emdnorm>:
   13996:	7139                	addi	sp,sp,-64
   13998:	f822                	sd	s0,48(sp)
   1399a:	f426                	sd	s1,40(sp)
   1399c:	f04a                	sd	s2,32(sp)
   1399e:	ec4e                	sd	s3,24(sp)
   139a0:	e852                	sd	s4,16(sp)
   139a2:	e456                	sd	s5,8(sp)
   139a4:	8936                	mv	s2,a3
   139a6:	84be                	mv	s1,a5
   139a8:	fc06                	sd	ra,56(sp)
   139aa:	842a                	mv	s0,a0
   139ac:	89ae                	mv	s3,a1
   139ae:	8a32                	mv	s4,a2
   139b0:	8aba                	mv	s5,a4
   139b2:	be1ff0ef          	jal	ra,13592 <enormlz>
   139b6:	09000793          	li	a5,144
   139ba:	40a90933          	sub	s2,s2,a0
   139be:	14a7d563          	bge	a5,a0,13b08 <emdnorm+0x172>
   139c2:	67a1                	lui	a5,0x8
   139c4:	17f9                	addi	a5,a5,-2
   139c6:	1b27d663          	bge	a5,s2,13b72 <emdnorm+0x1dc>
   139ca:	180a8463          	beqz	s5,13b52 <emdnorm+0x1bc>
   139ce:	40c8                	lw	a0,4(s1)
   139d0:	409c                	lw	a5,0(s1)
   139d2:	04a78d63          	beq	a5,a0,13a2c <emdnorm+0x96>
   139d6:	01a48713          	addi	a4,s1,26
   139da:	03448793          	addi	a5,s1,52
   139de:	0709                	addi	a4,a4,2
   139e0:	fe071f23          	sh	zero,-2(a4)
   139e4:	fef71de3          	bne	a4,a5,139de <emdnorm+0x48>
   139e8:	03800793          	li	a5,56
   139ec:	28f50b63          	beq	a0,a5,13c82 <emdnorm+0x2ec>
   139f0:	12a7db63          	bge	a5,a0,13b26 <emdnorm+0x190>
   139f4:	04000793          	li	a5,64
   139f8:	24f50b63          	beq	a0,a5,13c4e <emdnorm+0x2b8>
   139fc:	07100793          	li	a5,113
   13a00:	26f51463          	bne	a0,a5,13c68 <emdnorm+0x2d2>
   13a04:	400087b7          	lui	a5,0x40008
   13a08:	17fd                	addi	a5,a5,-1
   13a0a:	4729                	li	a4,10
   13a0c:	c8dc                	sw	a5,20(s1)
   13a0e:	77e1                	lui	a5,0xffff8
   13a10:	c498                	sw	a4,8(s1)
   13a12:	00f49c23          	sh	a5,24(s1)
   13a16:	c4d8                	sw	a4,12(s1)
   13a18:	47a9                	li	a5,10
   13a1a:	6721                	lui	a4,0x8
   13a1c:	07a1                	addi	a5,a5,8
   13a1e:	0786                	slli	a5,a5,0x1
   13a20:	97a6                	add	a5,a5,s1
   13a22:	00e79523          	sh	a4,10(a5) # ffffffffffff800a <__BSS_END__+0xfffffffffffd86f2>
   13a26:	c088                	sw	a0,0(s1)
   13a28:	17205b63          	blez	s2,13b9e <emdnorm+0x208>
   13a2c:	4494                	lw	a3,8(s1)
   13a2e:	0144d603          	lhu	a2,20(s1)
   13a32:	08f00713          	li	a4,143
   13a36:	00169793          	slli	a5,a3,0x1
   13a3a:	00f40833          	add	a6,s0,a5
   13a3e:	00085883          	lhu	a7,0(a6) # ffffffffffff8000 <__BSS_END__+0xfffffffffffd86e8>
   13a42:	00c8f5b3          	and	a1,a7,a2
   13a46:	02a74e63          	blt	a4,a0,13a82 <emdnorm+0xec>
   13a4a:	472d                	li	a4,11
   13a4c:	02d74b63          	blt	a4,a3,13a82 <emdnorm+0xec>
   13a50:	9f15                	subw	a4,a4,a3
   13a52:	1702                	slli	a4,a4,0x20
   13a54:	9301                	srli	a4,a4,0x20
   13a56:	9736                	add	a4,a4,a3
   13a58:	00171693          	slli	a3,a4,0x1
   13a5c:	0789                	addi	a5,a5,2
   13a5e:	00440713          	addi	a4,s0,4
   13a62:	97a2                	add	a5,a5,s0
   13a64:	9736                	add	a4,a4,a3
   13a66:	0007d683          	lhu	a3,0(a5)
   13a6a:	c299                	beqz	a3,13a70 <emdnorm+0xda>
   13a6c:	0015e593          	ori	a1,a1,1
   13a70:	00079023          	sh	zero,0(a5)
   13a74:	0789                	addi	a5,a5,2
   13a76:	fef718e3          	bne	a4,a5,13a66 <emdnorm+0xd0>
   13a7a:	00085883          	lhu	a7,0(a6)
   13a7e:	0144d603          	lhu	a2,20(s1)
   13a82:	fff64613          	not	a2,a2
   13a86:	01167633          	and	a2,a2,a7
   13a8a:	00c81023          	sh	a2,0(a6)
   13a8e:	0164d783          	lhu	a5,22(s1)
   13a92:	00b7f733          	and	a4,a5,a1
   13a96:	c339                	beqz	a4,13adc <emdnorm+0x146>
   13a98:	00b79d63          	bne	a5,a1,13ab2 <emdnorm+0x11c>
   13a9c:	18099663          	bnez	s3,13c28 <emdnorm+0x292>
   13aa0:	44dc                	lw	a5,12(s1)
   13aa2:	0184d703          	lhu	a4,24(s1)
   13aa6:	0786                	slli	a5,a5,0x1
   13aa8:	97a2                	add	a5,a5,s0
   13aaa:	0007d783          	lhu	a5,0(a5)
   13aae:	8ff9                	and	a5,a5,a4
   13ab0:	c795                	beqz	a5,13adc <emdnorm+0x146>
   13ab2:	03248613          	addi	a2,s1,50
   13ab6:	01840693          	addi	a3,s0,24
   13aba:	04f1                	addi	s1,s1,28
   13abc:	4701                	li	a4,0
   13abe:	00065783          	lhu	a5,0(a2) # 8000 <register_fini-0x80e8>
   13ac2:	0006d583          	lhu	a1,0(a3)
   13ac6:	16f9                	addi	a3,a3,-2
   13ac8:	1679                	addi	a2,a2,-2
   13aca:	97ae                	add	a5,a5,a1
   13acc:	97ba                	add	a5,a5,a4
   13ace:	0107d713          	srli	a4,a5,0x10
   13ad2:	00f69123          	sh	a5,2(a3)
   13ad6:	8b05                	andi	a4,a4,1
   13ad8:	fe9613e3          	bne	a2,s1,13abe <emdnorm+0x128>
   13adc:	11205763          	blez	s2,13bea <emdnorm+0x254>
   13ae0:	00445783          	lhu	a5,4(s0)
   13ae4:	e7e5                	bnez	a5,13bcc <emdnorm+0x236>
   13ae6:	67a1                	lui	a5,0x8
   13ae8:	00041c23          	sh	zero,24(s0)
   13aec:	17f9                	addi	a5,a5,-2
   13aee:	0727c463          	blt	a5,s2,13b56 <emdnorm+0x1c0>
   13af2:	01241123          	sh	s2,2(s0)
   13af6:	70e2                	ld	ra,56(sp)
   13af8:	7442                	ld	s0,48(sp)
   13afa:	74a2                	ld	s1,40(sp)
   13afc:	7902                	ld	s2,32(sp)
   13afe:	69e2                	ld	s3,24(sp)
   13b00:	6a42                	ld	s4,16(sp)
   13b02:	6aa2                	ld	s5,8(sp)
   13b04:	6121                	addi	sp,sp,64
   13b06:	8082                	ret
   13b08:	0a095963          	bgez	s2,13bba <emdnorm+0x224>
   13b0c:	f7000793          	li	a5,-144
   13b10:	06f95a63          	bge	s2,a5,13b84 <emdnorm+0x1ee>
   13b14:	00240793          	addi	a5,s0,2
   13b18:	0469                	addi	s0,s0,26
   13b1a:	0789                	addi	a5,a5,2
   13b1c:	fe079f23          	sh	zero,-2(a5) # 7ffe <register_fini-0x80ea>
   13b20:	fe879de3          	bne	a5,s0,13b1a <emdnorm+0x184>
   13b24:	bfc9                	j	13af6 <emdnorm+0x160>
   13b26:	47e1                	li	a5,24
   13b28:	10f50363          	beq	a0,a5,13c2e <emdnorm+0x298>
   13b2c:	03500793          	li	a5,53
   13b30:	12f51c63          	bne	a0,a5,13c68 <emdnorm+0x2d2>
   13b34:	6705                	lui	a4,0x1
   13b36:	040007b7          	lui	a5,0x4000
   13b3a:	4699                	li	a3,6
   13b3c:	7ff78793          	addi	a5,a5,2047 # 40007ff <__BSS_END__+0x3fe0ee7>
   13b40:	80070713          	addi	a4,a4,-2048 # 800 <register_fini-0xf8e8>
   13b44:	c8dc                	sw	a5,20(s1)
   13b46:	c494                	sw	a3,8(s1)
   13b48:	00e49c23          	sh	a4,24(s1)
   13b4c:	c4d4                	sw	a3,12(s1)
   13b4e:	4799                	li	a5,6
   13b50:	b5f1                	j	13a1c <emdnorm+0x86>
   13b52:	00041c23          	sh	zero,24(s0)
   13b56:	77e1                	lui	a5,0xffff8
   13b58:	fff7c793          	not	a5,a5
   13b5c:	00f41123          	sh	a5,2(s0)
   13b60:	00440793          	addi	a5,s0,4
   13b64:	0461                	addi	s0,s0,24
   13b66:	00079023          	sh	zero,0(a5) # ffffffffffff8000 <__BSS_END__+0xfffffffffffd86e8>
   13b6a:	0789                	addi	a5,a5,2
   13b6c:	fef41de3          	bne	s0,a5,13b66 <emdnorm+0x1d0>
   13b70:	b759                	j	13af6 <emdnorm+0x160>
   13b72:	00240793          	addi	a5,s0,2
   13b76:	0469                	addi	s0,s0,26
   13b78:	0789                	addi	a5,a5,2
   13b7a:	fe079f23          	sh	zero,-2(a5)
   13b7e:	fe879de3          	bne	a5,s0,13b78 <emdnorm+0x1e2>
   13b82:	bf95                	j	13af6 <emdnorm+0x160>
   13b84:	0009059b          	sext.w	a1,s2
   13b88:	8522                	mv	a0,s0
   13b8a:	b13ff0ef          	jal	ra,1369c <eshift.part.0>
   13b8e:	c111                	beqz	a0,13b92 <emdnorm+0x1fc>
   13b90:	4985                	li	s3,1
   13b92:	080a8663          	beqz	s5,13c1e <emdnorm+0x288>
   13b96:	40c8                	lw	a0,4(s1)
   13b98:	409c                	lw	a5,0(s1)
   13b9a:	e2a79ee3          	bne	a5,a0,139d6 <emdnorm+0x40>
   13b9e:	09000793          	li	a5,144
   13ba2:	06f50363          	beq	a0,a5,13c08 <emdnorm+0x272>
   13ba6:	01845783          	lhu	a5,24(s0)
   13baa:	8522                	mv	a0,s0
   13bac:	8b85                	andi	a5,a5,1
   13bae:	0137e9b3          	or	s3,a5,s3
   13bb2:	845ff0ef          	jal	ra,133f6 <eshdn1>
   13bb6:	40c8                	lw	a0,4(s1)
   13bb8:	bd95                	j	13a2c <emdnorm+0x96>
   13bba:	f20a86e3          	beqz	s5,13ae6 <emdnorm+0x150>
   13bbe:	40c8                	lw	a0,4(s1)
   13bc0:	409c                	lw	a5,0(s1)
   13bc2:	e0a79ae3          	bne	a5,a0,139d6 <emdnorm+0x40>
   13bc6:	e72043e3          	bgtz	s2,13a2c <emdnorm+0x96>
   13bca:	bfd1                	j	13b9e <emdnorm+0x208>
   13bcc:	8522                	mv	a0,s0
   13bce:	829ff0ef          	jal	ra,133f6 <eshdn1>
   13bd2:	67a1                	lui	a5,0x8
   13bd4:	0905                	addi	s2,s2,1
   13bd6:	00041c23          	sh	zero,24(s0)
   13bda:	17f9                	addi	a5,a5,-2
   13bdc:	f727cde3          	blt	a5,s2,13b56 <emdnorm+0x1c0>
   13be0:	f00959e3          	bgez	s2,13af2 <emdnorm+0x15c>
   13be4:	00041123          	sh	zero,2(s0)
   13be8:	b739                	j	13af6 <emdnorm+0x160>
   13bea:	09000793          	li	a5,144
   13bee:	00f50563          	beq	a0,a5,13bf8 <emdnorm+0x262>
   13bf2:	8522                	mv	a0,s0
   13bf4:	84fff0ef          	jal	ra,13442 <eshup1>
   13bf8:	00445783          	lhu	a5,4(s0)
   13bfc:	fbe1                	bnez	a5,13bcc <emdnorm+0x236>
   13bfe:	00041c23          	sh	zero,24(s0)
   13c02:	fe0941e3          	bltz	s2,13be4 <emdnorm+0x24e>
   13c06:	b5f5                	j	13af2 <emdnorm+0x15c>
   13c08:	0084a803          	lw	a6,8(s1)
   13c0c:	0144d603          	lhu	a2,20(s1)
   13c10:	0806                	slli	a6,a6,0x1
   13c12:	9822                	add	a6,a6,s0
   13c14:	00085883          	lhu	a7,0(a6)
   13c18:	011675b3          	and	a1,a2,a7
   13c1c:	b59d                	j	13a82 <emdnorm+0xec>
   13c1e:	00041c23          	sh	zero,24(s0)
   13c22:	00041123          	sh	zero,2(s0)
   13c26:	bdc1                	j	13af6 <emdnorm+0x160>
   13c28:	e80a05e3          	beqz	s4,13ab2 <emdnorm+0x11c>
   13c2c:	bd45                	j	13adc <emdnorm+0x146>
   13c2e:	008007b7          	lui	a5,0x800
   13c32:	0ff78793          	addi	a5,a5,255 # 8000ff <__BSS_END__+0x7e07e7>
   13c36:	4711                	li	a4,4
   13c38:	c8dc                	sw	a5,20(s1)
   13c3a:	10000793          	li	a5,256
   13c3e:	c498                	sw	a4,8(s1)
   13c40:	00f49c23          	sh	a5,24(s1)
   13c44:	c4d8                	sw	a4,12(s1)
   13c46:	4791                	li	a5,4
   13c48:	10000713          	li	a4,256
   13c4c:	bbc1                	j	13a1c <emdnorm+0x86>
   13c4e:	479d                	li	a5,7
   13c50:	c49c                	sw	a5,8(s1)
   13c52:	800107b7          	lui	a5,0x80010
   13c56:	17fd                	addi	a5,a5,-1
   13c58:	c8dc                	sw	a5,20(s1)
   13c5a:	4785                	li	a5,1
   13c5c:	00f49c23          	sh	a5,24(s1)
   13c60:	4799                	li	a5,6
   13c62:	c4dc                	sw	a5,12(s1)
   13c64:	4705                	li	a4,1
   13c66:	bb5d                	j	13a1c <emdnorm+0x86>
   13c68:	47b1                	li	a5,12
   13c6a:	c49c                	sw	a5,8(s1)
   13c6c:	800107b7          	lui	a5,0x80010
   13c70:	17fd                	addi	a5,a5,-1
   13c72:	c8dc                	sw	a5,20(s1)
   13c74:	4785                	li	a5,1
   13c76:	00f49c23          	sh	a5,24(s1)
   13c7a:	47ad                	li	a5,11
   13c7c:	c4dc                	sw	a5,12(s1)
   13c7e:	4705                	li	a4,1
   13c80:	bb71                	j	13a1c <emdnorm+0x86>
   13c82:	008007b7          	lui	a5,0x800
   13c86:	0ff78793          	addi	a5,a5,255 # 8000ff <__BSS_END__+0x7e07e7>
   13c8a:	4719                	li	a4,6
   13c8c:	c8dc                	sw	a5,20(s1)
   13c8e:	10000793          	li	a5,256
   13c92:	c498                	sw	a4,8(s1)
   13c94:	00f49c23          	sh	a5,24(s1)
   13c98:	c4d8                	sw	a4,12(s1)
   13c9a:	4799                	li	a5,6
   13c9c:	10000713          	li	a4,256
   13ca0:	bbb5                	j	13a1c <emdnorm+0x86>

0000000000013ca2 <eiremain>:
   13ca2:	711d                	addi	sp,sp,-96
   13ca4:	e0ca                	sd	s2,64(sp)
   13ca6:	fc4e                	sd	s3,56(sp)
   13ca8:	892e                	mv	s2,a1
   13caa:	00255983          	lhu	s3,2(a0)
   13cae:	ec86                	sd	ra,88(sp)
   13cb0:	e8a2                	sd	s0,80(sp)
   13cb2:	e4a6                	sd	s1,72(sp)
   13cb4:	f852                	sd	s4,48(sp)
   13cb6:	84b2                	mv	s1,a2
   13cb8:	ec5e                	sd	s7,24(sp)
   13cba:	f456                	sd	s5,40(sp)
   13cbc:	f05a                	sd	s6,32(sp)
   13cbe:	e862                	sd	s8,16(sp)
   13cc0:	e466                	sd	s9,8(sp)
   13cc2:	e06a                	sd	s10,0(sp)
   13cc4:	8baa                	mv	s7,a0
   13cc6:	8cdff0ef          	jal	ra,13592 <enormlz>
   13cca:	00295403          	lhu	s0,2(s2)
   13cce:	87aa                	mv	a5,a0
   13cd0:	854a                	mv	a0,s2
   13cd2:	40f989b3          	sub	s3,s3,a5
   13cd6:	03448a13          	addi	s4,s1,52
   13cda:	8b9ff0ef          	jal	ra,13592 <enormlz>
   13cde:	8c09                	sub	s0,s0,a0
   13ce0:	04e48713          	addi	a4,s1,78
   13ce4:	87d2                	mv	a5,s4
   13ce6:	0789                	addi	a5,a5,2
   13ce8:	fe079f23          	sh	zero,-2(a5)
   13cec:	fee79de3          	bne	a5,a4,13ce6 <eiremain+0x44>
   13cf0:	07344a63          	blt	s0,s3,13d64 <eiremain+0xc2>
   13cf4:	004b8b13          	addi	s6,s7,4
   13cf8:	00490a93          	addi	s5,s2,4
   13cfc:	01ab8c13          	addi	s8,s7,26
   13d00:	00290d13          	addi	s10,s2,2
   13d04:	8756                	mv	a4,s5
   13d06:	87da                	mv	a5,s6
   13d08:	0007d603          	lhu	a2,0(a5)
   13d0c:	00075683          	lhu	a3,0(a4)
   13d10:	0789                	addi	a5,a5,2
   13d12:	0709                	addi	a4,a4,2
   13d14:	06d61c63          	bne	a2,a3,13d8c <eiremain+0xea>
   13d18:	ff8798e3          	bne	a5,s8,13d08 <eiremain+0x66>
   13d1c:	018b8613          	addi	a2,s7,24
   13d20:	01890713          	addi	a4,s2,24
   13d24:	4681                	li	a3,0
   13d26:	00075783          	lhu	a5,0(a4)
   13d2a:	00065583          	lhu	a1,0(a2)
   13d2e:	1779                	addi	a4,a4,-2
   13d30:	8f95                	sub	a5,a5,a3
   13d32:	8f8d                	sub	a5,a5,a1
   13d34:	0107d693          	srli	a3,a5,0x10
   13d38:	00f71123          	sh	a5,2(a4)
   13d3c:	8a85                	andi	a3,a3,1
   13d3e:	1679                	addi	a2,a2,-2
   13d40:	feed13e3          	bne	s10,a4,13d26 <eiremain+0x84>
   13d44:	4c85                	li	s9,1
   13d46:	8552                	mv	a0,s4
   13d48:	efaff0ef          	jal	ra,13442 <eshup1>
   13d4c:	04c4d783          	lhu	a5,76(s1)
   13d50:	147d                	addi	s0,s0,-1
   13d52:	854a                	mv	a0,s2
   13d54:	00fce7b3          	or	a5,s9,a5
   13d58:	04f49623          	sh	a5,76(s1)
   13d5c:	ee6ff0ef          	jal	ra,13442 <eshup1>
   13d60:	fb3452e3          	bge	s0,s3,13d04 <eiremain+0x62>
   13d64:	86a2                	mv	a3,s0
   13d66:	6446                	ld	s0,80(sp)
   13d68:	60e6                	ld	ra,88(sp)
   13d6a:	79e2                	ld	s3,56(sp)
   13d6c:	7a42                	ld	s4,48(sp)
   13d6e:	7aa2                	ld	s5,40(sp)
   13d70:	7b02                	ld	s6,32(sp)
   13d72:	6be2                	ld	s7,24(sp)
   13d74:	6c42                	ld	s8,16(sp)
   13d76:	6ca2                	ld	s9,8(sp)
   13d78:	6d02                	ld	s10,0(sp)
   13d7a:	87a6                	mv	a5,s1
   13d7c:	854a                	mv	a0,s2
   13d7e:	64a6                	ld	s1,72(sp)
   13d80:	6906                	ld	s2,64(sp)
   13d82:	4701                	li	a4,0
   13d84:	4601                	li	a2,0
   13d86:	4581                	li	a1,0
   13d88:	6125                	addi	sp,sp,96
   13d8a:	b131                	j	13996 <emdnorm>
   13d8c:	4c81                	li	s9,0
   13d8e:	fac6ece3          	bltu	a3,a2,13d46 <eiremain+0xa4>
   13d92:	b769                	j	13d1c <eiremain+0x7a>

0000000000013d94 <emul>:
   13d94:	7131                	addi	sp,sp,-192
   13d96:	f526                	sd	s1,168(sp)
   13d98:	84aa                	mv	s1,a0
   13d9a:	01255503          	lhu	a0,18(a0)
   13d9e:	6721                	lui	a4,0x8
   13da0:	177d                	addi	a4,a4,-1
   13da2:	f922                	sd	s0,176(sp)
   13da4:	f14a                	sd	s2,160(sp)
   13da6:	e952                	sd	s4,144(sp)
   13da8:	fd06                	sd	ra,184(sp)
   13daa:	ed4e                	sd	s3,152(sp)
   13dac:	e556                	sd	s5,136(sp)
   13dae:	e15a                	sd	s6,128(sp)
   13db0:	fcde                	sd	s7,120(sp)
   13db2:	f8e2                	sd	s8,112(sp)
   13db4:	f4e6                	sd	s9,104(sp)
   13db6:	8d79                	and	a0,a0,a4
   13db8:	892e                	mv	s2,a1
   13dba:	8432                	mv	s0,a2
   13dbc:	8a36                	mv	s4,a3
   13dbe:	00e51c63          	bne	a0,a4,13dd6 <emul+0x42>
   13dc2:	01248993          	addi	s3,s1,18
   13dc6:	8726                	mv	a4,s1
   13dc8:	00075603          	lhu	a2,0(a4) # 8000 <register_fini-0x80e8>
   13dcc:	0709                	addi	a4,a4,2
   13dce:	12061463          	bnez	a2,13ef6 <emul+0x162>
   13dd2:	ff371be3          	bne	a4,s3,13dc8 <emul+0x34>
   13dd6:	01295603          	lhu	a2,18(s2)
   13dda:	67a1                	lui	a5,0x8
   13ddc:	17fd                	addi	a5,a5,-1
   13dde:	00f675b3          	and	a1,a2,a5
   13de2:	08f59a63          	bne	a1,a5,13e76 <emul+0xe2>
   13de6:	01290693          	addi	a3,s2,18
   13dea:	874a                	mv	a4,s2
   13dec:	00075783          	lhu	a5,0(a4)
   13df0:	0709                	addi	a4,a4,2
   13df2:	1a079263          	bnez	a5,13f96 <emul+0x202>
   13df6:	fee69be3          	bne	a3,a4,13dec <emul+0x58>
   13dfa:	67a1                	lui	a5,0x8
   13dfc:	17fd                	addi	a5,a5,-1
   13dfe:	06f50e63          	beq	a0,a5,13e7a <emul+0xe6>
   13e02:	87ca                	mv	a5,s2
   13e04:	0007d703          	lhu	a4,0(a5) # 8000 <register_fini-0x80e8>
   13e08:	0789                	addi	a5,a5,2
   13e0a:	2e071f63          	bnez	a4,14108 <emul+0x374>
   13e0e:	fef69be3          	bne	a3,a5,13e04 <emul+0x70>
   13e12:	65f5                	lui	a1,0x1d
   13e14:	b4858593          	addi	a1,a1,-1208 # 1cb48 <ezero>
   13e18:	8526                	mv	a0,s1
   13e1a:	a99ff0ef          	jal	ra,138b2 <ecmp>
   13e1e:	18050763          	beqz	a0,13fac <emul+0x218>
   13e22:	0124d503          	lhu	a0,18(s1)
   13e26:	01295603          	lhu	a2,18(s2)
   13e2a:	67a1                	lui	a5,0x8
   13e2c:	17fd                	addi	a5,a5,-1
   13e2e:	00f576b3          	and	a3,a0,a5
   13e32:	00f67733          	and	a4,a2,a5
   13e36:	8836                	mv	a6,a3
   13e38:	0007059b          	sext.w	a1,a4
   13e3c:	0ef69663          	bne	a3,a5,13f28 <emul+0x194>
   13e40:	01248993          	addi	s3,s1,18
   13e44:	0007059b          	sext.w	a1,a4
   13e48:	87a6                	mv	a5,s1
   13e4a:	0007d703          	lhu	a4,0(a5) # 8000 <register_fini-0x80e8>
   13e4e:	0789                	addi	a5,a5,2
   13e50:	eb71                	bnez	a4,13f24 <emul+0x190>
   13e52:	fef99ce3          	bne	s3,a5,13e4a <emul+0xb6>
   13e56:	0004d783          	lhu	a5,0(s1)
   13e5a:	0489                	addi	s1,s1,2
   13e5c:	26079d63          	bnez	a5,140d6 <emul+0x342>
   13e60:	ff349be3          	bne	s1,s3,13e56 <emul+0xc2>
   13e64:	00f55893          	srli	a7,a0,0xf
   13e68:	6721                	lui	a4,0x8
   13e6a:	177d                	addi	a4,a4,-1
   13e6c:	0ee59c63          	bne	a1,a4,13f64 <emul+0x1d0>
   13e70:	01290693          	addi	a3,s2,18
   13e74:	a0cd                	j	13f56 <emul+0x1c2>
   13e76:	04f51263          	bne	a0,a5,13eba <emul+0x126>
   13e7a:	01248993          	addi	s3,s1,18
   13e7e:	87a6                	mv	a5,s1
   13e80:	0007d703          	lhu	a4,0(a5)
   13e84:	0789                	addi	a5,a5,2
   13e86:	24071a63          	bnez	a4,140da <emul+0x346>
   13e8a:	fef99be3          	bne	s3,a5,13e80 <emul+0xec>
   13e8e:	65f5                	lui	a1,0x1d
   13e90:	b4858593          	addi	a1,a1,-1208 # 1cb48 <ezero>
   13e94:	854a                	mv	a0,s2
   13e96:	a1dff0ef          	jal	ra,138b2 <ecmp>
   13e9a:	10050963          	beqz	a0,13fac <emul+0x218>
   13e9e:	01295603          	lhu	a2,18(s2)
   13ea2:	67a1                	lui	a5,0x8
   13ea4:	17fd                	addi	a5,a5,-1
   13ea6:	00f675b3          	and	a1,a2,a5
   13eaa:	12f58263          	beq	a1,a5,13fce <emul+0x23a>
   13eae:	0124d503          	lhu	a0,18(s1)
   13eb2:	00f57733          	and	a4,a0,a5
   13eb6:	f8f709e3          	beq	a4,a5,13e48 <emul+0xb4>
   13eba:	8526                	mv	a0,s1
   13ebc:	858a                	mv	a1,sp
   13ebe:	95fff0ef          	jal	ra,1381c <emovi>
   13ec2:	100c                	addi	a1,sp,32
   13ec4:	854a                	mv	a0,s2
   13ec6:	957ff0ef          	jal	ra,1381c <emovi>
   13eca:	00215483          	lhu	s1,2(sp)
   13ece:	02215983          	lhu	s3,34(sp)
   13ed2:	10049163          	bnez	s1,13fd4 <emul+0x240>
   13ed6:	005c                	addi	a5,sp,4
   13ed8:	0834                	addi	a3,sp,24
   13eda:	20d78763          	beq	a5,a3,140e8 <emul+0x354>
   13ede:	0007d703          	lhu	a4,0(a5) # 8000 <register_fini-0x80e8>
   13ee2:	0789                	addi	a5,a5,2
   13ee4:	db7d                	beqz	a4,13eda <emul+0x146>
   13ee6:	850a                	mv	a0,sp
   13ee8:	eaaff0ef          	jal	ra,13592 <enormlz>
   13eec:	02215703          	lhu	a4,34(sp)
   13ef0:	40a004b3          	neg	s1,a0
   13ef4:	a0cd                	j	13fd6 <emul+0x242>
   13ef6:	01448713          	addi	a4,s1,20
   13efa:	0004d783          	lhu	a5,0(s1)
   13efe:	0489                	addi	s1,s1,2
   13f00:	0409                	addi	s0,s0,2
   13f02:	fef41f23          	sh	a5,-2(s0)
   13f06:	fee49ae3          	bne	s1,a4,13efa <emul+0x166>
   13f0a:	70ea                	ld	ra,184(sp)
   13f0c:	744a                	ld	s0,176(sp)
   13f0e:	74aa                	ld	s1,168(sp)
   13f10:	790a                	ld	s2,160(sp)
   13f12:	69ea                	ld	s3,152(sp)
   13f14:	6a4a                	ld	s4,144(sp)
   13f16:	6aaa                	ld	s5,136(sp)
   13f18:	6b0a                	ld	s6,128(sp)
   13f1a:	7be6                	ld	s7,120(sp)
   13f1c:	7c46                	ld	s8,112(sp)
   13f1e:	7ca6                	ld	s9,104(sp)
   13f20:	6129                	addi	sp,sp,192
   13f22:	8082                	ret
   13f24:	6821                	lui	a6,0x8
   13f26:	187d                	addi	a6,a6,-1
   13f28:	67a1                	lui	a5,0x8
   13f2a:	17fd                	addi	a5,a5,-1
   13f2c:	f8f597e3          	bne	a1,a5,13eba <emul+0x126>
   13f30:	01290693          	addi	a3,s2,18
   13f34:	87ca                	mv	a5,s2
   13f36:	0007d703          	lhu	a4,0(a5) # 8000 <register_fini-0x80e8>
   13f3a:	0789                	addi	a5,a5,2
   13f3c:	ff3d                	bnez	a4,13eba <emul+0x126>
   13f3e:	fed79ce3          	bne	a5,a3,13f36 <emul+0x1a2>
   13f42:	6721                	lui	a4,0x8
   13f44:	2801                	sext.w	a6,a6
   13f46:	177d                	addi	a4,a4,-1
   13f48:	00f55893          	srli	a7,a0,0xf
   13f4c:	01248993          	addi	s3,s1,18
   13f50:	85c2                	mv	a1,a6
   13f52:	f0e802e3          	beq	a6,a4,13e56 <emul+0xc2>
   13f56:	00095703          	lhu	a4,0(s2)
   13f5a:	0909                	addi	s2,s2,2
   13f5c:	16071b63          	bnez	a4,140d2 <emul+0x33e>
   13f60:	fed91be3          	bne	s2,a3,13f56 <emul+0x1c2>
   13f64:	00f65793          	srli	a5,a2,0xf
   13f68:	411787b3          	sub	a5,a5,a7
   13f6c:	00f037b3          	snez	a5,a5
   13f70:	07be                	slli	a5,a5,0xf
   13f72:	00f41923          	sh	a5,18(s0)
   13f76:	01240713          	addi	a4,s0,18
   13f7a:	87a2                	mv	a5,s0
   13f7c:	0789                	addi	a5,a5,2
   13f7e:	fe079f23          	sh	zero,-2(a5)
   13f82:	fee79de3          	bne	a5,a4,13f7c <emul+0x1e8>
   13f86:	01245783          	lhu	a5,18(s0)
   13f8a:	6721                	lui	a4,0x8
   13f8c:	177d                	addi	a4,a4,-1
   13f8e:	8fd9                	or	a5,a5,a4
   13f90:	00f41923          	sh	a5,18(s0)
   13f94:	bf9d                	j	13f0a <emul+0x176>
   13f96:	01440713          	addi	a4,s0,20
   13f9a:	00095783          	lhu	a5,0(s2)
   13f9e:	0409                	addi	s0,s0,2
   13fa0:	0909                	addi	s2,s2,2
   13fa2:	fef41f23          	sh	a5,-2(s0)
   13fa6:	fee41ae3          	bne	s0,a4,13f9a <emul+0x206>
   13faa:	b785                	j	13f0a <emul+0x176>
   13fac:	01040713          	addi	a4,s0,16
   13fb0:	87a2                	mv	a5,s0
   13fb2:	0789                	addi	a5,a5,2
   13fb4:	fe079f23          	sh	zero,-2(a5)
   13fb8:	fee79de3          	bne	a5,a4,13fb2 <emul+0x21e>
   13fbc:	77f1                	lui	a5,0xffffc
   13fbe:	00f41823          	sh	a5,16(s0)
   13fc2:	77e1                	lui	a5,0xffff8
   13fc4:	fff7c793          	not	a5,a5
   13fc8:	00f41923          	sh	a5,18(s0)
   13fcc:	bf3d                	j	13f0a <emul+0x176>
   13fce:	01290693          	addi	a3,s2,18
   13fd2:	bd05                	j	13e02 <emul+0x6e>
   13fd4:	874e                	mv	a4,s3
   13fd6:	894e                	mv	s2,s3
   13fd8:	105c                	addi	a5,sp,36
   13fda:	1834                	addi	a3,sp,56
   13fdc:	ef11                	bnez	a4,13ff8 <emul+0x264>
   13fde:	10d78d63          	beq	a5,a3,140f8 <emul+0x364>
   13fe2:	0007d703          	lhu	a4,0(a5) # ffffffffffff8000 <__BSS_END__+0xfffffffffffd86e8>
   13fe6:	0789                	addi	a5,a5,2
   13fe8:	db7d                	beqz	a4,13fde <emul+0x24a>
   13fea:	1008                	addi	a0,sp,32
   13fec:	da6ff0ef          	jal	ra,13592 <enormlz>
   13ff0:	02215703          	lhu	a4,34(sp)
   13ff4:	40a98933          	sub	s2,s3,a0
   13ff8:	02015783          	lhu	a5,32(sp)
   13ffc:	038a0993          	addi	s3,s4,56
   14000:	02ea1b23          	sh	a4,54(s4)
   14004:	02fa1a23          	sh	a5,52(s4)
   14008:	04ea0713          	addi	a4,s4,78
   1400c:	87ce                	mv	a5,s3
   1400e:	00079023          	sh	zero,0(a5)
   14012:	0789                	addi	a5,a5,2
   14014:	fef71de3          	bne	a4,a5,1400e <emul+0x27a>
   14018:	04ca0c13          	addi	s8,s4,76
   1401c:	4b81                	li	s7,0
   1401e:	01810a93          	addi	s5,sp,24
   14022:	00410c93          	addi	s9,sp,4
   14026:	04210b13          	addi	s6,sp,66
   1402a:	000ad503          	lhu	a0,0(s5)
   1402e:	1af9                	addi	s5,s5,-2
   14030:	e935                	bnez	a0,140a4 <emul+0x310>
   14032:	04ca5783          	lhu	a5,76(s4)
   14036:	8762                	mv	a4,s8
   14038:	00fbebb3          	or	s7,s7,a5
   1403c:	ffe75603          	lhu	a2,-2(a4) # 7ffe <register_fini-0x80ea>
   14040:	1779                	addi	a4,a4,-2
   14042:	00c71123          	sh	a2,2(a4)
   14046:	fee99be3          	bne	s3,a4,1403c <emul+0x2a8>
   1404a:	020a1c23          	sh	zero,56(s4)
   1404e:	fd9a9ee3          	bne	s5,s9,1402a <emul+0x296>
   14052:	034a0713          	addi	a4,s4,52
   14056:	101c                	addi	a5,sp,32
   14058:	03a10613          	addi	a2,sp,58
   1405c:	00075683          	lhu	a3,0(a4)
   14060:	0789                	addi	a5,a5,2
   14062:	0709                	addi	a4,a4,2
   14064:	fed79f23          	sh	a3,-2(a5)
   14068:	fef61ae3          	bne	a2,a5,1405c <emul+0x2c8>
   1406c:	76f1                	lui	a3,0xffffc
   1406e:	94ca                	add	s1,s1,s2
   14070:	0689                	addi	a3,a3,2
   14072:	85de                	mv	a1,s7
   14074:	1008                	addi	a0,sp,32
   14076:	87d2                	mv	a5,s4
   14078:	04000713          	li	a4,64
   1407c:	96a6                	add	a3,a3,s1
   1407e:	4601                	li	a2,0
   14080:	917ff0ef          	jal	ra,13996 <emdnorm>
   14084:	02015703          	lhu	a4,32(sp)
   14088:	00015783          	lhu	a5,0(sp)
   1408c:	85a2                	mv	a1,s0
   1408e:	1008                	addi	a0,sp,32
   14090:	8f99                	sub	a5,a5,a4
   14092:	00f037b3          	snez	a5,a5
   14096:	40f007bb          	negw	a5,a5
   1409a:	02f11023          	sh	a5,32(sp)
   1409e:	c68ff0ef          	jal	ra,13506 <emovo.constprop.0>
   140a2:	b5a5                	j	13f0a <emul+0x176>
   140a4:	0090                	addi	a2,sp,64
   140a6:	100c                	addi	a1,sp,32
   140a8:	beaff0ef          	jal	ra,13492 <m16m>
   140ac:	8562                	mv	a0,s8
   140ae:	4581                	li	a1,0
   140b0:	08b0                	addi	a2,sp,88
   140b2:	00055783          	lhu	a5,0(a0)
   140b6:	00065703          	lhu	a4,0(a2)
   140ba:	1579                	addi	a0,a0,-2
   140bc:	1679                	addi	a2,a2,-2
   140be:	973e                	add	a4,a4,a5
   140c0:	972e                	add	a4,a4,a1
   140c2:	01075593          	srli	a1,a4,0x10
   140c6:	00e51123          	sh	a4,2(a0)
   140ca:	8985                	andi	a1,a1,1
   140cc:	ff6613e3          	bne	a2,s6,140b2 <emul+0x31e>
   140d0:	b78d                	j	14032 <emul+0x29e>
   140d2:	4781                	li	a5,0
   140d4:	bd51                	j	13f68 <emul+0x1d4>
   140d6:	4881                	li	a7,0
   140d8:	bb41                	j	13e68 <emul+0xd4>
   140da:	67a1                	lui	a5,0x8
   140dc:	17fd                	addi	a5,a5,-1
   140de:	eef588e3          	beq	a1,a5,13fce <emul+0x23a>
   140e2:	0124d503          	lhu	a0,18(s1)
   140e6:	b38d                	j	13e48 <emul+0xb4>
   140e8:	01440793          	addi	a5,s0,20
   140ec:	0409                	addi	s0,s0,2
   140ee:	fe041f23          	sh	zero,-2(s0)
   140f2:	fe879de3          	bne	a5,s0,140ec <emul+0x358>
   140f6:	bd11                	j	13f0a <emul+0x176>
   140f8:	01440793          	addi	a5,s0,20
   140fc:	0409                	addi	s0,s0,2
   140fe:	fe041f23          	sh	zero,-2(s0)
   14102:	fe879de3          	bne	a5,s0,140fc <emul+0x368>
   14106:	b511                	j	13f0a <emul+0x176>
   14108:	0124d503          	lhu	a0,18(s1)
   1410c:	67a1                	lui	a5,0x8
   1410e:	17fd                	addi	a5,a5,-1
   14110:	00f575b3          	and	a1,a0,a5
   14114:	01248993          	addi	s3,s1,18
   14118:	882e                	mv	a6,a1
   1411a:	e0f59de3          	bne	a1,a5,13f34 <emul+0x1a0>
   1411e:	b32d                	j	13e48 <emul+0xb4>

0000000000014120 <ediv>:
   14120:	01255783          	lhu	a5,18(a0)
   14124:	7115                	addi	sp,sp,-224
   14126:	e9a2                	sd	s0,208(sp)
   14128:	fff7c793          	not	a5,a5
   1412c:	e5a6                	sd	s1,200(sp)
   1412e:	e1ca                	sd	s2,192(sp)
   14130:	fd4e                	sd	s3,184(sp)
   14132:	ed86                	sd	ra,216(sp)
   14134:	f952                	sd	s4,176(sp)
   14136:	f556                	sd	s5,168(sp)
   14138:	f15a                	sd	s6,160(sp)
   1413a:	ed5e                	sd	s7,152(sp)
   1413c:	e962                	sd	s8,144(sp)
   1413e:	e566                	sd	s9,136(sp)
   14140:	e16a                	sd	s10,128(sp)
   14142:	fcee                	sd	s11,120(sp)
   14144:	03179713          	slli	a4,a5,0x31
   14148:	84aa                	mv	s1,a0
   1414a:	892e                	mv	s2,a1
   1414c:	8432                	mv	s0,a2
   1414e:	89b6                	mv	s3,a3
   14150:	eb19                	bnez	a4,14166 <ediv+0x46>
   14152:	01250693          	addi	a3,a0,18
   14156:	87aa                	mv	a5,a0
   14158:	0007d703          	lhu	a4,0(a5) # 8000 <register_fini-0x80e8>
   1415c:	0789                	addi	a5,a5,2
   1415e:	24071063          	bnez	a4,1439e <ediv+0x27e>
   14162:	fed79be3          	bne	a5,a3,14158 <ediv+0x38>
   14166:	01295783          	lhu	a5,18(s2)
   1416a:	fff7c793          	not	a5,a5
   1416e:	03179713          	slli	a4,a5,0x31
   14172:	eb19                	bnez	a4,14188 <ediv+0x68>
   14174:	01290693          	addi	a3,s2,18
   14178:	87ca                	mv	a5,s2
   1417a:	0007d703          	lhu	a4,0(a5)
   1417e:	0789                	addi	a5,a5,2
   14180:	22071a63          	bnez	a4,143b4 <ediv+0x294>
   14184:	fed79be3          	bne	a5,a3,1417a <ediv+0x5a>
   14188:	6a75                	lui	s4,0x1d
   1418a:	b48a0593          	addi	a1,s4,-1208 # 1cb48 <ezero>
   1418e:	8526                	mv	a0,s1
   14190:	f22ff0ef          	jal	ra,138b2 <ecmp>
   14194:	22050b63          	beqz	a0,143ca <ediv+0x2aa>
   14198:	0124d603          	lhu	a2,18(s1)
   1419c:	01295803          	lhu	a6,18(s2)
   141a0:	67a1                	lui	a5,0x8
   141a2:	17fd                	addi	a5,a5,-1
   141a4:	00f675b3          	and	a1,a2,a5
   141a8:	00f876b3          	and	a3,a6,a5
   141ac:	06f59a63          	bne	a1,a5,14220 <ediv+0x100>
   141b0:	01248513          	addi	a0,s1,18
   141b4:	87a6                	mv	a5,s1
   141b6:	0007d703          	lhu	a4,0(a5) # 8000 <register_fini-0x80e8>
   141ba:	0789                	addi	a5,a5,2
   141bc:	e325                	bnez	a4,1421c <ediv+0xfc>
   141be:	fea79ce3          	bne	a5,a0,141b6 <ediv+0x96>
   141c2:	67a1                	lui	a5,0x8
   141c4:	17fd                	addi	a5,a5,-1
   141c6:	20f69c63          	bne	a3,a5,143de <ediv+0x2be>
   141ca:	01290693          	addi	a3,s2,18
   141ce:	87ca                	mv	a5,s2
   141d0:	0007d703          	lhu	a4,0(a5) # 8000 <register_fini-0x80e8>
   141d4:	0789                	addi	a5,a5,2
   141d6:	36071563          	bnez	a4,14540 <ediv+0x420>
   141da:	fed79be3          	bne	a5,a3,141d0 <ediv+0xb0>
   141de:	01040713          	addi	a4,s0,16
   141e2:	87a2                	mv	a5,s0
   141e4:	0789                	addi	a5,a5,2
   141e6:	fe079f23          	sh	zero,-2(a5)
   141ea:	fee79de3          	bne	a5,a4,141e4 <ediv+0xc4>
   141ee:	77f1                	lui	a5,0xffffc
   141f0:	00f41823          	sh	a5,16(s0)
   141f4:	77e1                	lui	a5,0xffff8
   141f6:	fff7c793          	not	a5,a5
   141fa:	00f41923          	sh	a5,18(s0)
   141fe:	60ee                	ld	ra,216(sp)
   14200:	644e                	ld	s0,208(sp)
   14202:	64ae                	ld	s1,200(sp)
   14204:	690e                	ld	s2,192(sp)
   14206:	79ea                	ld	s3,184(sp)
   14208:	7a4a                	ld	s4,176(sp)
   1420a:	7aaa                	ld	s5,168(sp)
   1420c:	7b0a                	ld	s6,160(sp)
   1420e:	6bea                	ld	s7,152(sp)
   14210:	6c4a                	ld	s8,144(sp)
   14212:	6caa                	ld	s9,136(sp)
   14214:	6d0a                	ld	s10,128(sp)
   14216:	7de6                	ld	s11,120(sp)
   14218:	612d                	addi	sp,sp,224
   1421a:	8082                	ret
   1421c:	67a1                	lui	a5,0x8
   1421e:	17fd                	addi	a5,a5,-1
   14220:	1cf68763          	beq	a3,a5,143ee <ediv+0x2ce>
   14224:	8526                	mv	a0,s1
   14226:	080c                	addi	a1,sp,16
   14228:	df4ff0ef          	jal	ra,1381c <emovi>
   1422c:	180c                	addi	a1,sp,48
   1422e:	854a                	mv	a0,s2
   14230:	decff0ef          	jal	ra,1381c <emovi>
   14234:	03215a83          	lhu	s5,50(sp)
   14238:	01215483          	lhu	s1,18(sp)
   1423c:	200a8f63          	beqz	s5,1445a <ediv+0x33a>
   14240:	e456                	sd	s5,8(sp)
   14242:	8626                	mv	a2,s1
   14244:	e026                	sd	s1,0(sp)
   14246:	085c                	addi	a5,sp,20
   14248:	1034                	addi	a3,sp,40
   1424a:	ee09                	bnez	a2,14264 <ediv+0x144>
   1424c:	2cd78463          	beq	a5,a3,14514 <ediv+0x3f4>
   14250:	0007d703          	lhu	a4,0(a5) # 8000 <register_fini-0x80e8>
   14254:	0789                	addi	a5,a5,2
   14256:	db7d                	beqz	a4,1424c <ediv+0x12c>
   14258:	0808                	addi	a0,sp,16
   1425a:	b38ff0ef          	jal	ra,13592 <enormlz>
   1425e:	40a487b3          	sub	a5,s1,a0
   14262:	e03e                	sd	a5,0(sp)
   14264:	5742                	lw	a4,48(sp)
   14266:	03898a93          	addi	s5,s3,56
   1426a:	87d6                	mv	a5,s5
   1426c:	02e9aa23          	sw	a4,52(s3)
   14270:	04e98493          	addi	s1,s3,78
   14274:	0789                	addi	a5,a5,2
   14276:	fe079f23          	sh	zero,-2(a5)
   1427a:	fef49de3          	bne	s1,a5,14274 <ediv+0x154>
   1427e:	1808                	addi	a0,sp,48
   14280:	976ff0ef          	jal	ra,133f6 <eshdn1>
   14284:	01615b03          	lhu	s6,22(sp)
   14288:	6941                	lui	s2,0x10
   1428a:	04810c13          	addi	s8,sp,72
   1428e:	010b1a13          	slli	s4,s6,0x10
   14292:	416a0a33          	sub	s4,s4,s6
   14296:	03210c93          	addi	s9,sp,50
   1429a:	197d                	addi	s2,s2,-1
   1429c:	06a10d13          	addi	s10,sp,106
   142a0:	05210d93          	addi	s11,sp,82
   142a4:	03415783          	lhu	a5,52(sp)
   142a8:	03615703          	lhu	a4,54(sp)
   142ac:	8bca                	mv	s7,s2
   142ae:	07c2                	slli	a5,a5,0x10
   142b0:	97ba                	add	a5,a5,a4
   142b2:	00fa6863          	bltu	s4,a5,142c2 <ediv+0x1a2>
   142b6:	0367d533          	divu	a0,a5,s6
   142ba:	03051b93          	slli	s7,a0,0x30
   142be:	030bdb93          	srli	s7,s7,0x30
   142c2:	0890                	addi	a2,sp,80
   142c4:	080c                	addi	a1,sp,16
   142c6:	855e                	mv	a0,s7
   142c8:	9caff0ef          	jal	ra,13492 <m16m>
   142cc:	1858                	addi	a4,sp,52
   142ce:	08dc                	addi	a5,sp,84
   142d0:	0007d603          	lhu	a2,0(a5)
   142d4:	00075683          	lhu	a3,0(a4)
   142d8:	0789                	addi	a5,a5,2
   142da:	0709                	addi	a4,a4,2
   142dc:	1ad61163          	bne	a2,a3,1447e <ediv+0x35e>
   142e0:	ffa798e3          	bne	a5,s10,142d0 <ediv+0x1b0>
   142e4:	4781                	li	a5,0
   142e6:	10b4                	addi	a3,sp,104
   142e8:	8662                	mv	a2,s8
   142ea:	00065703          	lhu	a4,0(a2)
   142ee:	0006d583          	lhu	a1,0(a3) # ffffffffffffc000 <__BSS_END__+0xfffffffffffdc6e8>
   142f2:	1679                	addi	a2,a2,-2
   142f4:	8f1d                	sub	a4,a4,a5
   142f6:	8f0d                	sub	a4,a4,a1
   142f8:	01075793          	srli	a5,a4,0x10
   142fc:	00e61123          	sh	a4,2(a2)
   14300:	8b85                	andi	a5,a5,1
   14302:	16f9                	addi	a3,a3,-2
   14304:	ff9613e3          	bne	a2,s9,142ea <ediv+0x1ca>
   14308:	017a9023          	sh	s7,0(s5)
   1430c:	185c                	addi	a5,sp,52
   1430e:	0027d703          	lhu	a4,2(a5)
   14312:	0789                	addi	a5,a5,2
   14314:	fee79f23          	sh	a4,-2(a5)
   14318:	ff879be3          	bne	a5,s8,1430e <ediv+0x1ee>
   1431c:	04011423          	sh	zero,72(sp)
   14320:	0a89                	addi	s5,s5,2
   14322:	f95491e3          	bne	s1,s5,142a4 <ediv+0x184>
   14326:	4701                	li	a4,0
   14328:	185c                	addi	a5,sp,52
   1432a:	04a10613          	addi	a2,sp,74
   1432e:	0007d683          	lhu	a3,0(a5)
   14332:	0789                	addi	a5,a5,2
   14334:	8f55                	or	a4,a4,a3
   14336:	fec79ce3          	bne	a5,a2,1432e <ediv+0x20e>
   1433a:	0107179b          	slliw	a5,a4,0x10
   1433e:	4107d79b          	sraiw	a5,a5,0x10
   14342:	c391                	beqz	a5,14346 <ediv+0x226>
   14344:	4705                	li	a4,1
   14346:	03071593          	slli	a1,a4,0x30
   1434a:	91c1                	srli	a1,a1,0x30
   1434c:	03498713          	addi	a4,s3,52
   14350:	181c                	addi	a5,sp,48
   14352:	00075683          	lhu	a3,0(a4)
   14356:	0789                	addi	a5,a5,2
   14358:	0709                	addi	a4,a4,2
   1435a:	fed79f23          	sh	a3,-2(a5)
   1435e:	fef61ae3          	bne	a2,a5,14352 <ediv+0x232>
   14362:	67a2                	ld	a5,8(sp)
   14364:	6702                	ld	a4,0(sp)
   14366:	6691                	lui	a3,0x4
   14368:	16fd                	addi	a3,a3,-1
   1436a:	40e78ab3          	sub	s5,a5,a4
   1436e:	1808                	addi	a0,sp,48
   14370:	87ce                	mv	a5,s3
   14372:	04000713          	li	a4,64
   14376:	96d6                	add	a3,a3,s5
   14378:	4601                	li	a2,0
   1437a:	e1cff0ef          	jal	ra,13996 <emdnorm>
   1437e:	03015703          	lhu	a4,48(sp)
   14382:	01015783          	lhu	a5,16(sp)
   14386:	85a2                	mv	a1,s0
   14388:	1808                	addi	a0,sp,48
   1438a:	8f99                	sub	a5,a5,a4
   1438c:	00f037b3          	snez	a5,a5
   14390:	40f007bb          	negw	a5,a5
   14394:	02f11823          	sh	a5,48(sp)
   14398:	96eff0ef          	jal	ra,13506 <emovo.constprop.0>
   1439c:	b58d                	j	141fe <ediv+0xde>
   1439e:	01448713          	addi	a4,s1,20
   143a2:	0004d783          	lhu	a5,0(s1)
   143a6:	0489                	addi	s1,s1,2
   143a8:	0409                	addi	s0,s0,2
   143aa:	fef41f23          	sh	a5,-2(s0)
   143ae:	fee49ae3          	bne	s1,a4,143a2 <ediv+0x282>
   143b2:	b5b1                	j	141fe <ediv+0xde>
   143b4:	01490713          	addi	a4,s2,20 # 10014 <register_fini-0xd4>
   143b8:	00095783          	lhu	a5,0(s2)
   143bc:	0909                	addi	s2,s2,2
   143be:	0409                	addi	s0,s0,2
   143c0:	fef41f23          	sh	a5,-2(s0)
   143c4:	fee91ae3          	bne	s2,a4,143b8 <ediv+0x298>
   143c8:	bd1d                	j	141fe <ediv+0xde>
   143ca:	b48a0593          	addi	a1,s4,-1208
   143ce:	854a                	mv	a0,s2
   143d0:	ce2ff0ef          	jal	ra,138b2 <ecmp>
   143d4:	dc0512e3          	bnez	a0,14198 <ediv+0x78>
   143d8:	b519                	j	141de <ediv+0xbe>
   143da:	e40505e3          	beqz	a0,14224 <ediv+0x104>
   143de:	01440793          	addi	a5,s0,20
   143e2:	0409                	addi	s0,s0,2
   143e4:	fe041f23          	sh	zero,-2(s0)
   143e8:	fef41de3          	bne	s0,a5,143e2 <ediv+0x2c2>
   143ec:	bd09                	j	141fe <ediv+0xde>
   143ee:	4501                	li	a0,0
   143f0:	01290693          	addi	a3,s2,18
   143f4:	87ca                	mv	a5,s2
   143f6:	0007d703          	lhu	a4,0(a5)
   143fa:	0789                	addi	a5,a5,2
   143fc:	ff79                	bnez	a4,143da <ediv+0x2ba>
   143fe:	fed79ce3          	bne	a5,a3,143f6 <ediv+0x2d6>
   14402:	67a1                	lui	a5,0x8
   14404:	17fd                	addi	a5,a5,-1
   14406:	04f58163          	beq	a1,a5,14448 <ediv+0x328>
   1440a:	823d                	srli	a2,a2,0xf
   1440c:	00095783          	lhu	a5,0(s2)
   14410:	0909                	addi	s2,s2,2
   14412:	12079363          	bnez	a5,14538 <ediv+0x418>
   14416:	fed91be3          	bne	s2,a3,1440c <ediv+0x2ec>
   1441a:	00f85813          	srli	a6,a6,0xf
   1441e:	00c80363          	beq	a6,a2,14424 <ediv+0x304>
   14422:	6721                	lui	a4,0x8
   14424:	00e41923          	sh	a4,18(s0)
   14428:	87a2                	mv	a5,s0
   1442a:	01240713          	addi	a4,s0,18
   1442e:	0789                	addi	a5,a5,2
   14430:	fe079f23          	sh	zero,-2(a5) # 7ffe <register_fini-0x80ea>
   14434:	fee79de3          	bne	a5,a4,1442e <ediv+0x30e>
   14438:	01245783          	lhu	a5,18(s0)
   1443c:	6721                	lui	a4,0x8
   1443e:	177d                	addi	a4,a4,-1
   14440:	8fd9                	or	a5,a5,a4
   14442:	00f41923          	sh	a5,18(s0)
   14446:	bb65                	j	141fe <ediv+0xde>
   14448:	01248593          	addi	a1,s1,18
   1444c:	0004d783          	lhu	a5,0(s1)
   14450:	0489                	addi	s1,s1,2
   14452:	e7ed                	bnez	a5,1453c <ediv+0x41c>
   14454:	feb49ce3          	bne	s1,a1,1444c <ediv+0x32c>
   14458:	bf4d                	j	1440a <ediv+0x2ea>
   1445a:	185c                	addi	a5,sp,52
   1445c:	04810c13          	addi	s8,sp,72
   14460:	0afc0263          	beq	s8,a5,14504 <ediv+0x3e4>
   14464:	0007d703          	lhu	a4,0(a5)
   14468:	0789                	addi	a5,a5,2
   1446a:	db7d                	beqz	a4,14460 <ediv+0x340>
   1446c:	1808                	addi	a0,sp,48
   1446e:	924ff0ef          	jal	ra,13592 <enormlz>
   14472:	40a007b3          	neg	a5,a0
   14476:	01215603          	lhu	a2,18(sp)
   1447a:	e43e                	sd	a5,8(sp)
   1447c:	b3e1                	j	14244 <ediv+0x124>
   1447e:	e6c6f3e3          	bgeu	a3,a2,142e4 <ediv+0x1c4>
   14482:	fffb879b          	addiw	a5,s7,-1
   14486:	03079893          	slli	a7,a5,0x30
   1448a:	0308d893          	srli	a7,a7,0x30
   1448e:	4681                	li	a3,0
   14490:	1030                	addi	a2,sp,40
   14492:	10b8                	addi	a4,sp,104
   14494:	00075783          	lhu	a5,0(a4) # 8000 <register_fini-0x80e8>
   14498:	00065583          	lhu	a1,0(a2)
   1449c:	1779                	addi	a4,a4,-2
   1449e:	8f95                	sub	a5,a5,a3
   144a0:	8f8d                	sub	a5,a5,a1
   144a2:	0107d693          	srli	a3,a5,0x10
   144a6:	00f71123          	sh	a5,2(a4)
   144aa:	8a85                	andi	a3,a3,1
   144ac:	1679                	addi	a2,a2,-2
   144ae:	ffb713e3          	bne	a4,s11,14494 <ediv+0x374>
   144b2:	1858                	addi	a4,sp,52
   144b4:	08dc                	addi	a5,sp,84
   144b6:	0007d603          	lhu	a2,0(a5)
   144ba:	00075683          	lhu	a3,0(a4)
   144be:	0789                	addi	a5,a5,2
   144c0:	0709                	addi	a4,a4,2
   144c2:	00d61663          	bne	a2,a3,144ce <ediv+0x3ae>
   144c6:	ffa798e3          	bne	a5,s10,144b6 <ediv+0x396>
   144ca:	8bc6                	mv	s7,a7
   144cc:	bd21                	j	142e4 <ediv+0x1c4>
   144ce:	fec6fee3          	bgeu	a3,a2,144ca <ediv+0x3aa>
   144d2:	ffeb851b          	addiw	a0,s7,-2
   144d6:	03051b93          	slli	s7,a0,0x30
   144da:	030bdb93          	srli	s7,s7,0x30
   144de:	4681                	li	a3,0
   144e0:	1030                	addi	a2,sp,40
   144e2:	10b8                	addi	a4,sp,104
   144e4:	00075783          	lhu	a5,0(a4)
   144e8:	00065583          	lhu	a1,0(a2)
   144ec:	1779                	addi	a4,a4,-2
   144ee:	8f95                	sub	a5,a5,a3
   144f0:	8f8d                	sub	a5,a5,a1
   144f2:	0107d693          	srli	a3,a5,0x10
   144f6:	00f71123          	sh	a5,2(a4)
   144fa:	8a85                	andi	a3,a3,1
   144fc:	1679                	addi	a2,a2,-2
   144fe:	ffb713e3          	bne	a4,s11,144e4 <ediv+0x3c4>
   14502:	b3cd                	j	142e4 <ediv+0x1c4>
   14504:	01440793          	addi	a5,s0,20
   14508:	0409                	addi	s0,s0,2
   1450a:	fe041f23          	sh	zero,-2(s0)
   1450e:	fef41de3          	bne	s0,a5,14508 <ediv+0x3e8>
   14512:	b1f5                	j	141fe <ediv+0xde>
   14514:	01015703          	lhu	a4,16(sp)
   14518:	03015783          	lhu	a5,48(sp)
   1451c:	00f70363          	beq	a4,a5,14522 <ediv+0x402>
   14520:	6621                	lui	a2,0x8
   14522:	00c41923          	sh	a2,18(s0)
   14526:	01240713          	addi	a4,s0,18
   1452a:	87a2                	mv	a5,s0
   1452c:	0789                	addi	a5,a5,2
   1452e:	fe079f23          	sh	zero,-2(a5)
   14532:	fef71de3          	bne	a4,a5,1452c <ediv+0x40c>
   14536:	b709                	j	14438 <ediv+0x318>
   14538:	4801                	li	a6,0
   1453a:	b5d5                	j	1441e <ediv+0x2fe>
   1453c:	4601                	li	a2,0
   1453e:	b5f9                	j	1440c <ediv+0x2ec>
   14540:	4505                	li	a0,1
   14542:	bd4d                	j	143f4 <ediv+0x2d4>

0000000000014544 <e113toe.isra.0>:
   14544:	7179                	addi	sp,sp,-48
   14546:	f022                	sd	s0,32(sp)
   14548:	f406                	sd	ra,40(sp)
   1454a:	842e                	mv	s0,a1
   1454c:	878a                	mv	a5,sp
   1454e:	01a10713          	addi	a4,sp,26
   14552:	0789                	addi	a5,a5,2
   14554:	fe079f23          	sh	zero,-2(a5)
   14558:	fee79de3          	bne	a5,a4,14552 <e113toe.isra.0+0xe>
   1455c:	00e55783          	lhu	a5,14(a0)
   14560:	00f7d713          	srli	a4,a5,0xf
   14564:	eb39                	bnez	a4,145ba <e113toe.isra.0+0x76>
   14566:	6721                	lui	a4,0x8
   14568:	177d                	addi	a4,a4,-1
   1456a:	00e7f6b3          	and	a3,a5,a4
   1456e:	00011023          	sh	zero,0(sp)
   14572:	8636                	mv	a2,a3
   14574:	04e68d63          	beq	a3,a4,145ce <e113toe.isra.0+0x8a>
   14578:	00e50793          	addi	a5,a0,14
   1457c:	00d11123          	sh	a3,2(sp)
   14580:	00610713          	addi	a4,sp,6
   14584:	ffe7d683          	lhu	a3,-2(a5)
   14588:	17f9                	addi	a5,a5,-2
   1458a:	0709                	addi	a4,a4,2
   1458c:	fed71f23          	sh	a3,-2(a4) # 7ffe <register_fini-0x80ea>
   14590:	fef51ae3          	bne	a0,a5,14584 <e113toe.isra.0+0x40>
   14594:	ea19                	bnez	a2,145aa <e113toe.isra.0+0x66>
   14596:	00011223          	sh	zero,4(sp)
   1459a:	85a2                	mv	a1,s0
   1459c:	850a                	mv	a0,sp
   1459e:	f69fe0ef          	jal	ra,13506 <emovo.constprop.0>
   145a2:	70a2                	ld	ra,40(sp)
   145a4:	7402                	ld	s0,32(sp)
   145a6:	6145                	addi	sp,sp,48
   145a8:	8082                	ret
   145aa:	4785                	li	a5,1
   145ac:	55fd                	li	a1,-1
   145ae:	850a                	mv	a0,sp
   145b0:	00f11223          	sh	a5,4(sp)
   145b4:	8e8ff0ef          	jal	ra,1369c <eshift.part.0>
   145b8:	b7cd                	j	1459a <e113toe.isra.0+0x56>
   145ba:	577d                	li	a4,-1
   145bc:	00e11023          	sh	a4,0(sp)
   145c0:	6721                	lui	a4,0x8
   145c2:	177d                	addi	a4,a4,-1
   145c4:	00e7f6b3          	and	a3,a5,a4
   145c8:	8636                	mv	a2,a3
   145ca:	fae697e3          	bne	a3,a4,14578 <e113toe.isra.0+0x34>
   145ce:	87aa                	mv	a5,a0
   145d0:	00e50693          	addi	a3,a0,14
   145d4:	0007d703          	lhu	a4,0(a5)
   145d8:	0789                	addi	a5,a5,2
   145da:	ef21                	bnez	a4,14632 <e113toe.isra.0+0xee>
   145dc:	fef69ce3          	bne	a3,a5,145d4 <e113toe.isra.0+0x90>
   145e0:	01440713          	addi	a4,s0,20
   145e4:	87a2                	mv	a5,s0
   145e6:	0789                	addi	a5,a5,2
   145e8:	fe079f23          	sh	zero,-2(a5)
   145ec:	fee79de3          	bne	a5,a4,145e6 <e113toe.isra.0+0xa2>
   145f0:	01240713          	addi	a4,s0,18
   145f4:	87a2                	mv	a5,s0
   145f6:	0789                	addi	a5,a5,2
   145f8:	fe079f23          	sh	zero,-2(a5)
   145fc:	fef71de3          	bne	a4,a5,145f6 <e113toe.isra.0+0xb2>
   14600:	01245783          	lhu	a5,18(s0)
   14604:	66a1                	lui	a3,0x8
   14606:	16fd                	addi	a3,a3,-1
   14608:	8fd5                	or	a5,a5,a3
   1460a:	17c2                	slli	a5,a5,0x30
   1460c:	93c1                	srli	a5,a5,0x30
   1460e:	00f41923          	sh	a5,18(s0)
   14612:	00e51683          	lh	a3,14(a0)
   14616:	f806d6e3          	bgez	a3,145a2 <e113toe.isra.0+0x5e>
   1461a:	86a2                	mv	a3,s0
   1461c:	0006d603          	lhu	a2,0(a3) # 8000 <register_fini-0x80e8>
   14620:	0689                	addi	a3,a3,2
   14622:	f241                	bnez	a2,145a2 <e113toe.isra.0+0x5e>
   14624:	fed71ce3          	bne	a4,a3,1461c <e113toe.isra.0+0xd8>
   14628:	7761                	lui	a4,0xffff8
   1462a:	8fb9                	xor	a5,a5,a4
   1462c:	00f41923          	sh	a5,18(s0)
   14630:	bf8d                	j	145a2 <e113toe.isra.0+0x5e>
   14632:	01040713          	addi	a4,s0,16
   14636:	87a2                	mv	a5,s0
   14638:	0789                	addi	a5,a5,2
   1463a:	fe079f23          	sh	zero,-2(a5)
   1463e:	fee79de3          	bne	a5,a4,14638 <e113toe.isra.0+0xf4>
   14642:	77f1                	lui	a5,0xffffc
   14644:	00f41823          	sh	a5,16(s0)
   14648:	77e1                	lui	a5,0xffff8
   1464a:	fff7c793          	not	a5,a5
   1464e:	00f41923          	sh	a5,18(s0)
   14652:	bf81                	j	145a2 <e113toe.isra.0+0x5e>

0000000000014654 <_ldtoa_r>:
   14654:	d9010113          	addi	sp,sp,-624
   14658:	09100313          	li	t1,145
   1465c:	f4b2                	sd	a2,104(sp)
   1465e:	06053e03          	ld	t3,96(a0)
   14662:	02031613          	slli	a2,t1,0x20
   14666:	167d                	addi	a2,a2,-1
   14668:	26813023          	sd	s0,608(sp)
   1466c:	25313423          	sd	s3,584(sp)
   14670:	26113423          	sd	ra,616(sp)
   14674:	24913c23          	sd	s1,600(sp)
   14678:	25213823          	sd	s2,592(sp)
   1467c:	25413023          	sd	s4,576(sp)
   14680:	23513c23          	sd	s5,568(sp)
   14684:	23613823          	sd	s6,560(sp)
   14688:	23713423          	sd	s7,552(sp)
   1468c:	23813023          	sd	s8,544(sp)
   14690:	21913c23          	sd	s9,536(sp)
   14694:	21a13823          	sd	s10,528(sp)
   14698:	21b13423          	sd	s11,520(sp)
   1469c:	f0ae                	sd	a1,96(sp)
   1469e:	fb32                	sd	a2,432(sp)
   146a0:	e436                	sd	a3,8(sp)
   146a2:	ec3a                	sd	a4,24(sp)
   146a4:	f03e                	sd	a5,32(sp)
   146a6:	f846                	sd	a7,48(sp)
   146a8:	89aa                	mv	s3,a0
   146aa:	8442                	mv	s0,a6
   146ac:	000e0f63          	beqz	t3,146ca <_ldtoa_r+0x76>
   146b0:	5538                	lw	a4,104(a0)
   146b2:	4785                	li	a5,1
   146b4:	85f2                	mv	a1,t3
   146b6:	00e797bb          	sllw	a5,a5,a4
   146ba:	00ee2423          	sw	a4,8(t3) # 10008 <register_fini-0xe0>
   146be:	00fe2623          	sw	a5,12(t3)
   146c2:	12a010ef          	jal	ra,157ec <_Bfree>
   146c6:	0609b023          	sd	zero,96(s3)
   146ca:	090c                	addi	a1,sp,144
   146cc:	1088                	addi	a0,sp,96
   146ce:	e77ff0ef          	jal	ra,14544 <e113toe.isra.0>
   146d2:	0a215683          	lhu	a3,162(sp)
   146d6:	67a1                	lui	a5,0x8
   146d8:	17fd                	addi	a5,a5,-1
   146da:	00f6f5b3          	and	a1,a3,a5
   146de:	00f59c63          	bne	a1,a5,146f6 <_ldtoa_r+0xa2>
   146e2:	091c                	addi	a5,sp,144
   146e4:	0a210613          	addi	a2,sp,162
   146e8:	0007d703          	lhu	a4,0(a5) # 8000 <register_fini-0x80e8>
   146ec:	0789                	addi	a5,a5,2
   146ee:	0c0717e3          	bnez	a4,14fbc <_ldtoa_r+0x968>
   146f2:	fec79be3          	bne	a5,a2,146e8 <_ldtoa_r+0x94>
   146f6:	82bd                	srli	a3,a3,0xf
   146f8:	6722                	ld	a4,8(sp)
   146fa:	c014                	sw	a3,0(s0)
   146fc:	478d                	li	a5,3
   146fe:	66f70f63          	beq	a4,a5,14d7c <_ldtoa_r+0x728>
   14702:	47d1                	li	a5,20
   14704:	e83e                	sd	a5,16(sp)
   14706:	0a071ee3          	bnez	a4,14fc2 <_ldtoa_r+0x96e>
   1470a:	1b412703          	lw	a4,436(sp)
   1470e:	67a1                	lui	a5,0x8
   14710:	17fd                	addi	a5,a5,-1
   14712:	f43a                	sd	a4,40(sp)
   14714:	00f59c63          	bne	a1,a5,1472c <_ldtoa_r+0xd8>
   14718:	091c                	addi	a5,sp,144
   1471a:	0a210693          	addi	a3,sp,162
   1471e:	0007d703          	lhu	a4,0(a5) # 8000 <register_fini-0x80e8>
   14722:	0789                	addi	a5,a5,2
   14724:	6a071d63          	bnez	a4,14dde <_ldtoa_r+0x78a>
   14728:	fed79be3          	bne	a5,a3,1471e <_ldtoa_r+0xca>
   1472c:	09000793          	li	a5,144
   14730:	1af12a23          	sw	a5,436(sp)
   14734:	1918                	addi	a4,sp,176
   14736:	091c                	addi	a5,sp,144
   14738:	1150                	addi	a2,sp,164
   1473a:	0007d683          	lhu	a3,0(a5)
   1473e:	0789                	addi	a5,a5,2
   14740:	0709                	addi	a4,a4,2
   14742:	fed71f23          	sh	a3,-2(a4) # ffffffffffff7ffe <__BSS_END__+0xfffffffffffd86e6>
   14746:	fec79ae3          	bne	a5,a2,1473a <_ldtoa_r+0xe6>
   1474a:	0c215603          	lhu	a2,194(sp)
   1474e:	4c01                	li	s8,0
   14750:	00f65793          	srli	a5,a2,0xf
   14754:	3e079d63          	bnez	a5,14b4e <_ldtoa_r+0x4fa>
   14758:	6af5                	lui	s5,0x1d
   1475a:	b48a8b93          	addi	s7,s5,-1208 # 1cb48 <ezero>
   1475e:	018b8b13          	addi	s6,s7,24
   14762:	4681                	li	a3,0
   14764:	099c                	addi	a5,sp,208
   14766:	875a                	mv	a4,s6
   14768:	0e410d93          	addi	s11,sp,228
   1476c:	a019                	j	14772 <_ldtoa_r+0x11e>
   1476e:	00075683          	lhu	a3,0(a4)
   14772:	0789                	addi	a5,a5,2
   14774:	fed79f23          	sh	a3,-2(a5)
   14778:	0709                	addi	a4,a4,2
   1477a:	ffb79ae3          	bne	a5,s11,1476e <_ldtoa_r+0x11a>
   1477e:	0e060963          	beqz	a2,14870 <_ldtoa_r+0x21c>
   14782:	67a1                	lui	a5,0x8
   14784:	17fd                	addi	a5,a5,-1
   14786:	18f608e3          	beq	a2,a5,15116 <_ldtoa_r+0xac2>
   1478a:	0c011783          	lh	a5,192(sp)
   1478e:	1e07d6e3          	bgez	a5,1517a <_ldtoa_r+0xb26>
   14792:	190c                	addi	a1,sp,176
   14794:	855a                	mv	a0,s6
   14796:	91cff0ef          	jal	ra,138b2 <ecmp>
   1479a:	0e050563          	beqz	a0,14884 <_ldtoa_r+0x230>
   1479e:	64054c63          	bltz	a0,14df6 <_ldtoa_r+0x7a2>
   147a2:	0c215783          	lhu	a5,194(sp)
   147a6:	240797e3          	bnez	a5,151f4 <_ldtoa_r+0xba0>
   147aa:	0c011783          	lh	a5,192(sp)
   147ae:	4481                	li	s1,0
   147b0:	1b010913          	addi	s2,sp,432
   147b4:	0007cf63          	bltz	a5,147d2 <_ldtoa_r+0x17e>
   147b8:	120b8413          	addi	s0,s7,288
   147bc:	1910                	addi	a2,sp,176
   147be:	86ca                	mv	a3,s2
   147c0:	85b2                	mv	a1,a2
   147c2:	8522                	mv	a0,s0
   147c4:	dd0ff0ef          	jal	ra,13d94 <emul>
   147c8:	0c011783          	lh	a5,192(sp)
   147cc:	34fd                	addiw	s1,s1,-1
   147ce:	fe07d7e3          	bgez	a5,147bc <_ldtoa_r+0x168>
   147d2:	0a00                	addi	s0,sp,272
   147d4:	12810a13          	addi	s4,sp,296
   147d8:	8722                	mv	a4,s0
   147da:	191c                	addi	a5,sp,176
   147dc:	01d0                	addi	a2,sp,196
   147de:	0007d683          	lhu	a3,0(a5) # 8000 <register_fini-0x80e8>
   147e2:	0789                	addi	a5,a5,2
   147e4:	0709                	addi	a4,a4,2
   147e6:	fed71f23          	sh	a3,-2(a4)
   147ea:	fec79ae3          	bne	a5,a2,147de <_ldtoa_r+0x18a>
   147ee:	4681                	li	a3,0
   147f0:	099c                	addi	a5,sp,208
   147f2:	875a                	mv	a4,s6
   147f4:	a019                	j	147fa <_ldtoa_r+0x1a6>
   147f6:	00075683          	lhu	a3,0(a4)
   147fa:	0789                	addi	a5,a5,2
   147fc:	fed79f23          	sh	a3,-2(a5)
   14800:	0709                	addi	a4,a4,2
   14802:	ffb79ae3          	bne	a5,s11,147f6 <_ldtoa_r+0x1a2>
   14806:	030b8c93          	addi	s9,s7,48
   1480a:	138b8d93          	addi	s11,s7,312
   1480e:	7d7d                	lui	s10,0xfffff
   14810:	120b8b93          	addi	s7,s7,288
   14814:	a019                	j	1481a <_ldtoa_r+0x1c6>
   14816:	0dd1                	addi	s11,s11,20
   14818:	0cd1                	addi	s9,s9,20
   1481a:	85a2                	mv	a1,s0
   1481c:	855a                	mv	a0,s6
   1481e:	894ff0ef          	jal	ra,138b2 <ecmp>
   14822:	02a05e63          	blez	a0,1485e <_ldtoa_r+0x20a>
   14826:	85a2                	mv	a1,s0
   14828:	856e                	mv	a0,s11
   1482a:	888ff0ef          	jal	ra,138b2 <ecmp>
   1482e:	02054063          	bltz	a0,1484e <_ldtoa_r+0x1fa>
   14832:	86ca                	mv	a3,s2
   14834:	8622                	mv	a2,s0
   14836:	85a2                	mv	a1,s0
   14838:	8566                	mv	a0,s9
   1483a:	d5aff0ef          	jal	ra,13d94 <emul>
   1483e:	0990                	addi	a2,sp,208
   14840:	86ca                	mv	a3,s2
   14842:	85b2                	mv	a1,a2
   14844:	8566                	mv	a0,s9
   14846:	d4eff0ef          	jal	ra,13d94 <emul>
   1484a:	009d04bb          	addw	s1,s10,s1
   1484e:	01fd579b          	srliw	a5,s10,0x1f
   14852:	01a78d3b          	addw	s10,a5,s10
   14856:	401d5d1b          	sraiw	s10,s10,0x1
   1485a:	fb7c9ee3          	bne	s9,s7,14816 <_ldtoa_r+0x1c2>
   1485e:	0990                	addi	a2,sp,208
   14860:	86ca                	mv	a3,s2
   14862:	85da                	mv	a1,s6
   14864:	8532                	mv	a0,a2
   14866:	8bbff0ef          	jal	ra,14120 <ediv>
   1486a:	17010c93          	addi	s9,sp,368
   1486e:	a01d                	j	14894 <_ldtoa_r+0x240>
   14870:	191c                	addi	a5,sp,176
   14872:	0c210693          	addi	a3,sp,194
   14876:	0007d703          	lhu	a4,0(a5)
   1487a:	f0071ce3          	bnez	a4,14792 <_ldtoa_r+0x13e>
   1487e:	0789                	addi	a5,a5,2
   14880:	fef69be3          	bne	a3,a5,14876 <_ldtoa_r+0x222>
   14884:	4481                	li	s1,0
   14886:	17010c93          	addi	s9,sp,368
   1488a:	1b010913          	addi	s2,sp,432
   1488e:	0a00                	addi	s0,sp,272
   14890:	12810a13          	addi	s4,sp,296
   14894:	85a2                	mv	a1,s0
   14896:	0988                	addi	a0,sp,208
   14898:	f85fe0ef          	jal	ra,1381c <emovi>
   1489c:	0998                	addi	a4,sp,208
   1489e:	87a2                	mv	a5,s0
   148a0:	0007d683          	lhu	a3,0(a5)
   148a4:	0789                	addi	a5,a5,2
   148a6:	0709                	addi	a4,a4,2
   148a8:	fed71f23          	sh	a3,-2(a4)
   148ac:	ff479ae3          	bne	a5,s4,148a0 <_ldtoa_r+0x24c>
   148b0:	85a2                	mv	a1,s0
   148b2:	1908                	addi	a0,sp,176
   148b4:	0e011423          	sh	zero,232(sp)
   148b8:	f65fe0ef          	jal	ra,1381c <emovi>
   148bc:	191c                	addi	a5,sp,176
   148be:	00045703          	lhu	a4,0(s0)
   148c2:	0409                	addi	s0,s0,2
   148c4:	0789                	addi	a5,a5,2
   148c6:	fee79f23          	sh	a4,-2(a5)
   148ca:	ff441ae3          	bne	s0,s4,148be <_ldtoa_r+0x26a>
   148ce:	864a                	mv	a2,s2
   148d0:	190c                	addi	a1,sp,176
   148d2:	0988                	addi	a0,sp,208
   148d4:	0c011423          	sh	zero,200(sp)
   148d8:	bcaff0ef          	jal	ra,13ca2 <eiremain>
   148dc:	1fc15b03          	lhu	s6,508(sp)
   148e0:	100b1863          	bnez	s6,149f0 <_ldtoa_r+0x39c>
   148e4:	0c810b93          	addi	s7,sp,200
   148e8:	0b210d13          	addi	s10,sp,178
   148ec:	0f210413          	addi	s0,sp,242
   148f0:	b48a8593          	addi	a1,s5,-1208
   148f4:	1908                	addi	a0,sp,176
   148f6:	fbdfe0ef          	jal	ra,138b2 <ecmp>
   148fa:	c97d                	beqz	a0,149f0 <_ldtoa_r+0x39c>
   148fc:	4701                	li	a4,0
   148fe:	86de                	mv	a3,s7
   14900:	0006d783          	lhu	a5,0(a3)
   14904:	00f7d613          	srli	a2,a5,0xf
   14908:	c219                	beqz	a2,1490e <_ldtoa_r+0x2ba>
   1490a:	00176713          	ori	a4,a4,1
   1490e:	0017979b          	slliw	a5,a5,0x1
   14912:	17c2                	slli	a5,a5,0x30
   14914:	00277613          	andi	a2,a4,2
   14918:	93c1                	srli	a5,a5,0x30
   1491a:	c219                	beqz	a2,14920 <_ldtoa_r+0x2cc>
   1491c:	0017e793          	ori	a5,a5,1
   14920:	0017171b          	slliw	a4,a4,0x1
   14924:	00f69023          	sh	a5,0(a3)
   14928:	1742                	slli	a4,a4,0x30
   1492a:	16f9                	addi	a3,a3,-2
   1492c:	9341                	srli	a4,a4,0x30
   1492e:	fda699e3          	bne	a3,s10,14900 <_ldtoa_r+0x2ac>
   14932:	1998                	addi	a4,sp,240
   14934:	191c                	addi	a5,sp,176
   14936:	0007d683          	lhu	a3,0(a5)
   1493a:	0789                	addi	a5,a5,2
   1493c:	0709                	addi	a4,a4,2
   1493e:	fed71f23          	sh	a3,-2(a4)
   14942:	ff779ae3          	bne	a5,s7,14936 <_ldtoa_r+0x2e2>
   14946:	10011423          	sh	zero,264(sp)
   1494a:	4701                	li	a4,0
   1494c:	0234                	addi	a3,sp,264
   1494e:	0006d783          	lhu	a5,0(a3)
   14952:	00f7d613          	srli	a2,a5,0xf
   14956:	c219                	beqz	a2,1495c <_ldtoa_r+0x308>
   14958:	00176713          	ori	a4,a4,1
   1495c:	0017979b          	slliw	a5,a5,0x1
   14960:	17c2                	slli	a5,a5,0x30
   14962:	00277613          	andi	a2,a4,2
   14966:	93c1                	srli	a5,a5,0x30
   14968:	c219                	beqz	a2,1496e <_ldtoa_r+0x31a>
   1496a:	0017e793          	ori	a5,a5,1
   1496e:	0017171b          	slliw	a4,a4,0x1
   14972:	00f69023          	sh	a5,0(a3)
   14976:	1742                	slli	a4,a4,0x30
   14978:	16f9                	addi	a3,a3,-2
   1497a:	9341                	srli	a4,a4,0x30
   1497c:	fc8699e3          	bne	a3,s0,1494e <_ldtoa_r+0x2fa>
   14980:	4701                	li	a4,0
   14982:	0234                	addi	a3,sp,264
   14984:	0006d783          	lhu	a5,0(a3)
   14988:	00f7d613          	srli	a2,a5,0xf
   1498c:	c219                	beqz	a2,14992 <_ldtoa_r+0x33e>
   1498e:	00176713          	ori	a4,a4,1
   14992:	0017979b          	slliw	a5,a5,0x1
   14996:	17c2                	slli	a5,a5,0x30
   14998:	00277613          	andi	a2,a4,2
   1499c:	93c1                	srli	a5,a5,0x30
   1499e:	c219                	beqz	a2,149a4 <_ldtoa_r+0x350>
   149a0:	0017e793          	ori	a5,a5,1
   149a4:	0017171b          	slliw	a4,a4,0x1
   149a8:	00f69023          	sh	a5,0(a3)
   149ac:	1742                	slli	a4,a4,0x30
   149ae:	16f9                	addi	a3,a3,-2
   149b0:	9341                	srli	a4,a4,0x30
   149b2:	fc8699e3          	bne	a3,s0,14984 <_ldtoa_r+0x330>
   149b6:	4601                	li	a2,0
   149b8:	86de                	mv	a3,s7
   149ba:	0238                	addi	a4,sp,264
   149bc:	0006d583          	lhu	a1,0(a3)
   149c0:	00075783          	lhu	a5,0(a4)
   149c4:	16f9                	addi	a3,a3,-2
   149c6:	1779                	addi	a4,a4,-2
   149c8:	97ae                	add	a5,a5,a1
   149ca:	97b2                	add	a5,a5,a2
   149cc:	0107d613          	srli	a2,a5,0x10
   149d0:	00f69123          	sh	a5,2(a3)
   149d4:	8a05                	andi	a2,a2,1
   149d6:	fe8713e3          	bne	a4,s0,149bc <_ldtoa_r+0x368>
   149da:	864a                	mv	a2,s2
   149dc:	190c                	addi	a1,sp,176
   149de:	0988                	addi	a0,sp,208
   149e0:	ac2ff0ef          	jal	ra,13ca2 <eiremain>
   149e4:	1fc15783          	lhu	a5,508(sp)
   149e8:	34fd                	addiw	s1,s1,-1
   149ea:	f00783e3          	beqz	a5,148f0 <_ldtoa_r+0x29c>
   149ee:	8b3e                	mv	s6,a5
   149f0:	02d00793          	li	a5,45
   149f4:	000c1463          	bnez	s8,149fc <_ldtoa_r+0x3a8>
   149f8:	02000793          	li	a5,32
   149fc:	66a2                	ld	a3,8(sp)
   149fe:	16f10823          	sb	a5,368(sp)
   14a02:	470d                	li	a4,3
   14a04:	67c2                	ld	a5,16(sp)
   14a06:	00e69363          	bne	a3,a4,14a0c <_ldtoa_r+0x3b8>
   14a0a:	9fa5                	addw	a5,a5,s1
   14a0c:	02a00713          	li	a4,42
   14a10:	0007841b          	sext.w	s0,a5
   14a14:	00f75463          	bge	a4,a5,14a1c <_ldtoa_r+0x3c8>
   14a18:	02a00413          	li	s0,42
   14a1c:	4729                	li	a4,10
   14a1e:	38eb0d63          	beq	s6,a4,14db8 <_ldtoa_r+0x764>
   14a22:	030b0b1b          	addiw	s6,s6,48
   14a26:	02e00713          	li	a4,46
   14a2a:	176108a3          	sb	s6,369(sp)
   14a2e:	16e10923          	sb	a4,370(sp)
   14a32:	1207c663          	bltz	a5,14b5e <_ldtoa_r+0x50a>
   14a36:	17310c13          	addi	s8,sp,371
   14a3a:	4a01                	li	s4,0
   14a3c:	0f010d13          	addi	s10,sp,240
   14a40:	0c810b93          	addi	s7,sp,200
   14a44:	0b210d93          	addi	s11,sp,178
   14a48:	0f210b13          	addi	s6,sp,242
   14a4c:	4601                	li	a2,0
   14a4e:	85de                	mv	a1,s7
   14a50:	0005d783          	lhu	a5,0(a1)
   14a54:	00f7d513          	srli	a0,a5,0xf
   14a58:	c119                	beqz	a0,14a5e <_ldtoa_r+0x40a>
   14a5a:	00166613          	ori	a2,a2,1
   14a5e:	0017979b          	slliw	a5,a5,0x1
   14a62:	17c2                	slli	a5,a5,0x30
   14a64:	00267513          	andi	a0,a2,2
   14a68:	93c1                	srli	a5,a5,0x30
   14a6a:	c119                	beqz	a0,14a70 <_ldtoa_r+0x41c>
   14a6c:	0017e793          	ori	a5,a5,1
   14a70:	0016161b          	slliw	a2,a2,0x1
   14a74:	00f59023          	sh	a5,0(a1)
   14a78:	1642                	slli	a2,a2,0x30
   14a7a:	15f9                	addi	a1,a1,-2
   14a7c:	9241                	srli	a2,a2,0x30
   14a7e:	fdb599e3          	bne	a1,s11,14a50 <_ldtoa_r+0x3fc>
   14a82:	866a                	mv	a2,s10
   14a84:	191c                	addi	a5,sp,176
   14a86:	0007d583          	lhu	a1,0(a5)
   14a8a:	0789                	addi	a5,a5,2
   14a8c:	0609                	addi	a2,a2,2
   14a8e:	feb61f23          	sh	a1,-2(a2) # 7ffe <register_fini-0x80ea>
   14a92:	ff779ae3          	bne	a5,s7,14a86 <_ldtoa_r+0x432>
   14a96:	10011423          	sh	zero,264(sp)
   14a9a:	4601                	li	a2,0
   14a9c:	022c                	addi	a1,sp,264
   14a9e:	0005d783          	lhu	a5,0(a1)
   14aa2:	00f7d513          	srli	a0,a5,0xf
   14aa6:	c119                	beqz	a0,14aac <_ldtoa_r+0x458>
   14aa8:	00166613          	ori	a2,a2,1
   14aac:	0017979b          	slliw	a5,a5,0x1
   14ab0:	17c2                	slli	a5,a5,0x30
   14ab2:	00267513          	andi	a0,a2,2
   14ab6:	93c1                	srli	a5,a5,0x30
   14ab8:	c119                	beqz	a0,14abe <_ldtoa_r+0x46a>
   14aba:	0017e793          	ori	a5,a5,1
   14abe:	0016161b          	slliw	a2,a2,0x1
   14ac2:	00f59023          	sh	a5,0(a1)
   14ac6:	1642                	slli	a2,a2,0x30
   14ac8:	15f9                	addi	a1,a1,-2
   14aca:	9241                	srli	a2,a2,0x30
   14acc:	fd6599e3          	bne	a1,s6,14a9e <_ldtoa_r+0x44a>
   14ad0:	4601                	li	a2,0
   14ad2:	022c                	addi	a1,sp,264
   14ad4:	0005d783          	lhu	a5,0(a1)
   14ad8:	00f7d513          	srli	a0,a5,0xf
   14adc:	c119                	beqz	a0,14ae2 <_ldtoa_r+0x48e>
   14ade:	00166613          	ori	a2,a2,1
   14ae2:	0017979b          	slliw	a5,a5,0x1
   14ae6:	17c2                	slli	a5,a5,0x30
   14ae8:	00267513          	andi	a0,a2,2
   14aec:	93c1                	srli	a5,a5,0x30
   14aee:	c119                	beqz	a0,14af4 <_ldtoa_r+0x4a0>
   14af0:	0017e793          	ori	a5,a5,1
   14af4:	0016161b          	slliw	a2,a2,0x1
   14af8:	00f59023          	sh	a5,0(a1)
   14afc:	1642                	slli	a2,a2,0x30
   14afe:	15f9                	addi	a1,a1,-2
   14b00:	9241                	srli	a2,a2,0x30
   14b02:	fd6599e3          	bne	a1,s6,14ad4 <_ldtoa_r+0x480>
   14b06:	4501                	li	a0,0
   14b08:	85de                	mv	a1,s7
   14b0a:	0230                	addi	a2,sp,264
   14b0c:	0005d803          	lhu	a6,0(a1)
   14b10:	00065783          	lhu	a5,0(a2)
   14b14:	15f9                	addi	a1,a1,-2
   14b16:	1679                	addi	a2,a2,-2
   14b18:	97c2                	add	a5,a5,a6
   14b1a:	97aa                	add	a5,a5,a0
   14b1c:	0107d513          	srli	a0,a5,0x10
   14b20:	00f59123          	sh	a5,2(a1)
   14b24:	8905                	andi	a0,a0,1
   14b26:	ff6613e3          	bne	a2,s6,14b0c <_ldtoa_r+0x4b8>
   14b2a:	864a                	mv	a2,s2
   14b2c:	190c                	addi	a1,sp,176
   14b2e:	0988                	addi	a0,sp,208
   14b30:	972ff0ef          	jal	ra,13ca2 <eiremain>
   14b34:	1fc15603          	lhu	a2,508(sp)
   14b38:	001c0793          	addi	a5,s8,1
   14b3c:	2a05                	addiw	s4,s4,1
   14b3e:	0306059b          	addiw	a1,a2,48
   14b42:	feb78fa3          	sb	a1,-1(a5)
   14b46:	03444263          	blt	s0,s4,14b6a <_ldtoa_r+0x516>
   14b4a:	8c3e                	mv	s8,a5
   14b4c:	b701                	j	14a4c <_ldtoa_r+0x3f8>
   14b4e:	1646                	slli	a2,a2,0x31
   14b50:	9245                	srli	a2,a2,0x31
   14b52:	67c1                	lui	a5,0x10
   14b54:	0cc11123          	sh	a2,194(sp)
   14b58:	fff78c13          	addi	s8,a5,-1 # ffff <register_fini-0xe9>
   14b5c:	bef5                	j	14758 <_ldtoa_r+0x104>
   14b5e:	1fc15603          	lhu	a2,508(sp)
   14b62:	17210c13          	addi	s8,sp,370
   14b66:	17310793          	addi	a5,sp,371
   14b6a:	4711                	li	a4,4
   14b6c:	04c75663          	bge	a4,a2,14bb8 <_ldtoa_r+0x564>
   14b70:	4715                	li	a4,5
   14b72:	62e60063          	beq	a2,a4,15192 <_ldtoa_r+0xb3e>
   14b76:	ffe7c703          	lbu	a4,-2(a5)
   14b7a:	ffe78613          	addi	a2,a5,-2
   14b7e:	07f77593          	andi	a1,a4,127
   14b82:	872e                	mv	a4,a1
   14b84:	02044563          	bltz	s0,14bae <_ldtoa_r+0x55a>
   14b88:	02e00513          	li	a0,46
   14b8c:	03800813          	li	a6,56
   14b90:	03000893          	li	a7,48
   14b94:	5aa58363          	beq	a1,a0,1513a <_ldtoa_r+0xae6>
   14b98:	5ae85d63          	bge	a6,a4,15152 <_ldtoa_r+0xafe>
   14b9c:	fff64783          	lbu	a5,-1(a2)
   14ba0:	01160023          	sb	a7,0(a2)
   14ba4:	167d                	addi	a2,a2,-1
   14ba6:	07f7f593          	andi	a1,a5,127
   14baa:	872e                	mv	a4,a1
   14bac:	b7e5                	j	14b94 <_ldtoa_r+0x540>
   14bae:	03100713          	li	a4,49
   14bb2:	fee78f23          	sb	a4,-2(a5)
   14bb6:	2485                	addiw	s1,s1,1
   14bb8:	65f5                	lui	a1,0x1d
   14bba:	8626                	mv	a2,s1
   14bbc:	ab858593          	addi	a1,a1,-1352 # 1cab8 <zeroes.0+0x70>
   14bc0:	8562                	mv	a0,s8
   14bc2:	22b010ef          	jal	ra,165ec <sprintf>
   14bc6:	0a215783          	lhu	a5,162(sp)
   14bca:	7722                	ld	a4,40(sp)
   14bcc:	1c912023          	sw	s1,448(sp)
   14bd0:	fff7c793          	not	a5,a5
   14bd4:	1ae12a23          	sw	a4,436(sp)
   14bd8:	03179713          	slli	a4,a5,0x31
   14bdc:	14070363          	beqz	a4,14d22 <_ldtoa_r+0x6ce>
   14be0:	7682                	ld	a3,32(sp)
   14be2:	17014703          	lbu	a4,368(sp)
   14be6:	0014879b          	addiw	a5,s1,1
   14bea:	c29c                	sw	a5,0(a3)
   14bec:	87e6                	mv	a5,s9
   14bee:	c70d                	beqz	a4,14c18 <_ldtoa_r+0x5c4>
   14bf0:	02e00693          	li	a3,46
   14bf4:	1ad70063          	beq	a4,a3,14d94 <_ldtoa_r+0x740>
   14bf8:	0017c703          	lbu	a4,1(a5)
   14bfc:	0785                	addi	a5,a5,1
   14bfe:	fb7d                	bnez	a4,14bf4 <_ldtoa_r+0x5a0>
   14c00:	04500693          	li	a3,69
   14c04:	00fce563          	bltu	s9,a5,14c0e <_ldtoa_r+0x5ba>
   14c08:	a801                	j	14c18 <_ldtoa_r+0x5c4>
   14c0a:	01978763          	beq	a5,s9,14c18 <_ldtoa_r+0x5c4>
   14c0e:	fff7c703          	lbu	a4,-1(a5)
   14c12:	17fd                	addi	a5,a5,-1
   14c14:	fed71be3          	bne	a4,a3,14c0a <_ldtoa_r+0x5b6>
   14c18:	00078023          	sb	zero,0(a5)
   14c1c:	87e6                	mv	a5,s9
   14c1e:	02000693          	li	a3,32
   14c22:	02d00613          	li	a2,45
   14c26:	0007c703          	lbu	a4,0(a5)
   14c2a:	00d70463          	beq	a4,a3,14c32 <_ldtoa_r+0x5de>
   14c2e:	00c71463          	bne	a4,a2,14c36 <_ldtoa_r+0x5e2>
   14c32:	0785                	addi	a5,a5,1
   14c34:	bfcd                	j	14c26 <_ldtoa_r+0x5d2>
   14c36:	8466                	mv	s0,s9
   14c38:	a021                	j	14c40 <_ldtoa_r+0x5ec>
   14c3a:	0007c703          	lbu	a4,0(a5)
   14c3e:	8436                	mv	s0,a3
   14c40:	00e40023          	sb	a4,0(s0)
   14c44:	00140693          	addi	a3,s0,1
   14c48:	0785                	addi	a5,a5,1
   14c4a:	fb65                	bnez	a4,14c3a <_ldtoa_r+0x5e6>
   14c4c:	6722                	ld	a4,8(sp)
   14c4e:	4789                	li	a5,2
   14c50:	fff44683          	lbu	a3,-1(s0)
   14c54:	0ef70763          	beq	a4,a5,14d42 <_ldtoa_r+0x6ee>
   14c58:	6742                	ld	a4,16(sp)
   14c5a:	87ba                	mv	a5,a4
   14c5c:	00975363          	bge	a4,s1,14c62 <_ldtoa_r+0x60e>
   14c60:	87a6                	mv	a5,s1
   14c62:	03000613          	li	a2,48
   14c66:	0007871b          	sext.w	a4,a5
   14c6a:	02c69463          	bne	a3,a2,14c92 <_ldtoa_r+0x63e>
   14c6e:	419407b3          	sub	a5,s0,s9
   14c72:	02f75063          	bge	a4,a5,14c92 <_ldtoa_r+0x63e>
   14c76:	03000693          	li	a3,48
   14c7a:	a029                	j	14c84 <_ldtoa_r+0x630>
   14c7c:	419407b3          	sub	a5,s0,s9
   14c80:	00f75963          	bge	a4,a5,14c92 <_ldtoa_r+0x63e>
   14c84:	ffe44783          	lbu	a5,-2(s0)
   14c88:	fe040fa3          	sb	zero,-1(s0)
   14c8c:	147d                	addi	s0,s0,-1
   14c8e:	fed787e3          	beq	a5,a3,14c7c <_ldtoa_r+0x628>
   14c92:	6722                	ld	a4,8(sp)
   14c94:	478d                	li	a5,3
   14c96:	0cf70063          	beq	a4,a5,14d56 <_ldtoa_r+0x702>
   14c9a:	67e2                	ld	a5,24(sp)
   14c9c:	0609a423          	sw	zero,104(s3)
   14ca0:	0097861b          	addiw	a2,a5,9
   14ca4:	47fd                	li	a5,31
   14ca6:	0cc7f963          	bgeu	a5,a2,14d78 <_ldtoa_r+0x724>
   14caa:	4705                	li	a4,1
   14cac:	4791                	li	a5,4
   14cae:	0017979b          	slliw	a5,a5,0x1
   14cb2:	01c78693          	addi	a3,a5,28
   14cb6:	0007059b          	sext.w	a1,a4
   14cba:	2705                	addiw	a4,a4,1
   14cbc:	fed679e3          	bgeu	a2,a3,14cae <_ldtoa_r+0x65a>
   14cc0:	06b9a423          	sw	a1,104(s3)
   14cc4:	854e                	mv	a0,s3
   14cc6:	2c5000ef          	jal	ra,1578a <_Balloc>
   14cca:	84aa                	mv	s1,a0
   14ccc:	64050e63          	beqz	a0,15328 <_ldtoa_r+0xcd4>
   14cd0:	06a9b023          	sd	a0,96(s3)
   14cd4:	85e6                	mv	a1,s9
   14cd6:	325010ef          	jal	ra,167fa <strcpy>
   14cda:	7742                	ld	a4,48(sp)
   14cdc:	c709                	beqz	a4,14ce6 <_ldtoa_r+0x692>
   14cde:	419407b3          	sub	a5,s0,s9
   14ce2:	97a6                	add	a5,a5,s1
   14ce4:	e31c                	sd	a5,0(a4)
   14ce6:	26813083          	ld	ra,616(sp)
   14cea:	26013403          	ld	s0,608(sp)
   14cee:	25013903          	ld	s2,592(sp)
   14cf2:	24813983          	ld	s3,584(sp)
   14cf6:	24013a03          	ld	s4,576(sp)
   14cfa:	23813a83          	ld	s5,568(sp)
   14cfe:	23013b03          	ld	s6,560(sp)
   14d02:	22813b83          	ld	s7,552(sp)
   14d06:	22013c03          	ld	s8,544(sp)
   14d0a:	21813c83          	ld	s9,536(sp)
   14d0e:	21013d03          	ld	s10,528(sp)
   14d12:	20813d83          	ld	s11,520(sp)
   14d16:	8526                	mv	a0,s1
   14d18:	25813483          	ld	s1,600(sp)
   14d1c:	27010113          	addi	sp,sp,624
   14d20:	8082                	ret
   14d22:	091c                	addi	a5,sp,144
   14d24:	0a210693          	addi	a3,sp,162
   14d28:	0007d703          	lhu	a4,0(a5)
   14d2c:	0789                	addi	a5,a5,2
   14d2e:	42071663          	bnez	a4,1515a <_ldtoa_r+0xb06>
   14d32:	fed79be3          	bne	a5,a3,14d28 <_ldtoa_r+0x6d4>
   14d36:	7702                	ld	a4,32(sp)
   14d38:	6789                	lui	a5,0x2
   14d3a:	70f78793          	addi	a5,a5,1807 # 270f <register_fini-0xd9d9>
   14d3e:	c31c                	sw	a5,0(a4)
   14d40:	bdf1                	j	14c1c <_ldtoa_r+0x5c8>
   14d42:	03000793          	li	a5,48
   14d46:	f4f69ae3          	bne	a3,a5,14c9a <_ldtoa_r+0x646>
   14d4a:	419407b3          	sub	a5,s0,s9
   14d4e:	4705                	li	a4,1
   14d50:	f2f743e3          	blt	a4,a5,14c76 <_ldtoa_r+0x622>
   14d54:	b799                	j	14c9a <_ldtoa_r+0x646>
   14d56:	67c2                	ld	a5,16(sp)
   14d58:	9cbd                	addw	s1,s1,a5
   14d5a:	3804cf63          	bltz	s1,150f8 <_ldtoa_r+0xaa4>
   14d5e:	7782                	ld	a5,32(sp)
   14d60:	6762                	ld	a4,24(sp)
   14d62:	439c                	lw	a5,0(a5)
   14d64:	9fb9                	addw	a5,a5,a4
   14d66:	ec3e                	sd	a5,24(sp)
   14d68:	67e2                	ld	a5,24(sp)
   14d6a:	0609a423          	sw	zero,104(s3)
   14d6e:	0037861b          	addiw	a2,a5,3
   14d72:	47fd                	li	a5,31
   14d74:	f2c7ebe3          	bltu	a5,a2,14caa <_ldtoa_r+0x656>
   14d78:	4581                	li	a1,0
   14d7a:	b7a9                	j	14cc4 <_ldtoa_r+0x670>
   14d7c:	67e2                	ld	a5,24(sp)
   14d7e:	02a00713          	li	a4,42
   14d82:	8c3e                	mv	s8,a5
   14d84:	00f75463          	bge	a4,a5,14d8c <_ldtoa_r+0x738>
   14d88:	02a00c13          	li	s8,42
   14d8c:	000c079b          	sext.w	a5,s8
   14d90:	e83e                	sd	a5,16(sp)
   14d92:	baa5                	j	1470a <_ldtoa_r+0xb6>
   14d94:	0007c703          	lbu	a4,0(a5)
   14d98:	e60704e3          	beqz	a4,14c00 <_ldtoa_r+0x5ac>
   14d9c:	0017c703          	lbu	a4,1(a5)
   14da0:	0785                	addi	a5,a5,1
   14da2:	fee78fa3          	sb	a4,-1(a5)
   14da6:	e4070de3          	beqz	a4,14c00 <_ldtoa_r+0x5ac>
   14daa:	0017c703          	lbu	a4,1(a5)
   14dae:	0785                	addi	a5,a5,1
   14db0:	fee78fa3          	sb	a4,-1(a5)
   14db4:	f765                	bnez	a4,14d9c <_ldtoa_r+0x748>
   14db6:	b5a9                	j	14c00 <_ldtoa_r+0x5ac>
   14db8:	03100713          	li	a4,49
   14dbc:	16e108a3          	sb	a4,369(sp)
   14dc0:	02e00713          	li	a4,46
   14dc4:	16e10923          	sb	a4,370(sp)
   14dc8:	2485                	addiw	s1,s1,1
   14dca:	1ef05463          	blez	a5,14fb2 <_ldtoa_r+0x95e>
   14dce:	03000793          	li	a5,48
   14dd2:	16f109a3          	sb	a5,371(sp)
   14dd6:	347d                	addiw	s0,s0,-1
   14dd8:	17410c13          	addi	s8,sp,372
   14ddc:	b9b9                	j	14a3a <_ldtoa_r+0x3e6>
   14dde:	17010c93          	addi	s9,sp,368
   14de2:	65f5                	lui	a1,0x1d
   14de4:	b4058593          	addi	a1,a1,-1216 # 1cb40 <zeroes.0+0xf8>
   14de8:	8566                	mv	a0,s9
   14dea:	6489                	lui	s1,0x2
   14dec:	001010ef          	jal	ra,165ec <sprintf>
   14df0:	70f48493          	addi	s1,s1,1807 # 270f <register_fini-0xd9d9>
   14df4:	bbc9                	j	14bc6 <_ldtoa_r+0x572>
   14df6:	0f010d13          	addi	s10,sp,240
   14dfa:	876a                	mv	a4,s10
   14dfc:	191c                	addi	a5,sp,176
   14dfe:	01d0                	addi	a2,sp,196
   14e00:	0007d683          	lhu	a3,0(a5)
   14e04:	0789                	addi	a5,a5,2
   14e06:	0709                	addi	a4,a4,2
   14e08:	fed71f23          	sh	a3,-2(a4)
   14e0c:	fec79ae3          	bne	a5,a2,14e00 <_ldtoa_r+0x7ac>
   14e10:	6791                	lui	a5,0x4
   14e12:	08e78793          	addi	a5,a5,142 # 408e <register_fini-0xc05a>
   14e16:	10f11123          	sh	a5,258(sp)
   14e1a:	47c1                	li	a5,16
   14e1c:	fc3e                	sd	a5,56(sp)
   14e1e:	67a1                	lui	a5,0x8
   14e20:	17fd                	addi	a5,a5,-1
   14e22:	e4be                	sd	a5,72(sp)
   14e24:	77f1                	lui	a5,0xffffc
   14e26:	2789                	addiw	a5,a5,2
   14e28:	4481                	li	s1,0
   14e2a:	0d0b8313          	addi	t1,s7,208
   14e2e:	17010c93          	addi	s9,sp,368
   14e32:	1b010913          	addi	s2,sp,432
   14e36:	0a00                	addi	s0,sp,272
   14e38:	0e210a13          	addi	s4,sp,226
   14e3c:	cabe                	sw	a5,84(sp)
   14e3e:	851a                	mv	a0,t1
   14e40:	86ca                	mv	a3,s2
   14e42:	0990                	addi	a2,sp,208
   14e44:	85ea                	mv	a1,s10
   14e46:	e09a                	sd	t1,64(sp)
   14e48:	ad8ff0ef          	jal	ra,14120 <ediv>
   14e4c:	6306                	ld	t1,64(sp)
   14e4e:	18b8                	addi	a4,sp,120
   14e50:	099c                	addi	a5,sp,208
   14e52:	0007d683          	lhu	a3,0(a5) # ffffffffffffc000 <__BSS_END__+0xfffffffffffdc6e8>
   14e56:	0789                	addi	a5,a5,2
   14e58:	0709                	addi	a4,a4,2
   14e5a:	fed71f23          	sh	a3,-2(a4)
   14e5e:	ffb79ae3          	bne	a5,s11,14e52 <_ldtoa_r+0x7fe>
   14e62:	67a6                	ld	a5,72(sp)
   14e64:	08a15503          	lhu	a0,138(sp)
   14e68:	00f575b3          	and	a1,a0,a5
   14e6c:	47d6                	lw	a5,84(sp)
   14e6e:	9fad                	addw	a5,a5,a1
   14e70:	8e3e                	mv	t3,a5
   14e72:	28f05a63          	blez	a5,15106 <_ldtoa_r+0xab2>
   14e76:	09000593          	li	a1,144
   14e7a:	9d9d                	subw	a1,a1,a5
   14e7c:	8722                	mv	a4,s0
   14e7e:	18bc                	addi	a5,sp,120
   14e80:	0170                	addi	a2,sp,140
   14e82:	0007d683          	lhu	a3,0(a5)
   14e86:	0789                	addi	a5,a5,2
   14e88:	0709                	addi	a4,a4,2
   14e8a:	fed71f23          	sh	a3,-2(a4)
   14e8e:	fec79ae3          	bne	a5,a2,14e82 <_ldtoa_r+0x82e>
   14e92:	04b05963          	blez	a1,14ee4 <_ldtoa_r+0x890>
   14e96:	47bd                	li	a5,15
   14e98:	8722                	mv	a4,s0
   14e9a:	02b7d963          	bge	a5,a1,14ecc <_ldtoa_r+0x878>
   14e9e:	08000693          	li	a3,128
   14ea2:	41c686bb          	subw	a3,a3,t3
   14ea6:	0046d69b          	srliw	a3,a3,0x4
   14eaa:	0016871b          	addiw	a4,a3,1
   14eae:	0706                	slli	a4,a4,0x1
   14eb0:	9722                	add	a4,a4,s0
   14eb2:	87a2                	mv	a5,s0
   14eb4:	0789                	addi	a5,a5,2
   14eb6:	fe079f23          	sh	zero,-2(a5)
   14eba:	fef71de3          	bne	a4,a5,14eb4 <_ldtoa_r+0x860>
   14ebe:	08000593          	li	a1,128
   14ec2:	41c585bb          	subw	a1,a1,t3
   14ec6:	0046969b          	slliw	a3,a3,0x4
   14eca:	9d95                	subw	a1,a1,a3
   14ecc:	00159793          	slli	a5,a1,0x1
   14ed0:	97de                	add	a5,a5,s7
   14ed2:	00075683          	lhu	a3,0(a4)
   14ed6:	2407d783          	lhu	a5,576(a5)
   14eda:	8ff5                	and	a5,a5,a3
   14edc:	00f71023          	sh	a5,0(a4)
   14ee0:	813d                	srli	a0,a0,0xf
   14ee2:	e17d                	bnez	a0,14fc8 <_ldtoa_r+0x974>
   14ee4:	099c                	addi	a5,sp,208
   14ee6:	8722                	mv	a4,s0
   14ee8:	0007d603          	lhu	a2,0(a5)
   14eec:	00075683          	lhu	a3,0(a4)
   14ef0:	02d61263          	bne	a2,a3,14f14 <_ldtoa_r+0x8c0>
   14ef4:	0789                	addi	a5,a5,2
   14ef6:	0709                	addi	a4,a4,2
   14ef8:	fefa18e3          	bne	s4,a5,14ee8 <_ldtoa_r+0x894>
   14efc:	876a                	mv	a4,s10
   14efe:	099c                	addi	a5,sp,208
   14f00:	0007d683          	lhu	a3,0(a5)
   14f04:	0789                	addi	a5,a5,2
   14f06:	0709                	addi	a4,a4,2
   14f08:	fed71f23          	sh	a3,-2(a4)
   14f0c:	ffb79ae3          	bne	a5,s11,14f00 <_ldtoa_r+0x8ac>
   14f10:	77e2                	ld	a5,56(sp)
   14f12:	9cbd                	addw	s1,s1,a5
   14f14:	7762                	ld	a4,56(sp)
   14f16:	0351                	addi	t1,t1,20
   14f18:	134b8793          	addi	a5,s7,308
   14f1c:	8305                	srli	a4,a4,0x1
   14f1e:	fc3a                	sd	a4,56(sp)
   14f20:	f0f31fe3          	bne	t1,a5,14e3e <_ldtoa_r+0x7ea>
   14f24:	10215783          	lhu	a5,258(sp)
   14f28:	0c215703          	lhu	a4,194(sp)
   14f2c:	0250                	addi	a2,sp,260
   14f2e:	9fb9                	addw	a5,a5,a4
   14f30:	7771                	lui	a4,0xffffc
   14f32:	f727071b          	addiw	a4,a4,-142
   14f36:	9fb9                	addw	a5,a5,a4
   14f38:	10f11123          	sh	a5,258(sp)
   14f3c:	1918                	addi	a4,sp,176
   14f3e:	87ea                	mv	a5,s10
   14f40:	0007d683          	lhu	a3,0(a5)
   14f44:	0789                	addi	a5,a5,2
   14f46:	0709                	addi	a4,a4,2
   14f48:	fed71f23          	sh	a3,-2(a4) # ffffffffffffbffe <__BSS_END__+0xfffffffffffdc6e6>
   14f4c:	fec79ae3          	bne	a5,a2,14f40 <_ldtoa_r+0x8ec>
   14f50:	4701                	li	a4,0
   14f52:	099c                	addi	a5,sp,208
   14f54:	a019                	j	14f5a <_ldtoa_r+0x906>
   14f56:	000b5703          	lhu	a4,0(s6)
   14f5a:	0789                	addi	a5,a5,2
   14f5c:	fee79f23          	sh	a4,-2(a5)
   14f60:	0b09                	addi	s6,s6,2
   14f62:	ffb79ae3          	bne	a5,s11,14f56 <_ldtoa_r+0x902>
   14f66:	030b8d93          	addi	s11,s7,48
   14f6a:	6b05                	lui	s6,0x1
   14f6c:	120b8b93          	addi	s7,s7,288
   14f70:	a031                	j	14f7c <_ldtoa_r+0x928>
   14f72:	001b5b13          	srli	s6,s6,0x1
   14f76:	1b7d8e63          	beq	s11,s7,15132 <_ldtoa_r+0xade>
   14f7a:	0dd1                	addi	s11,s11,20
   14f7c:	85ea                	mv	a1,s10
   14f7e:	855e                	mv	a0,s7
   14f80:	933fe0ef          	jal	ra,138b2 <ecmp>
   14f84:	1aa04763          	bgtz	a0,15132 <_ldtoa_r+0xade>
   14f88:	85ea                	mv	a1,s10
   14f8a:	856e                	mv	a0,s11
   14f8c:	927fe0ef          	jal	ra,138b2 <ecmp>
   14f90:	fea041e3          	bgtz	a0,14f72 <_ldtoa_r+0x91e>
   14f94:	86ca                	mv	a3,s2
   14f96:	866a                	mv	a2,s10
   14f98:	85ea                	mv	a1,s10
   14f9a:	856e                	mv	a0,s11
   14f9c:	984ff0ef          	jal	ra,14120 <ediv>
   14fa0:	0990                	addi	a2,sp,208
   14fa2:	86ca                	mv	a3,s2
   14fa4:	85b2                	mv	a1,a2
   14fa6:	856e                	mv	a0,s11
   14fa8:	dedfe0ef          	jal	ra,13d94 <emul>
   14fac:	009b04bb          	addw	s1,s6,s1
   14fb0:	b7c9                	j	14f72 <_ldtoa_r+0x91e>
   14fb2:	17310c13          	addi	s8,sp,371
   14fb6:	c00791e3          	bnez	a5,14bb8 <_ldtoa_r+0x564>
   14fba:	b441                	j	14a3a <_ldtoa_r+0x3e6>
   14fbc:	4681                	li	a3,0
   14fbe:	f3aff06f          	j	146f8 <_ldtoa_r+0xa4>
   14fc2:	67e2                	ld	a5,24(sp)
   14fc4:	37fd                	addiw	a5,a5,-1
   14fc6:	bb65                	j	14d7e <_ldtoa_r+0x72a>
   14fc8:	18bc                	addi	a5,sp,120
   14fca:	8722                	mv	a4,s0
   14fcc:	a039                	j	14fda <_ldtoa_r+0x986>
   14fce:	0789                	addi	a5,a5,2
   14fd0:	08a10693          	addi	a3,sp,138
   14fd4:	0709                	addi	a4,a4,2
   14fd6:	f0f687e3          	beq	a3,a5,14ee4 <_ldtoa_r+0x890>
   14fda:	0007d603          	lhu	a2,0(a5)
   14fde:	00075683          	lhu	a3,0(a4)
   14fe2:	fed606e3          	beq	a2,a3,14fce <_ldtoa_r+0x97a>
   14fe6:	12215783          	lhu	a5,290(sp)
   14fea:	6726                	ld	a4,72(sp)
   14fec:	8ff9                	and	a5,a5,a4
   14fee:	2ce78c63          	beq	a5,a4,152c6 <_ldtoa_r+0xc72>
   14ff2:	1a0c                	addi	a1,sp,304
   14ff4:	855a                	mv	a0,s6
   14ff6:	e09a                	sd	t1,64(sp)
   14ff8:	825fe0ef          	jal	ra,1381c <emovi>
   14ffc:	0a8c                	addi	a1,sp,336
   14ffe:	8522                	mv	a0,s0
   15000:	81dfe0ef          	jal	ra,1381c <emovi>
   15004:	13015703          	lhu	a4,304(sp)
   15008:	15215603          	lhu	a2,338(sp)
   1500c:	13215503          	lhu	a0,306(sp)
   15010:	fff74713          	not	a4,a4
   15014:	1742                	slli	a4,a4,0x30
   15016:	9341                	srli	a4,a4,0x30
   15018:	12e11823          	sh	a4,304(sp)
   1501c:	40c505b3          	sub	a1,a0,a2
   15020:	6306                	ld	t1,64(sp)
   15022:	86b2                	mv	a3,a2
   15024:	04b05e63          	blez	a1,15080 <_ldtoa_r+0xa2c>
   15028:	85e6                	mv	a1,s9
   1502a:	0a94                	addi	a3,sp,336
   1502c:	12bc                	addi	a5,sp,360
   1502e:	0006de03          	lhu	t3,0(a3)
   15032:	0689                	addi	a3,a3,2
   15034:	0589                	addi	a1,a1,2
   15036:	ffc59f23          	sh	t3,-2(a1)
   1503a:	fef69ae3          	bne	a3,a5,1502e <_ldtoa_r+0x9da>
   1503e:	18011423          	sh	zero,392(sp)
   15042:	0a94                	addi	a3,sp,336
   15044:	1a0c                	addi	a1,sp,304
   15046:	a019                	j	1504c <_ldtoa_r+0x9f8>
   15048:	0005d703          	lhu	a4,0(a1)
   1504c:	0689                	addi	a3,a3,2
   1504e:	fee69f23          	sh	a4,-2(a3)
   15052:	0589                	addi	a1,a1,2
   15054:	fef69ae3          	bne	a3,a5,15048 <_ldtoa_r+0x9f4>
   15058:	16011423          	sh	zero,360(sp)
   1505c:	1a18                	addi	a4,sp,304
   1505e:	87e6                	mv	a5,s9
   15060:	032c                	addi	a1,sp,392
   15062:	0007d683          	lhu	a3,0(a5)
   15066:	0789                	addi	a5,a5,2
   15068:	0709                	addi	a4,a4,2
   1506a:	fed71f23          	sh	a3,-2(a4)
   1506e:	feb79ae3          	bne	a5,a1,15062 <_ldtoa_r+0xa0e>
   15072:	15215683          	lhu	a3,338(sp)
   15076:	40a605b3          	sub	a1,a2,a0
   1507a:	14011423          	sh	zero,328(sp)
   1507e:	8636                	mv	a2,a3
   15080:	26058863          	beqz	a1,152f0 <_ldtoa_r+0xc9c>
   15084:	ecb6                	sd	a3,88(sp)
   15086:	f6f00793          	li	a5,-145
   1508a:	06f5c063          	blt	a1,a5,150ea <_ldtoa_r+0xa96>
   1508e:	2581                	sext.w	a1,a1
   15090:	1a08                	addi	a0,sp,304
   15092:	e09a                	sd	t1,64(sp)
   15094:	e08fe0ef          	jal	ra,1369c <eshift.part.0>
   15098:	6306                	ld	t1,64(sp)
   1509a:	66e6                	ld	a3,88(sp)
   1509c:	85aa                	mv	a1,a0
   1509e:	12bc                	addi	a5,sp,360
   150a0:	02b8                	addi	a4,sp,328
   150a2:	13015503          	lhu	a0,304(sp)
   150a6:	15015603          	lhu	a2,336(sp)
   150aa:	2cc50363          	beq	a0,a2,15370 <_ldtoa_r+0xd1c>
   150ae:	4e01                	li	t3,0
   150b0:	15210513          	addi	a0,sp,338
   150b4:	0007d603          	lhu	a2,0(a5)
   150b8:	00075e83          	lhu	t4,0(a4)
   150bc:	17f9                	addi	a5,a5,-2
   150be:	41c60633          	sub	a2,a2,t3
   150c2:	41d60633          	sub	a2,a2,t4
   150c6:	01065e13          	srli	t3,a2,0x10
   150ca:	00c79123          	sh	a2,2(a5)
   150ce:	001e7e13          	andi	t3,t3,1
   150d2:	1779                	addi	a4,a4,-2
   150d4:	fea790e3          	bne	a5,a0,150b4 <_ldtoa_r+0xa60>
   150d8:	4605                	li	a2,1
   150da:	87ca                	mv	a5,s2
   150dc:	04000713          	li	a4,64
   150e0:	0a88                	addi	a0,sp,336
   150e2:	e09a                	sd	t1,64(sp)
   150e4:	8b3fe0ef          	jal	ra,13996 <emdnorm>
   150e8:	6306                	ld	t1,64(sp)
   150ea:	85a2                	mv	a1,s0
   150ec:	0a88                	addi	a0,sp,336
   150ee:	e09a                	sd	t1,64(sp)
   150f0:	c16fe0ef          	jal	ra,13506 <emovo.constprop.0>
   150f4:	6306                	ld	t1,64(sp)
   150f6:	b3fd                	j	14ee4 <_ldtoa_r+0x890>
   150f8:	7782                	ld	a5,32(sp)
   150fa:	16010823          	sb	zero,368(sp)
   150fe:	8466                	mv	s0,s9
   15100:	0007a023          	sw	zero,0(a5)
   15104:	b195                	j	14d68 <_ldtoa_r+0x714>
   15106:	87a2                	mv	a5,s0
   15108:	1258                	addi	a4,sp,292
   1510a:	0789                	addi	a5,a5,2
   1510c:	fe079f23          	sh	zero,-2(a5)
   15110:	fee79de3          	bne	a5,a4,1510a <_ldtoa_r+0xab6>
   15114:	b3f1                	j	14ee0 <_ldtoa_r+0x88c>
   15116:	17010c93          	addi	s9,sp,368
   1511a:	0a0c0f63          	beqz	s8,151d8 <_ldtoa_r+0xb84>
   1511e:	65f5                	lui	a1,0x1d
   15120:	a9058593          	addi	a1,a1,-1392 # 1ca90 <zeroes.0+0x48>
   15124:	8566                	mv	a0,s9
   15126:	6489                	lui	s1,0x2
   15128:	4c4010ef          	jal	ra,165ec <sprintf>
   1512c:	70f48493          	addi	s1,s1,1807 # 270f <register_fini-0xd9d9>
   15130:	bc59                	j	14bc6 <_ldtoa_r+0x572>
   15132:	12810a13          	addi	s4,sp,296
   15136:	f5eff06f          	j	14894 <_ldtoa_r+0x240>
   1513a:	fff64783          	lbu	a5,-1(a2)
   1513e:	03800713          	li	a4,56
   15142:	0af77563          	bgeu	a4,a5,151ec <_ldtoa_r+0xb98>
   15146:	03100793          	li	a5,49
   1514a:	2485                	addiw	s1,s1,1
   1514c:	fef60fa3          	sb	a5,-1(a2)
   15150:	b4a5                	j	14bb8 <_ldtoa_r+0x564>
   15152:	2585                	addiw	a1,a1,1
   15154:	00b60023          	sb	a1,0(a2)
   15158:	b485                	j	14bb8 <_ldtoa_r+0x564>
   1515a:	091c                	addi	a5,sp,144
   1515c:	0a210693          	addi	a3,sp,162
   15160:	a019                	j	15166 <_ldtoa_r+0xb12>
   15162:	a6d78fe3          	beq	a5,a3,14be0 <_ldtoa_r+0x58c>
   15166:	0007d703          	lhu	a4,0(a5)
   1516a:	0789                	addi	a5,a5,2
   1516c:	db7d                	beqz	a4,15162 <_ldtoa_r+0xb0e>
   1516e:	7702                	ld	a4,32(sp)
   15170:	6789                	lui	a5,0x2
   15172:	70f78793          	addi	a5,a5,1807 # 270f <register_fini-0xd9d9>
   15176:	c31c                	sw	a5,0(a4)
   15178:	b455                	j	14c1c <_ldtoa_r+0x5c8>
   1517a:	17010c93          	addi	s9,sp,368
   1517e:	65f5                	lui	a1,0x1d
   15180:	ab058593          	addi	a1,a1,-1360 # 1cab0 <zeroes.0+0x68>
   15184:	8566                	mv	a0,s9
   15186:	6489                	lui	s1,0x2
   15188:	464010ef          	jal	ra,165ec <sprintf>
   1518c:	70f48493          	addi	s1,s1,1807 # 270f <register_fini-0xd9d9>
   15190:	bc1d                	j	14bc6 <_ldtoa_r+0x572>
   15192:	098c                	addi	a1,sp,208
   15194:	1908                	addi	a0,sp,176
   15196:	fc3e                	sd	a5,56(sp)
   15198:	b6efe0ef          	jal	ra,13506 <emovo.constprop.0>
   1519c:	b48a8593          	addi	a1,s5,-1208
   151a0:	0988                	addi	a0,sp,208
   151a2:	f10fe0ef          	jal	ra,138b2 <ecmp>
   151a6:	77e2                	ld	a5,56(sp)
   151a8:	9c0517e3          	bnez	a0,14b76 <_ldtoa_r+0x522>
   151ac:	a00446e3          	bltz	s0,14bb8 <_ldtoa_r+0x564>
   151b0:	ffe7c703          	lbu	a4,-2(a5)
   151b4:	fd270613          	addi	a2,a4,-46
   151b8:	00163613          	seqz	a2,a2
   151bc:	fff64613          	not	a2,a2
   151c0:	9662                	add	a2,a2,s8
   151c2:	00064603          	lbu	a2,0(a2)
   151c6:	8a05                	andi	a2,a2,1
   151c8:	9e0608e3          	beqz	a2,14bb8 <_ldtoa_r+0x564>
   151cc:	07f77593          	andi	a1,a4,127
   151d0:	ffe78613          	addi	a2,a5,-2
   151d4:	872e                	mv	a4,a1
   151d6:	ba4d                	j	14b88 <_ldtoa_r+0x534>
   151d8:	65f5                	lui	a1,0x1d
   151da:	aa058593          	addi	a1,a1,-1376 # 1caa0 <zeroes.0+0x58>
   151de:	8566                	mv	a0,s9
   151e0:	6489                	lui	s1,0x2
   151e2:	40a010ef          	jal	ra,165ec <sprintf>
   151e6:	70f48493          	addi	s1,s1,1807 # 270f <register_fini-0xd9d9>
   151ea:	baf1                	j	14bc6 <_ldtoa_r+0x572>
   151ec:	2785                	addiw	a5,a5,1
   151ee:	fef60fa3          	sb	a5,-1(a2)
   151f2:	b2d9                	j	14bb8 <_ldtoa_r+0x564>
   151f4:	0a00                	addi	s0,sp,272
   151f6:	85a2                	mv	a1,s0
   151f8:	1908                	addi	a0,sp,176
   151fa:	6d11                	lui	s10,0x4
   151fc:	e20fe0ef          	jal	ra,1381c <emovi>
   15200:	4481                	li	s1,0
   15202:	12810a13          	addi	s4,sp,296
   15206:	10810913          	addi	s2,sp,264
   1520a:	11210c93          	addi	s9,sp,274
   1520e:	1d79                	addi	s10,s10,-2
   15210:	12815783          	lhu	a5,296(sp)
   15214:	8b9d                	andi	a5,a5,7
   15216:	e3c5                	bnez	a5,152b6 <_ldtoa_r+0xc62>
   15218:	1998                	addi	a4,sp,240
   1521a:	87a2                	mv	a5,s0
   1521c:	0007d683          	lhu	a3,0(a5)
   15220:	0789                	addi	a5,a5,2
   15222:	0709                	addi	a4,a4,2
   15224:	fed71f23          	sh	a3,-2(a4)
   15228:	ff479ae3          	bne	a5,s4,1521c <_ldtoa_r+0xbc8>
   1522c:	1988                	addi	a0,sp,240
   1522e:	10011423          	sh	zero,264(sp)
   15232:	9c4fe0ef          	jal	ra,133f6 <eshdn1>
   15236:	1988                	addi	a0,sp,240
   15238:	9befe0ef          	jal	ra,133f6 <eshdn1>
   1523c:	4601                	li	a2,0
   1523e:	86ca                	mv	a3,s2
   15240:	8752                	mv	a4,s4
   15242:	0006d583          	lhu	a1,0(a3)
   15246:	00075783          	lhu	a5,0(a4)
   1524a:	16f9                	addi	a3,a3,-2
   1524c:	1779                	addi	a4,a4,-2
   1524e:	97ae                	add	a5,a5,a1
   15250:	97b2                	add	a5,a5,a2
   15252:	0107d613          	srli	a2,a5,0x10
   15256:	00f69123          	sh	a5,2(a3)
   1525a:	8a05                	andi	a2,a2,1
   1525c:	ff9713e3          	bne	a4,s9,15242 <_ldtoa_r+0xbee>
   15260:	0f215783          	lhu	a5,242(sp)
   15264:	0f415703          	lhu	a4,244(sp)
   15268:	278d                	addiw	a5,a5,3
   1526a:	0ef11923          	sh	a5,242(sp)
   1526e:	cf01                	beqz	a4,15286 <_ldtoa_r+0xc32>
   15270:	1988                	addi	a0,sp,240
   15272:	984fe0ef          	jal	ra,133f6 <eshdn1>
   15276:	0f215783          	lhu	a5,242(sp)
   1527a:	0f415703          	lhu	a4,244(sp)
   1527e:	2785                	addiw	a5,a5,1
   15280:	0ef11923          	sh	a5,242(sp)
   15284:	f775                	bnez	a4,15270 <_ldtoa_r+0xc1c>
   15286:	10815783          	lhu	a5,264(sp)
   1528a:	e795                	bnez	a5,152b6 <_ldtoa_r+0xc62>
   1528c:	0f215783          	lhu	a5,242(sp)
   15290:	02fd6363          	bltu	s10,a5,152b6 <_ldtoa_r+0xc62>
   15294:	8722                	mv	a4,s0
   15296:	199c                	addi	a5,sp,240
   15298:	0007d683          	lhu	a3,0(a5)
   1529c:	0789                	addi	a5,a5,2
   1529e:	0709                	addi	a4,a4,2
   152a0:	fed71f23          	sh	a3,-2(a4)
   152a4:	ff279ae3          	bne	a5,s2,15298 <_ldtoa_r+0xc44>
   152a8:	12011423          	sh	zero,296(sp)
   152ac:	34fd                	addiw	s1,s1,-1
   152ae:	fd500793          	li	a5,-43
   152b2:	f4f49fe3          	bne	s1,a5,15210 <_ldtoa_r+0xbbc>
   152b6:	190c                	addi	a1,sp,176
   152b8:	8522                	mv	a0,s0
   152ba:	a4cfe0ef          	jal	ra,13506 <emovo.constprop.0>
   152be:	1b010913          	addi	s2,sp,432
   152c2:	d16ff06f          	j	147d8 <_ldtoa_r+0x184>
   152c6:	87a2                	mv	a5,s0
   152c8:	0007d703          	lhu	a4,0(a5)
   152cc:	0789                	addi	a5,a5,2
   152ce:	c0071be3          	bnez	a4,14ee4 <_ldtoa_r+0x890>
   152d2:	12210713          	addi	a4,sp,290
   152d6:	fee799e3          	bne	a5,a4,152c8 <_ldtoa_r+0xc74>
   152da:	87a2                	mv	a5,s0
   152dc:	0007d703          	lhu	a4,0(a5)
   152e0:	0789                	addi	a5,a5,2
   152e2:	d00718e3          	bnez	a4,14ff2 <_ldtoa_r+0x99e>
   152e6:	12210713          	addi	a4,sp,290
   152ea:	fee799e3          	bne	a5,a4,152dc <_ldtoa_r+0xc88>
   152ee:	bedd                	j	14ee4 <_ldtoa_r+0x890>
   152f0:	0ad8                	addi	a4,sp,340
   152f2:	1a5c                	addi	a5,sp,308
   152f4:	0007d503          	lhu	a0,0(a5)
   152f8:	00075583          	lhu	a1,0(a4)
   152fc:	0789                	addi	a5,a5,2
   152fe:	0709                	addi	a4,a4,2
   15300:	04b51063          	bne	a0,a1,15340 <_ldtoa_r+0xcec>
   15304:	14a10593          	addi	a1,sp,330
   15308:	feb796e3          	bne	a5,a1,152f4 <_ldtoa_r+0xca0>
   1530c:	13015703          	lhu	a4,304(sp)
   15310:	15015783          	lhu	a5,336(sp)
   15314:	02f70c63          	beq	a4,a5,1534c <_ldtoa_r+0xcf8>
   15318:	87a2                	mv	a5,s0
   1531a:	1258                	addi	a4,sp,292
   1531c:	0789                	addi	a5,a5,2
   1531e:	fe079f23          	sh	zero,-2(a5)
   15322:	fee79de3          	bne	a5,a4,1531c <_ldtoa_r+0xcc8>
   15326:	be7d                	j	14ee4 <_ldtoa_r+0x890>
   15328:	66f5                	lui	a3,0x1d
   1532a:	6585                	lui	a1,0x1
   1532c:	6575                	lui	a0,0x1d
   1532e:	ac068693          	addi	a3,a3,-1344 # 1cac0 <zeroes.0+0x78>
   15332:	4601                	li	a2,0
   15334:	b6e58593          	addi	a1,a1,-1170 # b6e <register_fini-0xf57a>
   15338:	ad850513          	addi	a0,a0,-1320 # 1cad8 <zeroes.0+0x90>
   1533c:	77b030ef          	jal	ra,192b6 <__assert_func>
   15340:	04a5ec63          	bltu	a1,a0,15398 <_ldtoa_r+0xd44>
   15344:	4581                	li	a1,0
   15346:	12bc                	addi	a5,sp,360
   15348:	02b8                	addi	a4,sp,328
   1534a:	bba1                	j	150a2 <_ldtoa_r+0xa4e>
   1534c:	8736                	mv	a4,a3
   1534e:	e689                	bnez	a3,15358 <_ldtoa_r+0xd04>
   15350:	15611783          	lh	a5,342(sp)
   15354:	0807db63          	bgez	a5,153ea <_ldtoa_r+0xd96>
   15358:	15210713          	addi	a4,sp,338
   1535c:	12bc                	addi	a5,sp,360
   1535e:	00075583          	lhu	a1,0(a4)
   15362:	e1e9                	bnez	a1,15424 <_ldtoa_r+0xdd0>
   15364:	0709                	addi	a4,a4,2
   15366:	fee79ce3          	bne	a5,a4,1535e <_ldtoa_r+0xd0a>
   1536a:	14c11923          	sh	a2,338(sp)
   1536e:	bbb5                	j	150ea <_ldtoa_r+0xa96>
   15370:	4501                	li	a0,0
   15372:	13210e13          	addi	t3,sp,306
   15376:	0007de83          	lhu	t4,0(a5)
   1537a:	00075603          	lhu	a2,0(a4)
   1537e:	17f9                	addi	a5,a5,-2
   15380:	1779                	addi	a4,a4,-2
   15382:	9676                	add	a2,a2,t4
   15384:	962a                	add	a2,a2,a0
   15386:	01065513          	srli	a0,a2,0x10
   1538a:	00c79123          	sh	a2,2(a5)
   1538e:	8905                	andi	a0,a0,1
   15390:	ffc713e3          	bne	a4,t3,15376 <_ldtoa_r+0xd22>
   15394:	4601                	li	a2,0
   15396:	b391                	j	150da <_ldtoa_r+0xa86>
   15398:	8666                	mv	a2,s9
   1539a:	0a98                	addi	a4,sp,336
   1539c:	12bc                	addi	a5,sp,360
   1539e:	00075583          	lhu	a1,0(a4)
   153a2:	0709                	addi	a4,a4,2
   153a4:	0609                	addi	a2,a2,2
   153a6:	feb61f23          	sh	a1,-2(a2)
   153aa:	fef71ae3          	bne	a4,a5,1539e <_ldtoa_r+0xd4a>
   153ae:	18011423          	sh	zero,392(sp)
   153b2:	0a8c                	addi	a1,sp,336
   153b4:	1a10                	addi	a2,sp,304
   153b6:	02b8                	addi	a4,sp,328
   153b8:	00065503          	lhu	a0,0(a2)
   153bc:	0609                	addi	a2,a2,2
   153be:	0589                	addi	a1,a1,2
   153c0:	fea59f23          	sh	a0,-2(a1)
   153c4:	fee61ae3          	bne	a2,a4,153b8 <_ldtoa_r+0xd64>
   153c8:	16011423          	sh	zero,360(sp)
   153cc:	1a08                	addi	a0,sp,304
   153ce:	8666                	mv	a2,s9
   153d0:	032c                	addi	a1,sp,392
   153d2:	00065e03          	lhu	t3,0(a2)
   153d6:	0609                	addi	a2,a2,2
   153d8:	0509                	addi	a0,a0,2
   153da:	ffc51f23          	sh	t3,-2(a0)
   153de:	feb61ae3          	bne	a2,a1,153d2 <_ldtoa_r+0xd7e>
   153e2:	14011423          	sh	zero,328(sp)
   153e6:	4581                	li	a1,0
   153e8:	b96d                	j	150a2 <_ldtoa_r+0xa4e>
   153ea:	12b4                	addi	a3,sp,360
   153ec:	15210513          	addi	a0,sp,338
   153f0:	0006d783          	lhu	a5,0(a3)
   153f4:	00f7d613          	srli	a2,a5,0xf
   153f8:	c219                	beqz	a2,153fe <_ldtoa_r+0xdaa>
   153fa:	00176713          	ori	a4,a4,1
   153fe:	0017979b          	slliw	a5,a5,0x1
   15402:	17c2                	slli	a5,a5,0x30
   15404:	00277613          	andi	a2,a4,2
   15408:	93c1                	srli	a5,a5,0x30
   1540a:	c219                	beqz	a2,15410 <_ldtoa_r+0xdbc>
   1540c:	0017e793          	ori	a5,a5,1
   15410:	0017171b          	slliw	a4,a4,0x1
   15414:	00f69023          	sh	a5,0(a3)
   15418:	1742                	slli	a4,a4,0x30
   1541a:	16f9                	addi	a3,a3,-2
   1541c:	9341                	srli	a4,a4,0x30
   1541e:	fca699e3          	bne	a3,a0,153f0 <_ldtoa_r+0xd9c>
   15422:	b1e1                	j	150ea <_ldtoa_r+0xa96>
   15424:	00168613          	addi	a2,a3,1
   15428:	14c11923          	sh	a2,338(sp)
   1542c:	b97d                	j	150ea <_ldtoa_r+0xa96>

000000000001542e <_ldcheck>:
   1542e:	6118                	ld	a4,0(a0)
   15430:	651c                	ld	a5,8(a0)
   15432:	7139                	addi	sp,sp,-64
   15434:	850a                	mv	a0,sp
   15436:	080c                	addi	a1,sp,16
   15438:	e03a                	sd	a4,0(sp)
   1543a:	e43e                	sd	a5,8(sp)
   1543c:	fc06                	sd	ra,56(sp)
   1543e:	906ff0ef          	jal	ra,14544 <e113toe.isra.0>
   15442:	02215783          	lhu	a5,34(sp)
   15446:	4501                	li	a0,0
   15448:	fff7c793          	not	a5,a5
   1544c:	03179713          	slli	a4,a5,0x31
   15450:	eb19                	bnez	a4,15466 <_ldcheck+0x38>
   15452:	081c                	addi	a5,sp,16
   15454:	02210693          	addi	a3,sp,34
   15458:	0007d703          	lhu	a4,0(a5)
   1545c:	0789                	addi	a5,a5,2
   1545e:	e719                	bnez	a4,1546c <_ldcheck+0x3e>
   15460:	fed79ce3          	bne	a5,a3,15458 <_ldcheck+0x2a>
   15464:	4509                	li	a0,2
   15466:	70e2                	ld	ra,56(sp)
   15468:	6121                	addi	sp,sp,64
   1546a:	8082                	ret
   1546c:	4505                	li	a0,1
   1546e:	bfe5                	j	15466 <_ldcheck+0x38>

0000000000015470 <__localeconv_l>:
   15470:	10050513          	addi	a0,a0,256
   15474:	8082                	ret

0000000000015476 <_localeconv_r>:
   15476:	66818513          	addi	a0,gp,1640 # 1f780 <__global_locale+0x100>
   1547a:	8082                	ret

000000000001547c <localeconv>:
   1547c:	66818513          	addi	a0,gp,1640 # 1f780 <__global_locale+0x100>
   15480:	8082                	ret

0000000000015482 <_setlocale_r>:
   15482:	1101                	addi	sp,sp,-32
   15484:	ec06                	sd	ra,24(sp)
   15486:	e822                	sd	s0,16(sp)
   15488:	e426                	sd	s1,8(sp)
   1548a:	c20d                	beqz	a2,154ac <_setlocale_r+0x2a>
   1548c:	65f5                	lui	a1,0x1d
   1548e:	db858593          	addi	a1,a1,-584 # 1cdb8 <bmask+0x30>
   15492:	8532                	mv	a0,a2
   15494:	8432                	mv	s0,a2
   15496:	27a010ef          	jal	ra,16710 <strcmp>
   1549a:	64f5                	lui	s1,0x1d
   1549c:	e911                	bnez	a0,154b0 <_setlocale_r+0x2e>
   1549e:	db048513          	addi	a0,s1,-592 # 1cdb0 <bmask+0x28>
   154a2:	60e2                	ld	ra,24(sp)
   154a4:	6442                	ld	s0,16(sp)
   154a6:	64a2                	ld	s1,8(sp)
   154a8:	6105                	addi	sp,sp,32
   154aa:	8082                	ret
   154ac:	64f5                	lui	s1,0x1d
   154ae:	bfc5                	j	1549e <_setlocale_r+0x1c>
   154b0:	db048593          	addi	a1,s1,-592 # 1cdb0 <bmask+0x28>
   154b4:	8522                	mv	a0,s0
   154b6:	25a010ef          	jal	ra,16710 <strcmp>
   154ba:	d175                	beqz	a0,1549e <_setlocale_r+0x1c>
   154bc:	65f5                	lui	a1,0x1d
   154be:	89858593          	addi	a1,a1,-1896 # 1c898 <__clzdi2+0x90>
   154c2:	8522                	mv	a0,s0
   154c4:	24c010ef          	jal	ra,16710 <strcmp>
   154c8:	d979                	beqz	a0,1549e <_setlocale_r+0x1c>
   154ca:	4501                	li	a0,0
   154cc:	bfd9                	j	154a2 <_setlocale_r+0x20>

00000000000154ce <__locale_mb_cur_max>:
   154ce:	6c81c503          	lbu	a0,1736(gp) # 1f7e0 <__global_locale+0x160>
   154d2:	8082                	ret

00000000000154d4 <setlocale>:
   154d4:	1101                	addi	sp,sp,-32
   154d6:	ec06                	sd	ra,24(sp)
   154d8:	e822                	sd	s0,16(sp)
   154da:	e426                	sd	s1,8(sp)
   154dc:	c18d                	beqz	a1,154fe <setlocale+0x2a>
   154de:	842e                	mv	s0,a1
   154e0:	65f5                	lui	a1,0x1d
   154e2:	db858593          	addi	a1,a1,-584 # 1cdb8 <bmask+0x30>
   154e6:	8522                	mv	a0,s0
   154e8:	228010ef          	jal	ra,16710 <strcmp>
   154ec:	64f5                	lui	s1,0x1d
   154ee:	e911                	bnez	a0,15502 <setlocale+0x2e>
   154f0:	db048513          	addi	a0,s1,-592 # 1cdb0 <bmask+0x28>
   154f4:	60e2                	ld	ra,24(sp)
   154f6:	6442                	ld	s0,16(sp)
   154f8:	64a2                	ld	s1,8(sp)
   154fa:	6105                	addi	sp,sp,32
   154fc:	8082                	ret
   154fe:	64f5                	lui	s1,0x1d
   15500:	bfc5                	j	154f0 <setlocale+0x1c>
   15502:	db048593          	addi	a1,s1,-592 # 1cdb0 <bmask+0x28>
   15506:	8522                	mv	a0,s0
   15508:	208010ef          	jal	ra,16710 <strcmp>
   1550c:	d175                	beqz	a0,154f0 <setlocale+0x1c>
   1550e:	65f5                	lui	a1,0x1d
   15510:	89858593          	addi	a1,a1,-1896 # 1c898 <__clzdi2+0x90>
   15514:	8522                	mv	a0,s0
   15516:	1fa010ef          	jal	ra,16710 <strcmp>
   1551a:	d979                	beqz	a0,154f0 <setlocale+0x1c>
   1551c:	4501                	li	a0,0
   1551e:	bfd9                	j	154f4 <setlocale+0x20>

0000000000015520 <__smakebuf_r>:
   15520:	0105d783          	lhu	a5,16(a1)
   15524:	7135                	addi	sp,sp,-160
   15526:	e922                	sd	s0,144(sp)
   15528:	ed06                	sd	ra,152(sp)
   1552a:	e526                	sd	s1,136(sp)
   1552c:	e14a                	sd	s2,128(sp)
   1552e:	fcce                	sd	s3,120(sp)
   15530:	f8d2                	sd	s4,112(sp)
   15532:	0027f713          	andi	a4,a5,2
   15536:	842e                	mv	s0,a1
   15538:	cf19                	beqz	a4,15556 <__smakebuf_r+0x36>
   1553a:	07758793          	addi	a5,a1,119
   1553e:	e19c                	sd	a5,0(a1)
   15540:	ed9c                	sd	a5,24(a1)
   15542:	4785                	li	a5,1
   15544:	d19c                	sw	a5,32(a1)
   15546:	60ea                	ld	ra,152(sp)
   15548:	644a                	ld	s0,144(sp)
   1554a:	64aa                	ld	s1,136(sp)
   1554c:	690a                	ld	s2,128(sp)
   1554e:	79e6                	ld	s3,120(sp)
   15550:	7a46                	ld	s4,112(sp)
   15552:	610d                	addi	sp,sp,160
   15554:	8082                	ret
   15556:	01259583          	lh	a1,18(a1)
   1555a:	84aa                	mv	s1,a0
   1555c:	0605c863          	bltz	a1,155cc <__smakebuf_r+0xac>
   15560:	0030                	addi	a2,sp,8
   15562:	112040ef          	jal	ra,19674 <_fstat_r>
   15566:	06054163          	bltz	a0,155c8 <__smakebuf_r+0xa8>
   1556a:	4932                	lw	s2,12(sp)
   1556c:	67bd                	lui	a5,0xf
   1556e:	40000a13          	li	s4,1024
   15572:	00f97933          	and	s2,s2,a5
   15576:	6789                	lui	a5,0x2
   15578:	40f90933          	sub	s2,s2,a5
   1557c:	6785                	lui	a5,0x1
   1557e:	00193913          	seqz	s2,s2
   15582:	80078993          	addi	s3,a5,-2048 # 800 <register_fini-0xf8e8>
   15586:	85d2                	mv	a1,s4
   15588:	8526                	mv	a0,s1
   1558a:	840fb0ef          	jal	ra,105ca <_malloc_r>
   1558e:	01041783          	lh	a5,16(s0)
   15592:	c939                	beqz	a0,155e8 <__smakebuf_r+0xc8>
   15594:	674d                	lui	a4,0x13
   15596:	d0e70713          	addi	a4,a4,-754 # 12d0e <_cleanup_r>
   1559a:	ecb8                	sd	a4,88(s1)
   1559c:	0807e793          	ori	a5,a5,128
   155a0:	00f41823          	sh	a5,16(s0)
   155a4:	e008                	sd	a0,0(s0)
   155a6:	ec08                	sd	a0,24(s0)
   155a8:	03442023          	sw	s4,32(s0)
   155ac:	06091163          	bnez	s2,1560e <__smakebuf_r+0xee>
   155b0:	0137e7b3          	or	a5,a5,s3
   155b4:	60ea                	ld	ra,152(sp)
   155b6:	00f41823          	sh	a5,16(s0)
   155ba:	644a                	ld	s0,144(sp)
   155bc:	64aa                	ld	s1,136(sp)
   155be:	690a                	ld	s2,128(sp)
   155c0:	79e6                	ld	s3,120(sp)
   155c2:	7a46                	ld	s4,112(sp)
   155c4:	610d                	addi	sp,sp,160
   155c6:	8082                	ret
   155c8:	01045783          	lhu	a5,16(s0)
   155cc:	0807f793          	andi	a5,a5,128
   155d0:	4901                	li	s2,0
   155d2:	cb95                	beqz	a5,15606 <__smakebuf_r+0xe6>
   155d4:	04000a13          	li	s4,64
   155d8:	85d2                	mv	a1,s4
   155da:	8526                	mv	a0,s1
   155dc:	feffa0ef          	jal	ra,105ca <_malloc_r>
   155e0:	01041783          	lh	a5,16(s0)
   155e4:	4981                	li	s3,0
   155e6:	f55d                	bnez	a0,15594 <__smakebuf_r+0x74>
   155e8:	2007f713          	andi	a4,a5,512
   155ec:	ff29                	bnez	a4,15546 <__smakebuf_r+0x26>
   155ee:	9bf1                	andi	a5,a5,-4
   155f0:	0027e793          	ori	a5,a5,2
   155f4:	07740713          	addi	a4,s0,119
   155f8:	00f41823          	sh	a5,16(s0)
   155fc:	4785                	li	a5,1
   155fe:	e018                	sd	a4,0(s0)
   15600:	ec18                	sd	a4,24(s0)
   15602:	d01c                	sw	a5,32(s0)
   15604:	b789                	j	15546 <__smakebuf_r+0x26>
   15606:	40000a13          	li	s4,1024
   1560a:	4981                	li	s3,0
   1560c:	bfad                	j	15586 <__smakebuf_r+0x66>
   1560e:	01241583          	lh	a1,18(s0)
   15612:	8526                	mv	a0,s1
   15614:	3c4040ef          	jal	ra,199d8 <_isatty_r>
   15618:	e501                	bnez	a0,15620 <__smakebuf_r+0x100>
   1561a:	01041783          	lh	a5,16(s0)
   1561e:	bf49                	j	155b0 <__smakebuf_r+0x90>
   15620:	01045783          	lhu	a5,16(s0)
   15624:	9bf1                	andi	a5,a5,-4
   15626:	0017e793          	ori	a5,a5,1
   1562a:	0107979b          	slliw	a5,a5,0x10
   1562e:	4107d79b          	sraiw	a5,a5,0x10
   15632:	bfbd                	j	155b0 <__smakebuf_r+0x90>

0000000000015634 <__swhatbuf_r>:
   15634:	7175                	addi	sp,sp,-144
   15636:	e122                	sd	s0,128(sp)
   15638:	842e                	mv	s0,a1
   1563a:	01259583          	lh	a1,18(a1)
   1563e:	fca6                	sd	s1,120(sp)
   15640:	f8ca                	sd	s2,112(sp)
   15642:	e506                	sd	ra,136(sp)
   15644:	84b2                	mv	s1,a2
   15646:	8936                	mv	s2,a3
   15648:	0205cc63          	bltz	a1,15680 <__swhatbuf_r+0x4c>
   1564c:	0030                	addi	a2,sp,8
   1564e:	026040ef          	jal	ra,19674 <_fstat_r>
   15652:	02054763          	bltz	a0,15680 <__swhatbuf_r+0x4c>
   15656:	47b2                	lw	a5,12(sp)
   15658:	673d                	lui	a4,0xf
   1565a:	60aa                	ld	ra,136(sp)
   1565c:	8ff9                	and	a5,a5,a4
   1565e:	6709                	lui	a4,0x2
   15660:	8f99                	sub	a5,a5,a4
   15662:	640a                	ld	s0,128(sp)
   15664:	0017b793          	seqz	a5,a5
   15668:	00f92023          	sw	a5,0(s2)
   1566c:	40000793          	li	a5,1024
   15670:	e09c                	sd	a5,0(s1)
   15672:	6505                	lui	a0,0x1
   15674:	74e6                	ld	s1,120(sp)
   15676:	7946                	ld	s2,112(sp)
   15678:	80050513          	addi	a0,a0,-2048 # 800 <register_fini-0xf8e8>
   1567c:	6149                	addi	sp,sp,144
   1567e:	8082                	ret
   15680:	01041783          	lh	a5,16(s0)
   15684:	00092023          	sw	zero,0(s2)
   15688:	0807f793          	andi	a5,a5,128
   1568c:	cb99                	beqz	a5,156a2 <__swhatbuf_r+0x6e>
   1568e:	60aa                	ld	ra,136(sp)
   15690:	640a                	ld	s0,128(sp)
   15692:	04000793          	li	a5,64
   15696:	e09c                	sd	a5,0(s1)
   15698:	7946                	ld	s2,112(sp)
   1569a:	74e6                	ld	s1,120(sp)
   1569c:	4501                	li	a0,0
   1569e:	6149                	addi	sp,sp,144
   156a0:	8082                	ret
   156a2:	60aa                	ld	ra,136(sp)
   156a4:	640a                	ld	s0,128(sp)
   156a6:	40000793          	li	a5,1024
   156aa:	e09c                	sd	a5,0(s1)
   156ac:	7946                	ld	s2,112(sp)
   156ae:	74e6                	ld	s1,120(sp)
   156b0:	4501                	li	a0,0
   156b2:	6149                	addi	sp,sp,144
   156b4:	8082                	ret

00000000000156b6 <_mbtowc_r>:
   156b6:	6501b783          	ld	a5,1616(gp) # 1f768 <__global_locale+0xe8>
   156ba:	8782                	jr	a5

00000000000156bc <__ascii_mbtowc>:
   156bc:	c999                	beqz	a1,156d2 <__ascii_mbtowc+0x16>
   156be:	c61d                	beqz	a2,156ec <__ascii_mbtowc+0x30>
   156c0:	ca95                	beqz	a3,156f4 <__ascii_mbtowc+0x38>
   156c2:	00064783          	lbu	a5,0(a2)
   156c6:	c19c                	sw	a5,0(a1)
   156c8:	00064503          	lbu	a0,0(a2)
   156cc:	00a03533          	snez	a0,a0
   156d0:	8082                	ret
   156d2:	1141                	addi	sp,sp,-16
   156d4:	006c                	addi	a1,sp,12
   156d6:	ce09                	beqz	a2,156f0 <__ascii_mbtowc+0x34>
   156d8:	c285                	beqz	a3,156f8 <__ascii_mbtowc+0x3c>
   156da:	00064783          	lbu	a5,0(a2)
   156de:	c19c                	sw	a5,0(a1)
   156e0:	00064503          	lbu	a0,0(a2)
   156e4:	00a03533          	snez	a0,a0
   156e8:	0141                	addi	sp,sp,16
   156ea:	8082                	ret
   156ec:	4501                	li	a0,0
   156ee:	8082                	ret
   156f0:	4501                	li	a0,0
   156f2:	bfdd                	j	156e8 <__ascii_mbtowc+0x2c>
   156f4:	5579                	li	a0,-2
   156f6:	8082                	ret
   156f8:	5579                	li	a0,-2
   156fa:	b7fd                	j	156e8 <__ascii_mbtowc+0x2c>

00000000000156fc <memchr>:
   156fc:	00757793          	andi	a5,a0,7
   15700:	0ff5f693          	andi	a3,a1,255
   15704:	c395                	beqz	a5,15728 <memchr+0x2c>
   15706:	fff60793          	addi	a5,a2,-1
   1570a:	c605                	beqz	a2,15732 <memchr+0x36>
   1570c:	567d                	li	a2,-1
   1570e:	a801                	j	1571e <memchr+0x22>
   15710:	0505                	addi	a0,a0,1
   15712:	00757713          	andi	a4,a0,7
   15716:	cb11                	beqz	a4,1572a <memchr+0x2e>
   15718:	17fd                	addi	a5,a5,-1
   1571a:	00c78c63          	beq	a5,a2,15732 <memchr+0x36>
   1571e:	00054703          	lbu	a4,0(a0)
   15722:	fed717e3          	bne	a4,a3,15710 <memchr+0x14>
   15726:	8082                	ret
   15728:	87b2                	mv	a5,a2
   1572a:	471d                	li	a4,7
   1572c:	00f76f63          	bltu	a4,a5,1574a <memchr+0x4e>
   15730:	e399                	bnez	a5,15736 <memchr+0x3a>
   15732:	4501                	li	a0,0
   15734:	8082                	ret
   15736:	97aa                	add	a5,a5,a0
   15738:	a021                	j	15740 <memchr+0x44>
   1573a:	0505                	addi	a0,a0,1
   1573c:	fea78be3          	beq	a5,a0,15732 <memchr+0x36>
   15740:	00054703          	lbu	a4,0(a0)
   15744:	fed71be3          	bne	a4,a3,1573a <memchr+0x3e>
   15748:	8082                	ret
   1574a:	0ff5f593          	andi	a1,a1,255
   1574e:	00859713          	slli	a4,a1,0x8
   15752:	8dd9                	or	a1,a1,a4
   15754:	01059713          	slli	a4,a1,0x10
   15758:	7101b883          	ld	a7,1808(gp) # 1f828 <__SDATA_BEGIN__>
   1575c:	8f4d                	or	a4,a4,a1
   1575e:	7181b803          	ld	a6,1816(gp) # 1f830 <__SDATA_BEGIN__+0x8>
   15762:	02071593          	slli	a1,a4,0x20
   15766:	8dd9                	or	a1,a1,a4
   15768:	431d                	li	t1,7
   1576a:	6118                	ld	a4,0(a0)
   1576c:	8f2d                	xor	a4,a4,a1
   1576e:	01170633          	add	a2,a4,a7
   15772:	fff74713          	not	a4,a4
   15776:	8f71                	and	a4,a4,a2
   15778:	01077733          	and	a4,a4,a6
   1577c:	ff4d                	bnez	a4,15736 <memchr+0x3a>
   1577e:	17e1                	addi	a5,a5,-8
   15780:	0521                	addi	a0,a0,8
   15782:	fef364e3          	bltu	t1,a5,1576a <memchr+0x6e>
   15786:	fbc5                	bnez	a5,15736 <memchr+0x3a>
   15788:	b76d                	j	15732 <memchr+0x36>

000000000001578a <_Balloc>:
   1578a:	7d3c                	ld	a5,120(a0)
   1578c:	1101                	addi	sp,sp,-32
   1578e:	e822                	sd	s0,16(sp)
   15790:	e426                	sd	s1,8(sp)
   15792:	ec06                	sd	ra,24(sp)
   15794:	e04a                	sd	s2,0(sp)
   15796:	842a                	mv	s0,a0
   15798:	84ae                	mv	s1,a1
   1579a:	c385                	beqz	a5,157ba <_Balloc+0x30>
   1579c:	00349513          	slli	a0,s1,0x3
   157a0:	97aa                	add	a5,a5,a0
   157a2:	6388                	ld	a0,0(a5)
   157a4:	c50d                	beqz	a0,157ce <_Balloc+0x44>
   157a6:	6118                	ld	a4,0(a0)
   157a8:	e398                	sd	a4,0(a5)
   157aa:	00053823          	sd	zero,16(a0)
   157ae:	60e2                	ld	ra,24(sp)
   157b0:	6442                	ld	s0,16(sp)
   157b2:	64a2                	ld	s1,8(sp)
   157b4:	6902                	ld	s2,0(sp)
   157b6:	6105                	addi	sp,sp,32
   157b8:	8082                	ret
   157ba:	04100613          	li	a2,65
   157be:	45a1                	li	a1,8
   157c0:	34b030ef          	jal	ra,1930a <_calloc_r>
   157c4:	fc28                	sd	a0,120(s0)
   157c6:	87aa                	mv	a5,a0
   157c8:	f971                	bnez	a0,1579c <_Balloc+0x12>
   157ca:	4501                	li	a0,0
   157cc:	b7cd                	j	157ae <_Balloc+0x24>
   157ce:	4905                	li	s2,1
   157d0:	0099163b          	sllw	a2,s2,s1
   157d4:	8932                	mv	s2,a2
   157d6:	061d                	addi	a2,a2,7
   157d8:	060a                	slli	a2,a2,0x2
   157da:	4585                	li	a1,1
   157dc:	8522                	mv	a0,s0
   157de:	32d030ef          	jal	ra,1930a <_calloc_r>
   157e2:	d565                	beqz	a0,157ca <_Balloc+0x40>
   157e4:	c504                	sw	s1,8(a0)
   157e6:	01252623          	sw	s2,12(a0)
   157ea:	b7c1                	j	157aa <_Balloc+0x20>

00000000000157ec <_Bfree>:
   157ec:	c981                	beqz	a1,157fc <_Bfree+0x10>
   157ee:	4598                	lw	a4,8(a1)
   157f0:	7d3c                	ld	a5,120(a0)
   157f2:	070e                	slli	a4,a4,0x3
   157f4:	97ba                	add	a5,a5,a4
   157f6:	6398                	ld	a4,0(a5)
   157f8:	e198                	sd	a4,0(a1)
   157fa:	e38c                	sd	a1,0(a5)
   157fc:	8082                	ret

00000000000157fe <__multadd>:
   157fe:	7179                	addi	sp,sp,-48
   15800:	ec26                	sd	s1,24(sp)
   15802:	49c4                	lw	s1,20(a1)
   15804:	6341                	lui	t1,0x10
   15806:	f022                	sd	s0,32(sp)
   15808:	e84a                	sd	s2,16(sp)
   1580a:	e44e                	sd	s3,8(sp)
   1580c:	f406                	sd	ra,40(sp)
   1580e:	e052                	sd	s4,0(sp)
   15810:	892e                	mv	s2,a1
   15812:	89aa                	mv	s3,a0
   15814:	8436                	mv	s0,a3
   15816:	01858813          	addi	a6,a1,24
   1581a:	4881                	li	a7,0
   1581c:	137d                	addi	t1,t1,-1
   1581e:	00082783          	lw	a5,0(a6) # 8000 <register_fini-0x80e8>
   15822:	0811                	addi	a6,a6,4
   15824:	2885                	addiw	a7,a7,1
   15826:	0067f6b3          	and	a3,a5,t1
   1582a:	02c686bb          	mulw	a3,a3,a2
   1582e:	0107d79b          	srliw	a5,a5,0x10
   15832:	02c787bb          	mulw	a5,a5,a2
   15836:	9ea1                	addw	a3,a3,s0
   15838:	0106de1b          	srliw	t3,a3,0x10
   1583c:	00d37733          	and	a4,t1,a3
   15840:	01c786bb          	addw	a3,a5,t3
   15844:	0106979b          	slliw	a5,a3,0x10
   15848:	9f3d                	addw	a4,a4,a5
   1584a:	fee82e23          	sw	a4,-4(a6)
   1584e:	0106d41b          	srliw	s0,a3,0x10
   15852:	fc98c6e3          	blt	a7,s1,1581e <__multadd+0x20>
   15856:	cc09                	beqz	s0,15870 <__multadd+0x72>
   15858:	00c92783          	lw	a5,12(s2)
   1585c:	02f4d363          	bge	s1,a5,15882 <__multadd+0x84>
   15860:	00448793          	addi	a5,s1,4
   15864:	078a                	slli	a5,a5,0x2
   15866:	97ca                	add	a5,a5,s2
   15868:	c780                	sw	s0,8(a5)
   1586a:	2485                	addiw	s1,s1,1
   1586c:	00992a23          	sw	s1,20(s2)
   15870:	70a2                	ld	ra,40(sp)
   15872:	7402                	ld	s0,32(sp)
   15874:	64e2                	ld	s1,24(sp)
   15876:	69a2                	ld	s3,8(sp)
   15878:	6a02                	ld	s4,0(sp)
   1587a:	854a                	mv	a0,s2
   1587c:	6942                	ld	s2,16(sp)
   1587e:	6145                	addi	sp,sp,48
   15880:	8082                	ret
   15882:	00892583          	lw	a1,8(s2)
   15886:	854e                	mv	a0,s3
   15888:	2585                	addiw	a1,a1,1
   1588a:	f01ff0ef          	jal	ra,1578a <_Balloc>
   1588e:	8a2a                	mv	s4,a0
   15890:	cd1d                	beqz	a0,158ce <__multadd+0xd0>
   15892:	01492603          	lw	a2,20(s2)
   15896:	01090593          	addi	a1,s2,16
   1589a:	0541                	addi	a0,a0,16
   1589c:	0609                	addi	a2,a2,2
   1589e:	060a                	slli	a2,a2,0x2
   158a0:	1aa040ef          	jal	ra,19a4a <memcpy>
   158a4:	00892703          	lw	a4,8(s2)
   158a8:	0789b783          	ld	a5,120(s3)
   158ac:	070e                	slli	a4,a4,0x3
   158ae:	97ba                	add	a5,a5,a4
   158b0:	6398                	ld	a4,0(a5)
   158b2:	00e93023          	sd	a4,0(s2)
   158b6:	0127b023          	sd	s2,0(a5)
   158ba:	00448793          	addi	a5,s1,4
   158be:	8952                	mv	s2,s4
   158c0:	078a                	slli	a5,a5,0x2
   158c2:	97ca                	add	a5,a5,s2
   158c4:	c780                	sw	s0,8(a5)
   158c6:	2485                	addiw	s1,s1,1
   158c8:	00992a23          	sw	s1,20(s2)
   158cc:	b755                	j	15870 <__multadd+0x72>
   158ce:	66f5                	lui	a3,0x1d
   158d0:	6575                	lui	a0,0x1d
   158d2:	ac068693          	addi	a3,a3,-1344 # 1cac0 <zeroes.0+0x78>
   158d6:	4601                	li	a2,0
   158d8:	0b500593          	li	a1,181
   158dc:	dc850513          	addi	a0,a0,-568 # 1cdc8 <bmask+0x40>
   158e0:	1d7030ef          	jal	ra,192b6 <__assert_func>

00000000000158e4 <__s2b>:
   158e4:	7139                	addi	sp,sp,-64
   158e6:	f822                	sd	s0,48(sp)
   158e8:	f426                	sd	s1,40(sp)
   158ea:	f04a                	sd	s2,32(sp)
   158ec:	ec4e                	sd	s3,24(sp)
   158ee:	e852                	sd	s4,16(sp)
   158f0:	84b6                	mv	s1,a3
   158f2:	842e                	mv	s0,a1
   158f4:	26a1                	addiw	a3,a3,8
   158f6:	45a5                	li	a1,9
   158f8:	fc06                	sd	ra,56(sp)
   158fa:	e456                	sd	s5,8(sp)
   158fc:	e05a                	sd	s6,0(sp)
   158fe:	47a5                	li	a5,9
   15900:	02b6c6bb          	divw	a3,a3,a1
   15904:	892a                	mv	s2,a0
   15906:	89b2                	mv	s3,a2
   15908:	8a3a                	mv	s4,a4
   1590a:	0a97d263          	bge	a5,s1,159ae <__s2b+0xca>
   1590e:	4785                	li	a5,1
   15910:	4581                	li	a1,0
   15912:	0017979b          	slliw	a5,a5,0x1
   15916:	2585                	addiw	a1,a1,1
   15918:	fed7cde3          	blt	a5,a3,15912 <__s2b+0x2e>
   1591c:	854a                	mv	a0,s2
   1591e:	e6dff0ef          	jal	ra,1578a <_Balloc>
   15922:	85aa                	mv	a1,a0
   15924:	c559                	beqz	a0,159b2 <__s2b+0xce>
   15926:	4785                	li	a5,1
   15928:	c95c                	sw	a5,20(a0)
   1592a:	01452c23          	sw	s4,24(a0)
   1592e:	47a5                	li	a5,9
   15930:	0737dc63          	bge	a5,s3,159a8 <__s2b+0xc4>
   15934:	02099793          	slli	a5,s3,0x20
   15938:	00940b13          	addi	s6,s0,9
   1593c:	9381                	srli	a5,a5,0x20
   1593e:	00098a9b          	sext.w	s5,s3
   15942:	943e                	add	s0,s0,a5
   15944:	8a5a                	mv	s4,s6
   15946:	000a4683          	lbu	a3,0(s4)
   1594a:	4629                	li	a2,10
   1594c:	854a                	mv	a0,s2
   1594e:	fd06869b          	addiw	a3,a3,-48
   15952:	eadff0ef          	jal	ra,157fe <__multadd>
   15956:	0a05                	addi	s4,s4,1
   15958:	85aa                	mv	a1,a0
   1595a:	fe8a16e3          	bne	s4,s0,15946 <__s2b+0x62>
   1595e:	ff8a841b          	addiw	s0,s5,-8
   15962:	1402                	slli	s0,s0,0x20
   15964:	9001                	srli	s0,s0,0x20
   15966:	945a                	add	s0,s0,s6
   15968:	0299d563          	bge	s3,s1,15992 <__s2b+0xae>
   1596c:	34fd                	addiw	s1,s1,-1
   1596e:	413484bb          	subw	s1,s1,s3
   15972:	1482                	slli	s1,s1,0x20
   15974:	9081                	srli	s1,s1,0x20
   15976:	0485                	addi	s1,s1,1
   15978:	94a2                	add	s1,s1,s0
   1597a:	00044683          	lbu	a3,0(s0)
   1597e:	4629                	li	a2,10
   15980:	854a                	mv	a0,s2
   15982:	fd06869b          	addiw	a3,a3,-48
   15986:	e79ff0ef          	jal	ra,157fe <__multadd>
   1598a:	0405                	addi	s0,s0,1
   1598c:	85aa                	mv	a1,a0
   1598e:	fe9416e3          	bne	s0,s1,1597a <__s2b+0x96>
   15992:	70e2                	ld	ra,56(sp)
   15994:	7442                	ld	s0,48(sp)
   15996:	74a2                	ld	s1,40(sp)
   15998:	7902                	ld	s2,32(sp)
   1599a:	69e2                	ld	s3,24(sp)
   1599c:	6a42                	ld	s4,16(sp)
   1599e:	6aa2                	ld	s5,8(sp)
   159a0:	6b02                	ld	s6,0(sp)
   159a2:	852e                	mv	a0,a1
   159a4:	6121                	addi	sp,sp,64
   159a6:	8082                	ret
   159a8:	0429                	addi	s0,s0,10
   159aa:	49a5                	li	s3,9
   159ac:	bf75                	j	15968 <__s2b+0x84>
   159ae:	4581                	li	a1,0
   159b0:	b7b5                	j	1591c <__s2b+0x38>
   159b2:	66f5                	lui	a3,0x1d
   159b4:	6575                	lui	a0,0x1d
   159b6:	ac068693          	addi	a3,a3,-1344 # 1cac0 <zeroes.0+0x78>
   159ba:	4601                	li	a2,0
   159bc:	0ce00593          	li	a1,206
   159c0:	dc850513          	addi	a0,a0,-568 # 1cdc8 <bmask+0x40>
   159c4:	0f3030ef          	jal	ra,192b6 <__assert_func>

00000000000159c8 <__hi0bits>:
   159c8:	7741                	lui	a4,0xffff0
   159ca:	8f69                	and	a4,a4,a0
   159cc:	87aa                	mv	a5,a0
   159ce:	4501                	li	a0,0
   159d0:	e701                	bnez	a4,159d8 <__hi0bits+0x10>
   159d2:	0107979b          	slliw	a5,a5,0x10
   159d6:	4541                	li	a0,16
   159d8:	ff000737          	lui	a4,0xff000
   159dc:	8f7d                	and	a4,a4,a5
   159de:	e701                	bnez	a4,159e6 <__hi0bits+0x1e>
   159e0:	0087979b          	slliw	a5,a5,0x8
   159e4:	2521                	addiw	a0,a0,8
   159e6:	f0000737          	lui	a4,0xf0000
   159ea:	8f7d                	and	a4,a4,a5
   159ec:	e701                	bnez	a4,159f4 <__hi0bits+0x2c>
   159ee:	0047979b          	slliw	a5,a5,0x4
   159f2:	2511                	addiw	a0,a0,4
   159f4:	c0000737          	lui	a4,0xc0000
   159f8:	8f7d                	and	a4,a4,a5
   159fa:	e701                	bnez	a4,15a02 <__hi0bits+0x3a>
   159fc:	0027979b          	slliw	a5,a5,0x2
   15a00:	2509                	addiw	a0,a0,2
   15a02:	0007c663          	bltz	a5,15a0e <__hi0bits+0x46>
   15a06:	83f9                	srli	a5,a5,0x1e
   15a08:	8b85                	andi	a5,a5,1
   15a0a:	2505                	addiw	a0,a0,1
   15a0c:	c391                	beqz	a5,15a10 <__hi0bits+0x48>
   15a0e:	8082                	ret
   15a10:	02000513          	li	a0,32
   15a14:	8082                	ret

0000000000015a16 <__lo0bits>:
   15a16:	411c                	lw	a5,0(a0)
   15a18:	872a                	mv	a4,a0
   15a1a:	0077f693          	andi	a3,a5,7
   15a1e:	863e                	mv	a2,a5
   15a20:	ce81                	beqz	a3,15a38 <__lo0bits+0x22>
   15a22:	0017f693          	andi	a3,a5,1
   15a26:	4501                	li	a0,0
   15a28:	ee9d                	bnez	a3,15a66 <__lo0bits+0x50>
   15a2a:	8a09                	andi	a2,a2,2
   15a2c:	ce25                	beqz	a2,15aa4 <__lo0bits+0x8e>
   15a2e:	0017d79b          	srliw	a5,a5,0x1
   15a32:	c31c                	sw	a5,0(a4)
   15a34:	4505                	li	a0,1
   15a36:	8082                	ret
   15a38:	03079693          	slli	a3,a5,0x30
   15a3c:	92c1                	srli	a3,a3,0x30
   15a3e:	4501                	li	a0,0
   15a40:	cab9                	beqz	a3,15a96 <__lo0bits+0x80>
   15a42:	0ff7f693          	andi	a3,a5,255
   15a46:	c2a9                	beqz	a3,15a88 <__lo0bits+0x72>
   15a48:	00f7f693          	andi	a3,a5,15
   15a4c:	c69d                	beqz	a3,15a7a <__lo0bits+0x64>
   15a4e:	0037f693          	andi	a3,a5,3
   15a52:	ce89                	beqz	a3,15a6c <__lo0bits+0x56>
   15a54:	0017f693          	andi	a3,a5,1
   15a58:	ea81                	bnez	a3,15a68 <__lo0bits+0x52>
   15a5a:	0017d79b          	srliw	a5,a5,0x1
   15a5e:	2505                	addiw	a0,a0,1
   15a60:	e781                	bnez	a5,15a68 <__lo0bits+0x52>
   15a62:	02000513          	li	a0,32
   15a66:	8082                	ret
   15a68:	c31c                	sw	a5,0(a4)
   15a6a:	8082                	ret
   15a6c:	0027d79b          	srliw	a5,a5,0x2
   15a70:	0017f693          	andi	a3,a5,1
   15a74:	2509                	addiw	a0,a0,2
   15a76:	faed                	bnez	a3,15a68 <__lo0bits+0x52>
   15a78:	b7cd                	j	15a5a <__lo0bits+0x44>
   15a7a:	0047d79b          	srliw	a5,a5,0x4
   15a7e:	0037f693          	andi	a3,a5,3
   15a82:	2511                	addiw	a0,a0,4
   15a84:	fae1                	bnez	a3,15a54 <__lo0bits+0x3e>
   15a86:	b7dd                	j	15a6c <__lo0bits+0x56>
   15a88:	0087d79b          	srliw	a5,a5,0x8
   15a8c:	00f7f693          	andi	a3,a5,15
   15a90:	2521                	addiw	a0,a0,8
   15a92:	fed5                	bnez	a3,15a4e <__lo0bits+0x38>
   15a94:	b7dd                	j	15a7a <__lo0bits+0x64>
   15a96:	0107d79b          	srliw	a5,a5,0x10
   15a9a:	0ff7f693          	andi	a3,a5,255
   15a9e:	4541                	li	a0,16
   15aa0:	f6c5                	bnez	a3,15a48 <__lo0bits+0x32>
   15aa2:	b7dd                	j	15a88 <__lo0bits+0x72>
   15aa4:	0027d79b          	srliw	a5,a5,0x2
   15aa8:	c31c                	sw	a5,0(a4)
   15aaa:	4509                	li	a0,2
   15aac:	8082                	ret

0000000000015aae <__i2b>:
   15aae:	7d3c                	ld	a5,120(a0)
   15ab0:	1101                	addi	sp,sp,-32
   15ab2:	e822                	sd	s0,16(sp)
   15ab4:	e426                	sd	s1,8(sp)
   15ab6:	ec06                	sd	ra,24(sp)
   15ab8:	842a                	mv	s0,a0
   15aba:	84ae                	mv	s1,a1
   15abc:	cf91                	beqz	a5,15ad8 <__i2b+0x2a>
   15abe:	6788                	ld	a0,8(a5)
   15ac0:	cd1d                	beqz	a0,15afe <__i2b+0x50>
   15ac2:	6118                	ld	a4,0(a0)
   15ac4:	e798                	sd	a4,8(a5)
   15ac6:	60e2                	ld	ra,24(sp)
   15ac8:	6442                	ld	s0,16(sp)
   15aca:	4785                	li	a5,1
   15acc:	1782                	slli	a5,a5,0x20
   15ace:	cd04                	sw	s1,24(a0)
   15ad0:	e91c                	sd	a5,16(a0)
   15ad2:	64a2                	ld	s1,8(sp)
   15ad4:	6105                	addi	sp,sp,32
   15ad6:	8082                	ret
   15ad8:	04100613          	li	a2,65
   15adc:	45a1                	li	a1,8
   15ade:	02d030ef          	jal	ra,1930a <_calloc_r>
   15ae2:	fc28                	sd	a0,120(s0)
   15ae4:	87aa                	mv	a5,a0
   15ae6:	fd61                	bnez	a0,15abe <__i2b+0x10>
   15ae8:	66f5                	lui	a3,0x1d
   15aea:	6575                	lui	a0,0x1d
   15aec:	ac068693          	addi	a3,a3,-1344 # 1cac0 <zeroes.0+0x78>
   15af0:	4601                	li	a2,0
   15af2:	14000593          	li	a1,320
   15af6:	dc850513          	addi	a0,a0,-568 # 1cdc8 <bmask+0x40>
   15afa:	7bc030ef          	jal	ra,192b6 <__assert_func>
   15afe:	02400613          	li	a2,36
   15b02:	4585                	li	a1,1
   15b04:	8522                	mv	a0,s0
   15b06:	005030ef          	jal	ra,1930a <_calloc_r>
   15b0a:	dd79                	beqz	a0,15ae8 <__i2b+0x3a>
   15b0c:	4785                	li	a5,1
   15b0e:	1786                	slli	a5,a5,0x21
   15b10:	0785                	addi	a5,a5,1
   15b12:	e51c                	sd	a5,8(a0)
   15b14:	bf4d                	j	15ac6 <__i2b+0x18>

0000000000015b16 <__multiply>:
   15b16:	7179                	addi	sp,sp,-48
   15b18:	e84a                	sd	s2,16(sp)
   15b1a:	e44e                	sd	s3,8(sp)
   15b1c:	01462903          	lw	s2,20(a2)
   15b20:	0145a983          	lw	s3,20(a1)
   15b24:	ec26                	sd	s1,24(sp)
   15b26:	e052                	sd	s4,0(sp)
   15b28:	f406                	sd	ra,40(sp)
   15b2a:	f022                	sd	s0,32(sp)
   15b2c:	8a2e                	mv	s4,a1
   15b2e:	84b2                	mv	s1,a2
   15b30:	0129c763          	blt	s3,s2,15b3e <__multiply+0x28>
   15b34:	87ca                	mv	a5,s2
   15b36:	84ae                	mv	s1,a1
   15b38:	894e                	mv	s2,s3
   15b3a:	8a32                	mv	s4,a2
   15b3c:	89be                	mv	s3,a5
   15b3e:	44dc                	lw	a5,12(s1)
   15b40:	0139043b          	addw	s0,s2,s3
   15b44:	448c                	lw	a1,8(s1)
   15b46:	0087d363          	bge	a5,s0,15b4c <__multiply+0x36>
   15b4a:	2585                	addiw	a1,a1,1
   15b4c:	c3fff0ef          	jal	ra,1578a <_Balloc>
   15b50:	14050d63          	beqz	a0,15caa <__multiply+0x194>
   15b54:	01850313          	addi	t1,a0,24
   15b58:	00241893          	slli	a7,s0,0x2
   15b5c:	989a                	add	a7,a7,t1
   15b5e:	879a                	mv	a5,t1
   15b60:	01137763          	bgeu	t1,a7,15b6e <__multiply+0x58>
   15b64:	0007a023          	sw	zero,0(a5)
   15b68:	0791                	addi	a5,a5,4
   15b6a:	ff17ede3          	bltu	a5,a7,15b64 <__multiply+0x4e>
   15b6e:	018a0813          	addi	a6,s4,24
   15b72:	00299e13          	slli	t3,s3,0x2
   15b76:	01848e93          	addi	t4,s1,24
   15b7a:	00291593          	slli	a1,s2,0x2
   15b7e:	9e42                	add	t3,t3,a6
   15b80:	95f6                	add	a1,a1,t4
   15b82:	0fc87b63          	bgeu	a6,t3,15c78 <__multiply+0x162>
   15b86:	01948793          	addi	a5,s1,25
   15b8a:	4f11                	li	t5,4
   15b8c:	10f5f863          	bgeu	a1,a5,15c9c <__multiply+0x186>
   15b90:	6641                	lui	a2,0x10
   15b92:	167d                	addi	a2,a2,-1
   15b94:	a809                	j	15ba6 <__multiply+0x90>
   15b96:	0103d39b          	srliw	t2,t2,0x10
   15b9a:	06039d63          	bnez	t2,15c14 <__multiply+0xfe>
   15b9e:	0811                	addi	a6,a6,4
   15ba0:	0311                	addi	t1,t1,4
   15ba2:	0dc87b63          	bgeu	a6,t3,15c78 <__multiply+0x162>
   15ba6:	00082383          	lw	t2,0(a6)
   15baa:	00c3f933          	and	s2,t2,a2
   15bae:	fe0904e3          	beqz	s2,15b96 <__multiply+0x80>
   15bb2:	849a                	mv	s1,t1
   15bb4:	83f6                	mv	t2,t4
   15bb6:	4981                	li	s3,0
   15bb8:	0003a683          	lw	a3,0(t2)
   15bbc:	0004a283          	lw	t0,0(s1)
   15bc0:	0491                	addi	s1,s1,4
   15bc2:	00c6f7b3          	and	a5,a3,a2
   15bc6:	032787bb          	mulw	a5,a5,s2
   15bca:	0106d71b          	srliw	a4,a3,0x10
   15bce:	00c2f6b3          	and	a3,t0,a2
   15bd2:	0102d29b          	srliw	t0,t0,0x10
   15bd6:	0391                	addi	t2,t2,4
   15bd8:	0327073b          	mulw	a4,a4,s2
   15bdc:	9fb5                	addw	a5,a5,a3
   15bde:	013787bb          	addw	a5,a5,s3
   15be2:	0107d69b          	srliw	a3,a5,0x10
   15be6:	8ff1                	and	a5,a5,a2
   15be8:	0057073b          	addw	a4,a4,t0
   15bec:	9f35                	addw	a4,a4,a3
   15bee:	0107169b          	slliw	a3,a4,0x10
   15bf2:	8fd5                	or	a5,a5,a3
   15bf4:	fef4ae23          	sw	a5,-4(s1)
   15bf8:	0107599b          	srliw	s3,a4,0x10
   15bfc:	fab3eee3          	bltu	t2,a1,15bb8 <__multiply+0xa2>
   15c00:	01e307b3          	add	a5,t1,t5
   15c04:	0137a023          	sw	s3,0(a5)
   15c08:	00082383          	lw	t2,0(a6)
   15c0c:	0103d39b          	srliw	t2,t2,0x10
   15c10:	f80387e3          	beqz	t2,15b9e <__multiply+0x88>
   15c14:	00032683          	lw	a3,0(t1) # 10000 <register_fini-0xe8>
   15c18:	849a                	mv	s1,t1
   15c1a:	82f6                	mv	t0,t4
   15c1c:	8936                	mv	s2,a3
   15c1e:	4701                	li	a4,0
   15c20:	0002a783          	lw	a5,0(t0) # 10c7c <memset+0x90>
   15c24:	01095a1b          	srliw	s4,s2,0x10
   15c28:	8ef1                	and	a3,a3,a2
   15c2a:	8ff1                	and	a5,a5,a2
   15c2c:	027787bb          	mulw	a5,a5,t2
   15c30:	0044a903          	lw	s2,4(s1)
   15c34:	0491                	addi	s1,s1,4
   15c36:	0291                	addi	t0,t0,4
   15c38:	00c979b3          	and	s3,s2,a2
   15c3c:	014787bb          	addw	a5,a5,s4
   15c40:	9fb9                	addw	a5,a5,a4
   15c42:	0107971b          	slliw	a4,a5,0x10
   15c46:	8ed9                	or	a3,a3,a4
   15c48:	fed4ae23          	sw	a3,-4(s1)
   15c4c:	ffe2d703          	lhu	a4,-2(t0)
   15c50:	0107d79b          	srliw	a5,a5,0x10
   15c54:	0277073b          	mulw	a4,a4,t2
   15c58:	0137073b          	addw	a4,a4,s3
   15c5c:	9fb9                	addw	a5,a5,a4
   15c5e:	0007869b          	sext.w	a3,a5
   15c62:	0107d71b          	srliw	a4,a5,0x10
   15c66:	fab2ede3          	bltu	t0,a1,15c20 <__multiply+0x10a>
   15c6a:	01e307b3          	add	a5,t1,t5
   15c6e:	c394                	sw	a3,0(a5)
   15c70:	0811                	addi	a6,a6,4
   15c72:	0311                	addi	t1,t1,4
   15c74:	f3c869e3          	bltu	a6,t3,15ba6 <__multiply+0x90>
   15c78:	00804563          	bgtz	s0,15c82 <__multiply+0x16c>
   15c7c:	a039                	j	15c8a <__multiply+0x174>
   15c7e:	347d                	addiw	s0,s0,-1
   15c80:	c409                	beqz	s0,15c8a <__multiply+0x174>
   15c82:	ffc8a783          	lw	a5,-4(a7)
   15c86:	18f1                	addi	a7,a7,-4
   15c88:	dbfd                	beqz	a5,15c7e <__multiply+0x168>
   15c8a:	70a2                	ld	ra,40(sp)
   15c8c:	c940                	sw	s0,20(a0)
   15c8e:	7402                	ld	s0,32(sp)
   15c90:	64e2                	ld	s1,24(sp)
   15c92:	6942                	ld	s2,16(sp)
   15c94:	69a2                	ld	s3,8(sp)
   15c96:	6a02                	ld	s4,0(sp)
   15c98:	6145                	addi	sp,sp,48
   15c9a:	8082                	ret
   15c9c:	40958f33          	sub	t5,a1,s1
   15ca0:	1f1d                	addi	t5,t5,-25
   15ca2:	ffcf7f13          	andi	t5,t5,-4
   15ca6:	0f11                	addi	t5,t5,4
   15ca8:	b5e5                	j	15b90 <__multiply+0x7a>
   15caa:	66f5                	lui	a3,0x1d
   15cac:	6575                	lui	a0,0x1d
   15cae:	ac068693          	addi	a3,a3,-1344 # 1cac0 <zeroes.0+0x78>
   15cb2:	4601                	li	a2,0
   15cb4:	15d00593          	li	a1,349
   15cb8:	dc850513          	addi	a0,a0,-568 # 1cdc8 <bmask+0x40>
   15cbc:	5fa030ef          	jal	ra,192b6 <__assert_func>

0000000000015cc0 <__pow5mult>:
   15cc0:	7179                	addi	sp,sp,-48
   15cc2:	f022                	sd	s0,32(sp)
   15cc4:	e84a                	sd	s2,16(sp)
   15cc6:	e44e                	sd	s3,8(sp)
   15cc8:	f406                	sd	ra,40(sp)
   15cca:	ec26                	sd	s1,24(sp)
   15ccc:	00367793          	andi	a5,a2,3
   15cd0:	8432                	mv	s0,a2
   15cd2:	89aa                	mv	s3,a0
   15cd4:	892e                	mv	s2,a1
   15cd6:	ebb5                	bnez	a5,15d4a <__pow5mult+0x8a>
   15cd8:	8409                	srai	s0,s0,0x2
   15cda:	c421                	beqz	s0,15d22 <__pow5mult+0x62>
   15cdc:	0709b483          	ld	s1,112(s3)
   15ce0:	c0c9                	beqz	s1,15d62 <__pow5mult+0xa2>
   15ce2:	00147793          	andi	a5,s0,1
   15ce6:	eb89                	bnez	a5,15cf8 <__pow5mult+0x38>
   15ce8:	8405                	srai	s0,s0,0x1
   15cea:	cc05                	beqz	s0,15d22 <__pow5mult+0x62>
   15cec:	6088                	ld	a0,0(s1)
   15cee:	c131                	beqz	a0,15d32 <__pow5mult+0x72>
   15cf0:	84aa                	mv	s1,a0
   15cf2:	00147793          	andi	a5,s0,1
   15cf6:	dbed                	beqz	a5,15ce8 <__pow5mult+0x28>
   15cf8:	8626                	mv	a2,s1
   15cfa:	85ca                	mv	a1,s2
   15cfc:	854e                	mv	a0,s3
   15cfe:	e19ff0ef          	jal	ra,15b16 <__multiply>
   15d02:	04090263          	beqz	s2,15d46 <__pow5mult+0x86>
   15d06:	00892703          	lw	a4,8(s2)
   15d0a:	0789b783          	ld	a5,120(s3)
   15d0e:	8405                	srai	s0,s0,0x1
   15d10:	070e                	slli	a4,a4,0x3
   15d12:	97ba                	add	a5,a5,a4
   15d14:	6398                	ld	a4,0(a5)
   15d16:	00e93023          	sd	a4,0(s2)
   15d1a:	0127b023          	sd	s2,0(a5)
   15d1e:	892a                	mv	s2,a0
   15d20:	f471                	bnez	s0,15cec <__pow5mult+0x2c>
   15d22:	70a2                	ld	ra,40(sp)
   15d24:	7402                	ld	s0,32(sp)
   15d26:	64e2                	ld	s1,24(sp)
   15d28:	69a2                	ld	s3,8(sp)
   15d2a:	854a                	mv	a0,s2
   15d2c:	6942                	ld	s2,16(sp)
   15d2e:	6145                	addi	sp,sp,48
   15d30:	8082                	ret
   15d32:	8626                	mv	a2,s1
   15d34:	85a6                	mv	a1,s1
   15d36:	854e                	mv	a0,s3
   15d38:	ddfff0ef          	jal	ra,15b16 <__multiply>
   15d3c:	e088                	sd	a0,0(s1)
   15d3e:	00053023          	sd	zero,0(a0)
   15d42:	84aa                	mv	s1,a0
   15d44:	b77d                	j	15cf2 <__pow5mult+0x32>
   15d46:	892a                	mv	s2,a0
   15d48:	b745                	j	15ce8 <__pow5mult+0x28>
   15d4a:	37fd                	addiw	a5,a5,-1
   15d4c:	6775                	lui	a4,0x1d
   15d4e:	e3070713          	addi	a4,a4,-464 # 1ce30 <p05.0>
   15d52:	078a                	slli	a5,a5,0x2
   15d54:	97ba                	add	a5,a5,a4
   15d56:	4390                	lw	a2,0(a5)
   15d58:	4681                	li	a3,0
   15d5a:	aa5ff0ef          	jal	ra,157fe <__multadd>
   15d5e:	892a                	mv	s2,a0
   15d60:	bfa5                	j	15cd8 <__pow5mult+0x18>
   15d62:	4585                	li	a1,1
   15d64:	854e                	mv	a0,s3
   15d66:	a25ff0ef          	jal	ra,1578a <_Balloc>
   15d6a:	84aa                	mv	s1,a0
   15d6c:	c919                	beqz	a0,15d82 <__pow5mult+0xc2>
   15d6e:	27100793          	li	a5,625
   15d72:	cd1c                	sw	a5,24(a0)
   15d74:	4785                	li	a5,1
   15d76:	c95c                	sw	a5,20(a0)
   15d78:	06a9b823          	sd	a0,112(s3)
   15d7c:	00053023          	sd	zero,0(a0)
   15d80:	b78d                	j	15ce2 <__pow5mult+0x22>
   15d82:	66f5                	lui	a3,0x1d
   15d84:	6575                	lui	a0,0x1d
   15d86:	ac068693          	addi	a3,a3,-1344 # 1cac0 <zeroes.0+0x78>
   15d8a:	4601                	li	a2,0
   15d8c:	14000593          	li	a1,320
   15d90:	dc850513          	addi	a0,a0,-568 # 1cdc8 <bmask+0x40>
   15d94:	522030ef          	jal	ra,192b6 <__assert_func>

0000000000015d98 <__lshift>:
   15d98:	7139                	addi	sp,sp,-64
   15d9a:	f04a                	sd	s2,32(sp)
   15d9c:	0145a903          	lw	s2,20(a1)
   15da0:	45dc                	lw	a5,12(a1)
   15da2:	e456                	sd	s5,8(sp)
   15da4:	40565a9b          	sraiw	s5,a2,0x5
   15da8:	0159093b          	addw	s2,s2,s5
   15dac:	f822                	sd	s0,48(sp)
   15dae:	f426                	sd	s1,40(sp)
   15db0:	ec4e                	sd	s3,24(sp)
   15db2:	e852                	sd	s4,16(sp)
   15db4:	e05a                	sd	s6,0(sp)
   15db6:	fc06                	sd	ra,56(sp)
   15db8:	0019049b          	addiw	s1,s2,1
   15dbc:	842e                	mv	s0,a1
   15dbe:	8a32                	mv	s4,a2
   15dc0:	458c                	lw	a1,8(a1)
   15dc2:	89aa                	mv	s3,a0
   15dc4:	40565b13          	srai	s6,a2,0x5
   15dc8:	0097d763          	bge	a5,s1,15dd6 <__lshift+0x3e>
   15dcc:	0017979b          	slliw	a5,a5,0x1
   15dd0:	2585                	addiw	a1,a1,1
   15dd2:	fe97cde3          	blt	a5,s1,15dcc <__lshift+0x34>
   15dd6:	854e                	mv	a0,s3
   15dd8:	9b3ff0ef          	jal	ra,1578a <_Balloc>
   15ddc:	c571                	beqz	a0,15ea8 <__lshift+0x110>
   15dde:	01850693          	addi	a3,a0,24
   15de2:	03605463          	blez	s6,15e0a <__lshift+0x72>
   15de6:	006a871b          	addiw	a4,s5,6
   15dea:	02071793          	slli	a5,a4,0x20
   15dee:	01e7d713          	srli	a4,a5,0x1e
   15df2:	972a                	add	a4,a4,a0
   15df4:	87b6                	mv	a5,a3
   15df6:	0791                	addi	a5,a5,4
   15df8:	fe07ae23          	sw	zero,-4(a5)
   15dfc:	fee79de3          	bne	a5,a4,15df6 <__lshift+0x5e>
   15e00:	020a9793          	slli	a5,s5,0x20
   15e04:	01e7da93          	srli	s5,a5,0x1e
   15e08:	96d6                	add	a3,a3,s5
   15e0a:	01442803          	lw	a6,20(s0)
   15e0e:	01840793          	addi	a5,s0,24
   15e12:	01fa7313          	andi	t1,s4,31
   15e16:	080a                	slli	a6,a6,0x2
   15e18:	983e                	add	a6,a6,a5
   15e1a:	06030863          	beqz	t1,15e8a <__lshift+0xf2>
   15e1e:	02000593          	li	a1,32
   15e22:	406585bb          	subw	a1,a1,t1
   15e26:	88b6                	mv	a7,a3
   15e28:	4701                	li	a4,0
   15e2a:	4390                	lw	a2,0(a5)
   15e2c:	0891                	addi	a7,a7,4
   15e2e:	0791                	addi	a5,a5,4
   15e30:	0066163b          	sllw	a2,a2,t1
   15e34:	8f51                	or	a4,a4,a2
   15e36:	fee8ae23          	sw	a4,-4(a7)
   15e3a:	ffc7a703          	lw	a4,-4(a5)
   15e3e:	00b7573b          	srlw	a4,a4,a1
   15e42:	ff07e4e3          	bltu	a5,a6,15e2a <__lshift+0x92>
   15e46:	01940613          	addi	a2,s0,25
   15e4a:	4791                	li	a5,4
   15e4c:	00c86763          	bltu	a6,a2,15e5a <__lshift+0xc2>
   15e50:	408807b3          	sub	a5,a6,s0
   15e54:	179d                	addi	a5,a5,-25
   15e56:	9bf1                	andi	a5,a5,-4
   15e58:	0791                	addi	a5,a5,4
   15e5a:	96be                	add	a3,a3,a5
   15e5c:	c298                	sw	a4,0(a3)
   15e5e:	c311                	beqz	a4,15e62 <__lshift+0xca>
   15e60:	8926                	mv	s2,s1
   15e62:	4418                	lw	a4,8(s0)
   15e64:	0789b783          	ld	a5,120(s3)
   15e68:	01252a23          	sw	s2,20(a0)
   15e6c:	070e                	slli	a4,a4,0x3
   15e6e:	97ba                	add	a5,a5,a4
   15e70:	6398                	ld	a4,0(a5)
   15e72:	70e2                	ld	ra,56(sp)
   15e74:	74a2                	ld	s1,40(sp)
   15e76:	e018                	sd	a4,0(s0)
   15e78:	e380                	sd	s0,0(a5)
   15e7a:	7442                	ld	s0,48(sp)
   15e7c:	7902                	ld	s2,32(sp)
   15e7e:	69e2                	ld	s3,24(sp)
   15e80:	6a42                	ld	s4,16(sp)
   15e82:	6aa2                	ld	s5,8(sp)
   15e84:	6b02                	ld	s6,0(sp)
   15e86:	6121                	addi	sp,sp,64
   15e88:	8082                	ret
   15e8a:	4398                	lw	a4,0(a5)
   15e8c:	0791                	addi	a5,a5,4
   15e8e:	0691                	addi	a3,a3,4
   15e90:	fee6ae23          	sw	a4,-4(a3)
   15e94:	fd07f7e3          	bgeu	a5,a6,15e62 <__lshift+0xca>
   15e98:	4398                	lw	a4,0(a5)
   15e9a:	0791                	addi	a5,a5,4
   15e9c:	0691                	addi	a3,a3,4
   15e9e:	fee6ae23          	sw	a4,-4(a3)
   15ea2:	ff07e4e3          	bltu	a5,a6,15e8a <__lshift+0xf2>
   15ea6:	bf75                	j	15e62 <__lshift+0xca>
   15ea8:	66f5                	lui	a3,0x1d
   15eaa:	6575                	lui	a0,0x1d
   15eac:	ac068693          	addi	a3,a3,-1344 # 1cac0 <zeroes.0+0x78>
   15eb0:	4601                	li	a2,0
   15eb2:	1d900593          	li	a1,473
   15eb6:	dc850513          	addi	a0,a0,-568 # 1cdc8 <bmask+0x40>
   15eba:	3fc030ef          	jal	ra,192b6 <__assert_func>

0000000000015ebe <__mcmp>:
   15ebe:	49dc                	lw	a5,20(a1)
   15ec0:	882a                	mv	a6,a0
   15ec2:	4948                	lw	a0,20(a0)
   15ec4:	9d1d                	subw	a0,a0,a5
   15ec6:	e50d                	bnez	a0,15ef0 <__mcmp+0x32>
   15ec8:	078a                	slli	a5,a5,0x2
   15eca:	0861                	addi	a6,a6,24
   15ecc:	05e1                	addi	a1,a1,24
   15ece:	00f80733          	add	a4,a6,a5
   15ed2:	97ae                	add	a5,a5,a1
   15ed4:	a019                	j	15eda <__mcmp+0x1c>
   15ed6:	00e87d63          	bgeu	a6,a4,15ef0 <__mcmp+0x32>
   15eda:	ffc72603          	lw	a2,-4(a4)
   15ede:	ffc7a683          	lw	a3,-4(a5)
   15ee2:	1771                	addi	a4,a4,-4
   15ee4:	17f1                	addi	a5,a5,-4
   15ee6:	fed608e3          	beq	a2,a3,15ed6 <__mcmp+0x18>
   15eea:	557d                	li	a0,-1
   15eec:	00d67363          	bgeu	a2,a3,15ef2 <__mcmp+0x34>
   15ef0:	8082                	ret
   15ef2:	4505                	li	a0,1
   15ef4:	8082                	ret

0000000000015ef6 <__mdiff>:
   15ef6:	1101                	addi	sp,sp,-32
   15ef8:	4a58                	lw	a4,20(a2)
   15efa:	e04a                	sd	s2,0(sp)
   15efc:	0145a903          	lw	s2,20(a1)
   15f00:	e822                	sd	s0,16(sp)
   15f02:	e426                	sd	s1,8(sp)
   15f04:	ec06                	sd	ra,24(sp)
   15f06:	40e9093b          	subw	s2,s2,a4
   15f0a:	84ae                	mv	s1,a1
   15f0c:	8432                	mv	s0,a2
   15f0e:	12091c63          	bnez	s2,16046 <__mdiff+0x150>
   15f12:	00271693          	slli	a3,a4,0x2
   15f16:	05e1                	addi	a1,a1,24
   15f18:	01860713          	addi	a4,a2,24 # 10018 <register_fini-0xd0>
   15f1c:	00d587b3          	add	a5,a1,a3
   15f20:	9736                	add	a4,a4,a3
   15f22:	a019                	j	15f28 <__mdiff+0x32>
   15f24:	12f5f563          	bgeu	a1,a5,1604e <__mdiff+0x158>
   15f28:	ffc7a603          	lw	a2,-4(a5)
   15f2c:	ffc72683          	lw	a3,-4(a4)
   15f30:	17f1                	addi	a5,a5,-4
   15f32:	1771                	addi	a4,a4,-4
   15f34:	fed608e3          	beq	a2,a3,15f24 <__mdiff+0x2e>
   15f38:	10d66263          	bltu	a2,a3,1603c <__mdiff+0x146>
   15f3c:	448c                	lw	a1,8(s1)
   15f3e:	84dff0ef          	jal	ra,1578a <_Balloc>
   15f42:	12050463          	beqz	a0,1606a <__mdiff+0x174>
   15f46:	0144a883          	lw	a7,20(s1)
   15f4a:	01442f03          	lw	t5,20(s0)
   15f4e:	01848e93          	addi	t4,s1,24
   15f52:	00289313          	slli	t1,a7,0x2
   15f56:	01840813          	addi	a6,s0,24
   15f5a:	0f0a                	slli	t5,t5,0x2
   15f5c:	01850293          	addi	t0,a0,24
   15f60:	6e41                	lui	t3,0x10
   15f62:	01252823          	sw	s2,16(a0)
   15f66:	9376                	add	t1,t1,t4
   15f68:	9f42                	add	t5,t5,a6
   15f6a:	8396                	mv	t2,t0
   15f6c:	8676                	mv	a2,t4
   15f6e:	4701                	li	a4,0
   15f70:	1e7d                	addi	t3,t3,-1
   15f72:	4214                	lw	a3,0(a2)
   15f74:	00082583          	lw	a1,0(a6)
   15f78:	0391                	addi	t2,t2,4
   15f7a:	01c6f7b3          	and	a5,a3,t3
   15f7e:	9fb9                	addw	a5,a5,a4
   15f80:	01c5f733          	and	a4,a1,t3
   15f84:	9f99                	subw	a5,a5,a4
   15f86:	0105d59b          	srliw	a1,a1,0x10
   15f8a:	0106d71b          	srliw	a4,a3,0x10
   15f8e:	9f0d                	subw	a4,a4,a1
   15f90:	4107d69b          	sraiw	a3,a5,0x10
   15f94:	9f35                	addw	a4,a4,a3
   15f96:	0107169b          	slliw	a3,a4,0x10
   15f9a:	01c7f7b3          	and	a5,a5,t3
   15f9e:	8fd5                	or	a5,a5,a3
   15fa0:	2781                	sext.w	a5,a5
   15fa2:	0811                	addi	a6,a6,4
   15fa4:	fef3ae23          	sw	a5,-4(t2)
   15fa8:	0611                	addi	a2,a2,4
   15faa:	4107571b          	sraiw	a4,a4,0x10
   15fae:	fde862e3          	bltu	a6,t5,15f72 <__mdiff+0x7c>
   15fb2:	408f05b3          	sub	a1,t5,s0
   15fb6:	159d                	addi	a1,a1,-25
   15fb8:	0465                	addi	s0,s0,25
   15fba:	8189                	srli	a1,a1,0x2
   15fbc:	4681                	li	a3,0
   15fbe:	008f6463          	bltu	t5,s0,15fc6 <__mdiff+0xd0>
   15fc2:	00259693          	slli	a3,a1,0x2
   15fc6:	9696                	add	a3,a3,t0
   15fc8:	4811                	li	a6,4
   15fca:	008f6563          	bltu	t5,s0,15fd4 <__mdiff+0xde>
   15fce:	0585                	addi	a1,a1,1
   15fd0:	00259813          	slli	a6,a1,0x2
   15fd4:	9ec2                	add	t4,t4,a6
   15fd6:	92c2                	add	t0,t0,a6
   15fd8:	046ef463          	bgeu	t4,t1,16020 <__mdiff+0x12a>
   15fdc:	6e41                	lui	t3,0x10
   15fde:	8816                	mv	a6,t0
   15fe0:	8676                	mv	a2,t4
   15fe2:	1e7d                	addi	t3,t3,-1
   15fe4:	4214                	lw	a3,0(a2)
   15fe6:	0811                	addi	a6,a6,4
   15fe8:	0611                	addi	a2,a2,4
   15fea:	01c6f7b3          	and	a5,a3,t3
   15fee:	9fb9                	addw	a5,a5,a4
   15ff0:	0106d71b          	srliw	a4,a3,0x10
   15ff4:	4107d69b          	sraiw	a3,a5,0x10
   15ff8:	9f35                	addw	a4,a4,a3
   15ffa:	0107169b          	slliw	a3,a4,0x10
   15ffe:	01c7f7b3          	and	a5,a5,t3
   16002:	8fd5                	or	a5,a5,a3
   16004:	2781                	sext.w	a5,a5
   16006:	fef82e23          	sw	a5,-4(a6)
   1600a:	4107571b          	sraiw	a4,a4,0x10
   1600e:	fc666be3          	bltu	a2,t1,15fe4 <__mdiff+0xee>
   16012:	fff30693          	addi	a3,t1,-1
   16016:	41d68eb3          	sub	t4,a3,t4
   1601a:	ffcef693          	andi	a3,t4,-4
   1601e:	9696                	add	a3,a3,t0
   16020:	e791                	bnez	a5,1602c <__mdiff+0x136>
   16022:	ffc6a783          	lw	a5,-4(a3)
   16026:	38fd                	addiw	a7,a7,-1
   16028:	16f1                	addi	a3,a3,-4
   1602a:	dfe5                	beqz	a5,16022 <__mdiff+0x12c>
   1602c:	60e2                	ld	ra,24(sp)
   1602e:	6442                	ld	s0,16(sp)
   16030:	01152a23          	sw	a7,20(a0)
   16034:	64a2                	ld	s1,8(sp)
   16036:	6902                	ld	s2,0(sp)
   16038:	6105                	addi	sp,sp,32
   1603a:	8082                	ret
   1603c:	87a6                	mv	a5,s1
   1603e:	4905                	li	s2,1
   16040:	84a2                	mv	s1,s0
   16042:	843e                	mv	s0,a5
   16044:	bde5                	j	15f3c <__mdiff+0x46>
   16046:	fe094be3          	bltz	s2,1603c <__mdiff+0x146>
   1604a:	4901                	li	s2,0
   1604c:	bdc5                	j	15f3c <__mdiff+0x46>
   1604e:	4581                	li	a1,0
   16050:	f3aff0ef          	jal	ra,1578a <_Balloc>
   16054:	c515                	beqz	a0,16080 <__mdiff+0x18a>
   16056:	60e2                	ld	ra,24(sp)
   16058:	6442                	ld	s0,16(sp)
   1605a:	4785                	li	a5,1
   1605c:	c95c                	sw	a5,20(a0)
   1605e:	00052c23          	sw	zero,24(a0)
   16062:	64a2                	ld	s1,8(sp)
   16064:	6902                	ld	s2,0(sp)
   16066:	6105                	addi	sp,sp,32
   16068:	8082                	ret
   1606a:	66f5                	lui	a3,0x1d
   1606c:	6575                	lui	a0,0x1d
   1606e:	ac068693          	addi	a3,a3,-1344 # 1cac0 <zeroes.0+0x78>
   16072:	4601                	li	a2,0
   16074:	24000593          	li	a1,576
   16078:	dc850513          	addi	a0,a0,-568 # 1cdc8 <bmask+0x40>
   1607c:	23a030ef          	jal	ra,192b6 <__assert_func>
   16080:	66f5                	lui	a3,0x1d
   16082:	6575                	lui	a0,0x1d
   16084:	ac068693          	addi	a3,a3,-1344 # 1cac0 <zeroes.0+0x78>
   16088:	4601                	li	a2,0
   1608a:	23200593          	li	a1,562
   1608e:	dc850513          	addi	a0,a0,-568 # 1cdc8 <bmask+0x40>
   16092:	224030ef          	jal	ra,192b6 <__assert_func>

0000000000016096 <__ulp>:
   16096:	e20507d3          	fmv.x.d	a5,fa0
   1609a:	7ff00737          	lui	a4,0x7ff00
   1609e:	9381                	srli	a5,a5,0x20
   160a0:	8f7d                	and	a4,a4,a5
   160a2:	fcc007b7          	lui	a5,0xfcc00
   160a6:	9fb9                	addw	a5,a5,a4
   160a8:	0007871b          	sext.w	a4,a5
   160ac:	00e05663          	blez	a4,160b8 <__ulp+0x22>
   160b0:	1782                	slli	a5,a5,0x20
   160b2:	f2078553          	fmv.d.x	fa0,a5
   160b6:	8082                	ret
   160b8:	40f007bb          	negw	a5,a5
   160bc:	4147d71b          	sraiw	a4,a5,0x14
   160c0:	46cd                	li	a3,19
   160c2:	00e6c763          	blt	a3,a4,160d0 <__ulp+0x3a>
   160c6:	000807b7          	lui	a5,0x80
   160ca:	40e7d7bb          	sraw	a5,a5,a4
   160ce:	b7cd                	j	160b0 <__ulp+0x1a>
   160d0:	fec7069b          	addiw	a3,a4,-20
   160d4:	4679                	li	a2,30
   160d6:	4781                	li	a5,0
   160d8:	4705                	li	a4,1
   160da:	00d64663          	blt	a2,a3,160e6 <__ulp+0x50>
   160de:	80000737          	lui	a4,0x80000
   160e2:	00d7573b          	srlw	a4,a4,a3
   160e6:	9381                	srli	a5,a5,0x20
   160e8:	1702                	slli	a4,a4,0x20
   160ea:	9301                	srli	a4,a4,0x20
   160ec:	1782                	slli	a5,a5,0x20
   160ee:	8fd9                	or	a5,a5,a4
   160f0:	f2078553          	fmv.d.x	fa0,a5
   160f4:	8082                	ret

00000000000160f6 <__b2d>:
   160f6:	7179                	addi	sp,sp,-48
   160f8:	ec26                	sd	s1,24(sp)
   160fa:	4944                	lw	s1,20(a0)
   160fc:	f022                	sd	s0,32(sp)
   160fe:	01850413          	addi	s0,a0,24
   16102:	048a                	slli	s1,s1,0x2
   16104:	94a2                	add	s1,s1,s0
   16106:	e84a                	sd	s2,16(sp)
   16108:	ffc4a903          	lw	s2,-4(s1)
   1610c:	e44e                	sd	s3,8(sp)
   1610e:	e052                	sd	s4,0(sp)
   16110:	854a                	mv	a0,s2
   16112:	89ae                	mv	s3,a1
   16114:	f406                	sd	ra,40(sp)
   16116:	8b3ff0ef          	jal	ra,159c8 <__hi0bits>
   1611a:	02000693          	li	a3,32
   1611e:	40a687bb          	subw	a5,a3,a0
   16122:	00f9a023          	sw	a5,0(s3)
   16126:	47a9                	li	a5,10
   16128:	ffc48a13          	addi	s4,s1,-4
   1612c:	06a7df63          	bge	a5,a0,161aa <__b2d+0xb4>
   16130:	ff55079b          	addiw	a5,a0,-11
   16134:	05447763          	bgeu	s0,s4,16182 <__b2d+0x8c>
   16138:	ff84a703          	lw	a4,-8(s1)
   1613c:	c7a9                	beqz	a5,16186 <__b2d+0x90>
   1613e:	40f6853b          	subw	a0,a3,a5
   16142:	00f916bb          	sllw	a3,s2,a5
   16146:	00a7593b          	srlw	s2,a4,a0
   1614a:	0126e6b3          	or	a3,a3,s2
   1614e:	3ff00937          	lui	s2,0x3ff00
   16152:	0126e6b3          	or	a3,a3,s2
   16156:	00f7173b          	sllw	a4,a4,a5
   1615a:	ff848613          	addi	a2,s1,-8
   1615e:	02069793          	slli	a5,a3,0x20
   16162:	0007069b          	sext.w	a3,a4
   16166:	00c47863          	bgeu	s0,a2,16176 <__b2d+0x80>
   1616a:	ff44a683          	lw	a3,-12(s1)
   1616e:	00a6d6bb          	srlw	a3,a3,a0
   16172:	8ed9                	or	a3,a3,a4
   16174:	2681                	sext.w	a3,a3
   16176:	9381                	srli	a5,a5,0x20
   16178:	1682                	slli	a3,a3,0x20
   1617a:	9281                	srli	a3,a3,0x20
   1617c:	1782                	slli	a5,a5,0x20
   1617e:	8fd5                	or	a5,a5,a3
   16180:	a819                	j	16196 <__b2d+0xa0>
   16182:	4701                	li	a4,0
   16184:	efa1                	bnez	a5,161dc <__b2d+0xe6>
   16186:	3ff007b7          	lui	a5,0x3ff00
   1618a:	00f967b3          	or	a5,s2,a5
   1618e:	1702                	slli	a4,a4,0x20
   16190:	9301                	srli	a4,a4,0x20
   16192:	1782                	slli	a5,a5,0x20
   16194:	8fd9                	or	a5,a5,a4
   16196:	70a2                	ld	ra,40(sp)
   16198:	7402                	ld	s0,32(sp)
   1619a:	64e2                	ld	s1,24(sp)
   1619c:	6942                	ld	s2,16(sp)
   1619e:	69a2                	ld	s3,8(sp)
   161a0:	6a02                	ld	s4,0(sp)
   161a2:	f2078553          	fmv.d.x	fa0,a5
   161a6:	6145                	addi	sp,sp,48
   161a8:	8082                	ret
   161aa:	46ad                	li	a3,11
   161ac:	9e89                	subw	a3,a3,a0
   161ae:	3ff00737          	lui	a4,0x3ff00
   161b2:	00d957bb          	srlw	a5,s2,a3
   161b6:	8fd9                	or	a5,a5,a4
   161b8:	1782                	slli	a5,a5,0x20
   161ba:	4701                	li	a4,0
   161bc:	01447663          	bgeu	s0,s4,161c8 <__b2d+0xd2>
   161c0:	ff84a703          	lw	a4,-8(s1)
   161c4:	00d7573b          	srlw	a4,a4,a3
   161c8:	2555                	addiw	a0,a0,21
   161ca:	00a9153b          	sllw	a0,s2,a0
   161ce:	8d59                	or	a0,a0,a4
   161d0:	9381                	srli	a5,a5,0x20
   161d2:	1502                	slli	a0,a0,0x20
   161d4:	9101                	srli	a0,a0,0x20
   161d6:	1782                	slli	a5,a5,0x20
   161d8:	8fc9                	or	a5,a5,a0
   161da:	bf75                	j	16196 <__b2d+0xa0>
   161dc:	00f917bb          	sllw	a5,s2,a5
   161e0:	3ff00937          	lui	s2,0x3ff00
   161e4:	0127e7b3          	or	a5,a5,s2
   161e8:	1782                	slli	a5,a5,0x20
   161ea:	4681                	li	a3,0
   161ec:	b769                	j	16176 <__b2d+0x80>

00000000000161ee <__d2b>:
   161ee:	7139                	addi	sp,sp,-64
   161f0:	e852                	sd	s4,16(sp)
   161f2:	8a2e                	mv	s4,a1
   161f4:	4585                	li	a1,1
   161f6:	f822                	sd	s0,48(sp)
   161f8:	ec4e                	sd	s3,24(sp)
   161fa:	fc06                	sd	ra,56(sp)
   161fc:	f426                	sd	s1,40(sp)
   161fe:	f04a                	sd	s2,32(sp)
   16200:	e2050453          	fmv.x.d	s0,fa0
   16204:	89b2                	mv	s3,a2
   16206:	d84ff0ef          	jal	ra,1578a <_Balloc>
   1620a:	c169                	beqz	a0,162cc <__d2b+0xde>
   1620c:	42045793          	srai	a5,s0,0x20
   16210:	0147d91b          	srliw	s2,a5,0x14
   16214:	7ff97913          	andi	s2,s2,2047
   16218:	17b2                	slli	a5,a5,0x2c
   1621a:	84aa                	mv	s1,a0
   1621c:	93b1                	srli	a5,a5,0x2c
   1621e:	00090563          	beqz	s2,16228 <__d2b+0x3a>
   16222:	00100737          	lui	a4,0x100
   16226:	8fd9                	or	a5,a5,a4
   16228:	c63e                	sw	a5,12(sp)
   1622a:	2401                	sext.w	s0,s0
   1622c:	c025                	beqz	s0,1628c <__d2b+0x9e>
   1622e:	0028                	addi	a0,sp,8
   16230:	c422                	sw	s0,8(sp)
   16232:	fe4ff0ef          	jal	ra,15a16 <__lo0bits>
   16236:	c559                	beqz	a0,162c4 <__d2b+0xd6>
   16238:	4732                	lw	a4,12(sp)
   1623a:	46a2                	lw	a3,8(sp)
   1623c:	02000793          	li	a5,32
   16240:	9f89                	subw	a5,a5,a0
   16242:	00f717bb          	sllw	a5,a4,a5
   16246:	8fd5                	or	a5,a5,a3
   16248:	00a7573b          	srlw	a4,a4,a0
   1624c:	cc9c                	sw	a5,24(s1)
   1624e:	c63a                	sw	a4,12(sp)
   16250:	0007079b          	sext.w	a5,a4
   16254:	00f03433          	snez	s0,a5
   16258:	0405                	addi	s0,s0,1
   1625a:	ccdc                	sw	a5,28(s1)
   1625c:	c8c0                	sw	s0,20(s1)
   1625e:	04090363          	beqz	s2,162a4 <__d2b+0xb6>
   16262:	bcd9091b          	addiw	s2,s2,-1075
   16266:	00a9093b          	addw	s2,s2,a0
   1626a:	03500793          	li	a5,53
   1626e:	012a2023          	sw	s2,0(s4)
   16272:	40a7853b          	subw	a0,a5,a0
   16276:	00a9a023          	sw	a0,0(s3)
   1627a:	70e2                	ld	ra,56(sp)
   1627c:	7442                	ld	s0,48(sp)
   1627e:	7902                	ld	s2,32(sp)
   16280:	69e2                	ld	s3,24(sp)
   16282:	6a42                	ld	s4,16(sp)
   16284:	8526                	mv	a0,s1
   16286:	74a2                	ld	s1,40(sp)
   16288:	6121                	addi	sp,sp,64
   1628a:	8082                	ret
   1628c:	0068                	addi	a0,sp,12
   1628e:	f88ff0ef          	jal	ra,15a16 <__lo0bits>
   16292:	4785                	li	a5,1
   16294:	c8dc                	sw	a5,20(s1)
   16296:	47b2                	lw	a5,12(sp)
   16298:	0205051b          	addiw	a0,a0,32
   1629c:	4405                	li	s0,1
   1629e:	cc9c                	sw	a5,24(s1)
   162a0:	fc0911e3          	bnez	s2,16262 <__d2b+0x74>
   162a4:	bce5051b          	addiw	a0,a0,-1074
   162a8:	00241793          	slli	a5,s0,0x2
   162ac:	00aa2023          	sw	a0,0(s4)
   162b0:	97a6                	add	a5,a5,s1
   162b2:	4bc8                	lw	a0,20(a5)
   162b4:	0054141b          	slliw	s0,s0,0x5
   162b8:	f10ff0ef          	jal	ra,159c8 <__hi0bits>
   162bc:	9c09                	subw	s0,s0,a0
   162be:	0089a023          	sw	s0,0(s3)
   162c2:	bf65                	j	1627a <__d2b+0x8c>
   162c4:	4722                	lw	a4,8(sp)
   162c6:	47b2                	lw	a5,12(sp)
   162c8:	cc98                	sw	a4,24(s1)
   162ca:	b769                	j	16254 <__d2b+0x66>
   162cc:	66f5                	lui	a3,0x1d
   162ce:	6575                	lui	a0,0x1d
   162d0:	ac068693          	addi	a3,a3,-1344 # 1cac0 <zeroes.0+0x78>
   162d4:	4601                	li	a2,0
   162d6:	30a00593          	li	a1,778
   162da:	dc850513          	addi	a0,a0,-568 # 1cdc8 <bmask+0x40>
   162de:	7d9020ef          	jal	ra,192b6 <__assert_func>

00000000000162e2 <__ratio>:
   162e2:	7179                	addi	sp,sp,-48
   162e4:	ec26                	sd	s1,24(sp)
   162e6:	84ae                	mv	s1,a1
   162e8:	002c                	addi	a1,sp,8
   162ea:	f406                	sd	ra,40(sp)
   162ec:	f022                	sd	s0,32(sp)
   162ee:	e84a                	sd	s2,16(sp)
   162f0:	892a                	mv	s2,a0
   162f2:	e05ff0ef          	jal	ra,160f6 <__b2d>
   162f6:	006c                	addi	a1,sp,12
   162f8:	8526                	mv	a0,s1
   162fa:	e2050453          	fmv.x.d	s0,fa0
   162fe:	df9ff0ef          	jal	ra,160f6 <__b2d>
   16302:	48d8                	lw	a4,20(s1)
   16304:	01492783          	lw	a5,20(s2) # 3ff00014 <__BSS_END__+0x3fee06fc>
   16308:	46b2                	lw	a3,12(sp)
   1630a:	9f99                	subw	a5,a5,a4
   1630c:	4722                	lw	a4,8(sp)
   1630e:	0057979b          	slliw	a5,a5,0x5
   16312:	9f15                	subw	a4,a4,a3
   16314:	00e786bb          	addw	a3,a5,a4
   16318:	87b6                	mv	a5,a3
   1631a:	e2050753          	fmv.x.d	a4,fa0
   1631e:	02d05863          	blez	a3,1634e <__ratio+0x6c>
   16322:	02045693          	srli	a3,s0,0x20
   16326:	0147979b          	slliw	a5,a5,0x14
   1632a:	9fb5                	addw	a5,a5,a3
   1632c:	56fd                	li	a3,-1
   1632e:	9281                	srli	a3,a3,0x20
   16330:	1782                	slli	a5,a5,0x20
   16332:	8c75                	and	s0,s0,a3
   16334:	8c5d                	or	s0,s0,a5
   16336:	f20407d3          	fmv.d.x	fa5,s0
   1633a:	70a2                	ld	ra,40(sp)
   1633c:	7402                	ld	s0,32(sp)
   1633e:	f2070753          	fmv.d.x	fa4,a4
   16342:	64e2                	ld	s1,24(sp)
   16344:	6942                	ld	s2,16(sp)
   16346:	1ae7f553          	fdiv.d	fa0,fa5,fa4
   1634a:	6145                	addi	sp,sp,48
   1634c:	8082                	ret
   1634e:	02075693          	srli	a3,a4,0x20
   16352:	0147979b          	slliw	a5,a5,0x14
   16356:	40f687bb          	subw	a5,a3,a5
   1635a:	56fd                	li	a3,-1
   1635c:	9281                	srli	a3,a3,0x20
   1635e:	1782                	slli	a5,a5,0x20
   16360:	8f75                	and	a4,a4,a3
   16362:	8f5d                	or	a4,a4,a5
   16364:	bfc9                	j	16336 <__ratio+0x54>

0000000000016366 <_mprec_log10>:
   16366:	47dd                	li	a5,23
   16368:	00a7db63          	bge	a5,a0,1637e <_mprec_log10+0x18>
   1636c:	7201b507          	fld	fa0,1824(gp) # 1f838 <__SDATA_BEGIN__+0x10>
   16370:	7281b787          	fld	fa5,1832(gp) # 1f840 <__SDATA_BEGIN__+0x18>
   16374:	357d                	addiw	a0,a0,-1
   16376:	12f57553          	fmul.d	fa0,fa0,fa5
   1637a:	fd6d                	bnez	a0,16374 <_mprec_log10+0xe>
   1637c:	8082                	ret
   1637e:	67f5                	lui	a5,0x1d
   16380:	e3078793          	addi	a5,a5,-464 # 1ce30 <p05.0>
   16384:	050e                	slli	a0,a0,0x3
   16386:	953e                	add	a0,a0,a5
   16388:	2908                	fld	fa0,16(a0)
   1638a:	8082                	ret

000000000001638c <__copybits>:
   1638c:	4a54                	lw	a3,20(a2)
   1638e:	35fd                	addiw	a1,a1,-1
   16390:	4055d59b          	sraiw	a1,a1,0x5
   16394:	2585                	addiw	a1,a1,1
   16396:	01860793          	addi	a5,a2,24
   1639a:	068a                	slli	a3,a3,0x2
   1639c:	058a                	slli	a1,a1,0x2
   1639e:	96be                	add	a3,a3,a5
   163a0:	95aa                	add	a1,a1,a0
   163a2:	02d7f163          	bgeu	a5,a3,163c4 <__copybits+0x38>
   163a6:	872a                	mv	a4,a0
   163a8:	0007a803          	lw	a6,0(a5)
   163ac:	0791                	addi	a5,a5,4
   163ae:	0711                	addi	a4,a4,4
   163b0:	ff072e23          	sw	a6,-4(a4) # ffffc <__BSS_END__+0xe06e4>
   163b4:	fed7eae3          	bltu	a5,a3,163a8 <__copybits+0x1c>
   163b8:	40c687b3          	sub	a5,a3,a2
   163bc:	179d                	addi	a5,a5,-25
   163be:	9bf1                	andi	a5,a5,-4
   163c0:	0791                	addi	a5,a5,4
   163c2:	953e                	add	a0,a0,a5
   163c4:	00b57763          	bgeu	a0,a1,163d2 <__copybits+0x46>
   163c8:	0511                	addi	a0,a0,4
   163ca:	fe052e23          	sw	zero,-4(a0)
   163ce:	feb56de3          	bltu	a0,a1,163c8 <__copybits+0x3c>
   163d2:	8082                	ret

00000000000163d4 <__any_on>:
   163d4:	4958                	lw	a4,20(a0)
   163d6:	4055d613          	srai	a2,a1,0x5
   163da:	01850693          	addi	a3,a0,24
   163de:	00c75d63          	bge	a4,a2,163f8 <__any_on+0x24>
   163e2:	00271793          	slli	a5,a4,0x2
   163e6:	97b6                	add	a5,a5,a3
   163e8:	02f6f863          	bgeu	a3,a5,16418 <__any_on+0x44>
   163ec:	ffc7a703          	lw	a4,-4(a5)
   163f0:	17f1                	addi	a5,a5,-4
   163f2:	db7d                	beqz	a4,163e8 <__any_on+0x14>
   163f4:	4505                	li	a0,1
   163f6:	8082                	ret
   163f8:	00261793          	slli	a5,a2,0x2
   163fc:	97b6                	add	a5,a5,a3
   163fe:	fee655e3          	bge	a2,a4,163e8 <__any_on+0x14>
   16402:	89fd                	andi	a1,a1,31
   16404:	d1f5                	beqz	a1,163e8 <__any_on+0x14>
   16406:	4390                	lw	a2,0(a5)
   16408:	4505                	li	a0,1
   1640a:	00b6573b          	srlw	a4,a2,a1
   1640e:	00b715bb          	sllw	a1,a4,a1
   16412:	fcc58be3          	beq	a1,a2,163e8 <__any_on+0x14>
   16416:	8082                	ret
   16418:	4501                	li	a0,0
   1641a:	8082                	ret

000000000001641c <cleanup_glue>:
   1641c:	7179                	addi	sp,sp,-48
   1641e:	e84a                	sd	s2,16(sp)
   16420:	0005b903          	ld	s2,0(a1)
   16424:	f022                	sd	s0,32(sp)
   16426:	ec26                	sd	s1,24(sp)
   16428:	f406                	sd	ra,40(sp)
   1642a:	e44e                	sd	s3,8(sp)
   1642c:	e052                	sd	s4,0(sp)
   1642e:	842e                	mv	s0,a1
   16430:	84aa                	mv	s1,a0
   16432:	02090b63          	beqz	s2,16468 <cleanup_glue+0x4c>
   16436:	00093983          	ld	s3,0(s2)
   1643a:	02098363          	beqz	s3,16460 <cleanup_glue+0x44>
   1643e:	0009ba03          	ld	s4,0(s3)
   16442:	000a0b63          	beqz	s4,16458 <cleanup_glue+0x3c>
   16446:	000a3583          	ld	a1,0(s4)
   1644a:	c199                	beqz	a1,16450 <cleanup_glue+0x34>
   1644c:	fd1ff0ef          	jal	ra,1641c <cleanup_glue>
   16450:	85d2                	mv	a1,s4
   16452:	8526                	mv	a0,s1
   16454:	c45fc0ef          	jal	ra,13098 <_free_r>
   16458:	85ce                	mv	a1,s3
   1645a:	8526                	mv	a0,s1
   1645c:	c3dfc0ef          	jal	ra,13098 <_free_r>
   16460:	85ca                	mv	a1,s2
   16462:	8526                	mv	a0,s1
   16464:	c35fc0ef          	jal	ra,13098 <_free_r>
   16468:	85a2                	mv	a1,s0
   1646a:	7402                	ld	s0,32(sp)
   1646c:	70a2                	ld	ra,40(sp)
   1646e:	6942                	ld	s2,16(sp)
   16470:	69a2                	ld	s3,8(sp)
   16472:	6a02                	ld	s4,0(sp)
   16474:	8526                	mv	a0,s1
   16476:	64e2                	ld	s1,24(sp)
   16478:	6145                	addi	sp,sp,48
   1647a:	c1ffc06f          	j	13098 <_free_r>

000000000001647e <_reclaim_reent>:
   1647e:	7501b783          	ld	a5,1872(gp) # 1f868 <_impure_ptr>
   16482:	0aa78563          	beq	a5,a0,1652c <_reclaim_reent+0xae>
   16486:	7d2c                	ld	a1,120(a0)
   16488:	7179                	addi	sp,sp,-48
   1648a:	ec26                	sd	s1,24(sp)
   1648c:	f406                	sd	ra,40(sp)
   1648e:	f022                	sd	s0,32(sp)
   16490:	e84a                	sd	s2,16(sp)
   16492:	e44e                	sd	s3,8(sp)
   16494:	84aa                	mv	s1,a0
   16496:	c58d                	beqz	a1,164c0 <_reclaim_reent+0x42>
   16498:	4901                	li	s2,0
   1649a:	20000993          	li	s3,512
   1649e:	012587b3          	add	a5,a1,s2
   164a2:	6380                	ld	s0,0(a5)
   164a4:	c801                	beqz	s0,164b4 <_reclaim_reent+0x36>
   164a6:	85a2                	mv	a1,s0
   164a8:	6000                	ld	s0,0(s0)
   164aa:	8526                	mv	a0,s1
   164ac:	bedfc0ef          	jal	ra,13098 <_free_r>
   164b0:	f87d                	bnez	s0,164a6 <_reclaim_reent+0x28>
   164b2:	7cac                	ld	a1,120(s1)
   164b4:	0921                	addi	s2,s2,8
   164b6:	ff3914e3          	bne	s2,s3,1649e <_reclaim_reent+0x20>
   164ba:	8526                	mv	a0,s1
   164bc:	bddfc0ef          	jal	ra,13098 <_free_r>
   164c0:	70ac                	ld	a1,96(s1)
   164c2:	c581                	beqz	a1,164ca <_reclaim_reent+0x4c>
   164c4:	8526                	mv	a0,s1
   164c6:	bd3fc0ef          	jal	ra,13098 <_free_r>
   164ca:	1f84b403          	ld	s0,504(s1)
   164ce:	cc01                	beqz	s0,164e6 <_reclaim_reent+0x68>
   164d0:	20048913          	addi	s2,s1,512
   164d4:	01240963          	beq	s0,s2,164e6 <_reclaim_reent+0x68>
   164d8:	85a2                	mv	a1,s0
   164da:	6000                	ld	s0,0(s0)
   164dc:	8526                	mv	a0,s1
   164de:	bbbfc0ef          	jal	ra,13098 <_free_r>
   164e2:	fe891be3          	bne	s2,s0,164d8 <_reclaim_reent+0x5a>
   164e6:	64cc                	ld	a1,136(s1)
   164e8:	c581                	beqz	a1,164f0 <_reclaim_reent+0x72>
   164ea:	8526                	mv	a0,s1
   164ec:	badfc0ef          	jal	ra,13098 <_free_r>
   164f0:	48bc                	lw	a5,80(s1)
   164f2:	c795                	beqz	a5,1651e <_reclaim_reent+0xa0>
   164f4:	6cbc                	ld	a5,88(s1)
   164f6:	8526                	mv	a0,s1
   164f8:	9782                	jalr	a5
   164fa:	5204b403          	ld	s0,1312(s1)
   164fe:	c005                	beqz	s0,1651e <_reclaim_reent+0xa0>
   16500:	600c                	ld	a1,0(s0)
   16502:	c581                	beqz	a1,1650a <_reclaim_reent+0x8c>
   16504:	8526                	mv	a0,s1
   16506:	f17ff0ef          	jal	ra,1641c <cleanup_glue>
   1650a:	85a2                	mv	a1,s0
   1650c:	7402                	ld	s0,32(sp)
   1650e:	70a2                	ld	ra,40(sp)
   16510:	6942                	ld	s2,16(sp)
   16512:	69a2                	ld	s3,8(sp)
   16514:	8526                	mv	a0,s1
   16516:	64e2                	ld	s1,24(sp)
   16518:	6145                	addi	sp,sp,48
   1651a:	b7ffc06f          	j	13098 <_free_r>
   1651e:	70a2                	ld	ra,40(sp)
   16520:	7402                	ld	s0,32(sp)
   16522:	64e2                	ld	s1,24(sp)
   16524:	6942                	ld	s2,16(sp)
   16526:	69a2                	ld	s3,8(sp)
   16528:	6145                	addi	sp,sp,48
   1652a:	8082                	ret
   1652c:	8082                	ret

000000000001652e <frexp>:
   1652e:	e20507d3          	fmv.x.d	a5,fa0
   16532:	80000637          	lui	a2,0x80000
   16536:	fff64613          	not	a2,a2
   1653a:	4207d593          	srai	a1,a5,0x20
   1653e:	00c5f733          	and	a4,a1,a2
   16542:	00052023          	sw	zero,0(a0)
   16546:	7ff00837          	lui	a6,0x7ff00
   1654a:	86ae                	mv	a3,a1
   1654c:	05075c63          	bge	a4,a6,165a4 <frexp+0x76>
   16550:	00f76833          	or	a6,a4,a5
   16554:	2801                	sext.w	a6,a6
   16556:	04080763          	beqz	a6,165a4 <frexp+0x76>
   1655a:	7ff00837          	lui	a6,0x7ff00
   1655e:	0105f5b3          	and	a1,a1,a6
   16562:	4801                	li	a6,0
   16564:	ed89                	bnez	a1,1657e <frexp+0x50>
   16566:	7301b787          	fld	fa5,1840(gp) # 1f848 <__SDATA_BEGIN__+0x20>
   1656a:	fca00813          	li	a6,-54
   1656e:	12f577d3          	fmul.d	fa5,fa0,fa5
   16572:	e20787d3          	fmv.x.d	a5,fa5
   16576:	4207d693          	srai	a3,a5,0x20
   1657a:	00c6f733          	and	a4,a3,a2
   1657e:	80100637          	lui	a2,0x80100
   16582:	167d                	addi	a2,a2,-1
   16584:	8ef1                	and	a3,a3,a2
   16586:	3fe00637          	lui	a2,0x3fe00
   1658a:	8ed1                	or	a3,a3,a2
   1658c:	4147571b          	sraiw	a4,a4,0x14
   16590:	567d                	li	a2,-1
   16592:	c027071b          	addiw	a4,a4,-1022
   16596:	9201                	srli	a2,a2,0x20
   16598:	0107073b          	addw	a4,a4,a6
   1659c:	1682                	slli	a3,a3,0x20
   1659e:	8ff1                	and	a5,a5,a2
   165a0:	c118                	sw	a4,0(a0)
   165a2:	8fd5                	or	a5,a5,a3
   165a4:	f2078553          	fmv.d.x	fa0,a5
   165a8:	8082                	ret

00000000000165aa <_sprintf_r>:
   165aa:	7111                	addi	sp,sp,-256
   165ac:	0d810e93          	addi	t4,sp,216
   165b0:	f5be                	sd	a5,232(sp)
   165b2:	80000337          	lui	t1,0x80000
   165b6:	77c1                	lui	a5,0xffff0
   165b8:	8e2e                	mv	t3,a1
   165ba:	fff34313          	not	t1,t1
   165be:	edb6                	sd	a3,216(sp)
   165c0:	20878793          	addi	a5,a5,520 # ffffffffffff0208 <__BSS_END__+0xfffffffffffd08f0>
   165c4:	080c                	addi	a1,sp,16
   165c6:	86f6                	mv	a3,t4
   165c8:	e586                	sd	ra,200(sp)
   165ca:	d03e                	sw	a5,32(sp)
   165cc:	f1ba                	sd	a4,224(sp)
   165ce:	f9c2                	sd	a6,240(sp)
   165d0:	fdc6                	sd	a7,248(sp)
   165d2:	e872                	sd	t3,16(sp)
   165d4:	f472                	sd	t3,40(sp)
   165d6:	d81a                	sw	t1,48(sp)
   165d8:	ce1a                	sw	t1,28(sp)
   165da:	e476                	sd	t4,8(sp)
   165dc:	3bc000ef          	jal	ra,16998 <_svfprintf_r>
   165e0:	67c2                	ld	a5,16(sp)
   165e2:	00078023          	sb	zero,0(a5)
   165e6:	60ae                	ld	ra,200(sp)
   165e8:	6111                	addi	sp,sp,256
   165ea:	8082                	ret

00000000000165ec <sprintf>:
   165ec:	8e2a                	mv	t3,a0
   165ee:	7111                	addi	sp,sp,-256
   165f0:	7501b503          	ld	a0,1872(gp) # 1f868 <_impure_ptr>
   165f4:	0d010e93          	addi	t4,sp,208
   165f8:	f5be                	sd	a5,232(sp)
   165fa:	80000337          	lui	t1,0x80000
   165fe:	77c1                	lui	a5,0xffff0
   16600:	fff34313          	not	t1,t1
   16604:	e9b2                	sd	a2,208(sp)
   16606:	edb6                	sd	a3,216(sp)
   16608:	20878793          	addi	a5,a5,520 # ffffffffffff0208 <__BSS_END__+0xfffffffffffd08f0>
   1660c:	862e                	mv	a2,a1
   1660e:	86f6                	mv	a3,t4
   16610:	080c                	addi	a1,sp,16
   16612:	e586                	sd	ra,200(sp)
   16614:	d03e                	sw	a5,32(sp)
   16616:	f1ba                	sd	a4,224(sp)
   16618:	f9c2                	sd	a6,240(sp)
   1661a:	fdc6                	sd	a7,248(sp)
   1661c:	e872                	sd	t3,16(sp)
   1661e:	f472                	sd	t3,40(sp)
   16620:	d81a                	sw	t1,48(sp)
   16622:	ce1a                	sw	t1,28(sp)
   16624:	e476                	sd	t4,8(sp)
   16626:	372000ef          	jal	ra,16998 <_svfprintf_r>
   1662a:	67c2                	ld	a5,16(sp)
   1662c:	00078023          	sb	zero,0(a5)
   16630:	60ae                	ld	ra,200(sp)
   16632:	6111                	addi	sp,sp,256
   16634:	8082                	ret

0000000000016636 <__sread>:
   16636:	1141                	addi	sp,sp,-16
   16638:	e022                	sd	s0,0(sp)
   1663a:	842e                	mv	s0,a1
   1663c:	01259583          	lh	a1,18(a1)
   16640:	e406                	sd	ra,8(sp)
   16642:	5c6030ef          	jal	ra,19c08 <_read_r>
   16646:	00054963          	bltz	a0,16658 <__sread+0x22>
   1664a:	685c                	ld	a5,144(s0)
   1664c:	60a2                	ld	ra,8(sp)
   1664e:	97aa                	add	a5,a5,a0
   16650:	e85c                	sd	a5,144(s0)
   16652:	6402                	ld	s0,0(sp)
   16654:	0141                	addi	sp,sp,16
   16656:	8082                	ret
   16658:	01045783          	lhu	a5,16(s0)
   1665c:	777d                	lui	a4,0xfffff
   1665e:	177d                	addi	a4,a4,-1
   16660:	8ff9                	and	a5,a5,a4
   16662:	60a2                	ld	ra,8(sp)
   16664:	00f41823          	sh	a5,16(s0)
   16668:	6402                	ld	s0,0(sp)
   1666a:	0141                	addi	sp,sp,16
   1666c:	8082                	ret

000000000001666e <__seofread>:
   1666e:	4501                	li	a0,0
   16670:	8082                	ret

0000000000016672 <__swrite>:
   16672:	01059783          	lh	a5,16(a1)
   16676:	7179                	addi	sp,sp,-48
   16678:	f022                	sd	s0,32(sp)
   1667a:	ec26                	sd	s1,24(sp)
   1667c:	e84a                	sd	s2,16(sp)
   1667e:	e44e                	sd	s3,8(sp)
   16680:	f406                	sd	ra,40(sp)
   16682:	1007f713          	andi	a4,a5,256
   16686:	842e                	mv	s0,a1
   16688:	84aa                	mv	s1,a0
   1668a:	01259583          	lh	a1,18(a1)
   1668e:	8932                	mv	s2,a2
   16690:	89b6                	mv	s3,a3
   16692:	e30d                	bnez	a4,166b4 <__swrite+0x42>
   16694:	777d                	lui	a4,0xfffff
   16696:	177d                	addi	a4,a4,-1
   16698:	8ff9                	and	a5,a5,a4
   1669a:	00f41823          	sh	a5,16(s0)
   1669e:	7402                	ld	s0,32(sp)
   166a0:	70a2                	ld	ra,40(sp)
   166a2:	86ce                	mv	a3,s3
   166a4:	864a                	mv	a2,s2
   166a6:	69a2                	ld	s3,8(sp)
   166a8:	6942                	ld	s2,16(sp)
   166aa:	8526                	mv	a0,s1
   166ac:	64e2                	ld	s1,24(sp)
   166ae:	6145                	addi	sp,sp,48
   166b0:	3cb0206f          	j	1927a <_write_r>
   166b4:	4689                	li	a3,2
   166b6:	4601                	li	a2,0
   166b8:	356030ef          	jal	ra,19a0e <_lseek_r>
   166bc:	01041783          	lh	a5,16(s0)
   166c0:	01241583          	lh	a1,18(s0)
   166c4:	bfc1                	j	16694 <__swrite+0x22>

00000000000166c6 <__sseek>:
   166c6:	1141                	addi	sp,sp,-16
   166c8:	e022                	sd	s0,0(sp)
   166ca:	842e                	mv	s0,a1
   166cc:	01259583          	lh	a1,18(a1)
   166d0:	e406                	sd	ra,8(sp)
   166d2:	33c030ef          	jal	ra,19a0e <_lseek_r>
   166d6:	57fd                	li	a5,-1
   166d8:	00f50d63          	beq	a0,a5,166f2 <__sseek+0x2c>
   166dc:	01045783          	lhu	a5,16(s0)
   166e0:	6705                	lui	a4,0x1
   166e2:	60a2                	ld	ra,8(sp)
   166e4:	8fd9                	or	a5,a5,a4
   166e6:	e848                	sd	a0,144(s0)
   166e8:	00f41823          	sh	a5,16(s0)
   166ec:	6402                	ld	s0,0(sp)
   166ee:	0141                	addi	sp,sp,16
   166f0:	8082                	ret
   166f2:	01045783          	lhu	a5,16(s0)
   166f6:	777d                	lui	a4,0xfffff
   166f8:	177d                	addi	a4,a4,-1
   166fa:	8ff9                	and	a5,a5,a4
   166fc:	60a2                	ld	ra,8(sp)
   166fe:	00f41823          	sh	a5,16(s0)
   16702:	6402                	ld	s0,0(sp)
   16704:	0141                	addi	sp,sp,16
   16706:	8082                	ret

0000000000016708 <__sclose>:
   16708:	01259583          	lh	a1,18(a1)
   1670c:	4ab0206f          	j	193b6 <_close_r>

0000000000016710 <strcmp>:
   16710:	00b56733          	or	a4,a0,a1
   16714:	53fd                	li	t2,-1
   16716:	8b1d                	andi	a4,a4,7
   16718:	eb4d                	bnez	a4,167ca <strcmp+0xba>
   1671a:	00009797          	auipc	a5,0x9
   1671e:	1367b783          	ld	a5,310(a5) # 1f850 <mask>
   16722:	6110                	ld	a2,0(a0)
   16724:	6194                	ld	a3,0(a1)
   16726:	00f672b3          	and	t0,a2,a5
   1672a:	00f66333          	or	t1,a2,a5
   1672e:	92be                	add	t0,t0,a5
   16730:	0062e2b3          	or	t0,t0,t1
   16734:	0a729963          	bne	t0,t2,167e6 <strcmp+0xd6>
   16738:	02d61e63          	bne	a2,a3,16774 <strcmp+0x64>
   1673c:	6510                	ld	a2,8(a0)
   1673e:	6594                	ld	a3,8(a1)
   16740:	00f672b3          	and	t0,a2,a5
   16744:	00f66333          	or	t1,a2,a5
   16748:	92be                	add	t0,t0,a5
   1674a:	0062e2b3          	or	t0,t0,t1
   1674e:	08729a63          	bne	t0,t2,167e2 <strcmp+0xd2>
   16752:	02d61163          	bne	a2,a3,16774 <strcmp+0x64>
   16756:	6910                	ld	a2,16(a0)
   16758:	6994                	ld	a3,16(a1)
   1675a:	00f672b3          	and	t0,a2,a5
   1675e:	00f66333          	or	t1,a2,a5
   16762:	92be                	add	t0,t0,a5
   16764:	0062e2b3          	or	t0,t0,t1
   16768:	08729363          	bne	t0,t2,167ee <strcmp+0xde>
   1676c:	0561                	addi	a0,a0,24
   1676e:	05e1                	addi	a1,a1,24
   16770:	fad609e3          	beq	a2,a3,16722 <strcmp+0x12>
   16774:	03061713          	slli	a4,a2,0x30
   16778:	03069793          	slli	a5,a3,0x30
   1677c:	02f71863          	bne	a4,a5,167ac <strcmp+0x9c>
   16780:	02061713          	slli	a4,a2,0x20
   16784:	02069793          	slli	a5,a3,0x20
   16788:	02f71263          	bne	a4,a5,167ac <strcmp+0x9c>
   1678c:	01061713          	slli	a4,a2,0x10
   16790:	01069793          	slli	a5,a3,0x10
   16794:	00f71c63          	bne	a4,a5,167ac <strcmp+0x9c>
   16798:	03065713          	srli	a4,a2,0x30
   1679c:	0306d793          	srli	a5,a3,0x30
   167a0:	40f70533          	sub	a0,a4,a5
   167a4:	0ff57593          	andi	a1,a0,255
   167a8:	e991                	bnez	a1,167bc <strcmp+0xac>
   167aa:	8082                	ret
   167ac:	9341                	srli	a4,a4,0x30
   167ae:	93c1                	srli	a5,a5,0x30
   167b0:	40f70533          	sub	a0,a4,a5
   167b4:	0ff57593          	andi	a1,a0,255
   167b8:	e191                	bnez	a1,167bc <strcmp+0xac>
   167ba:	8082                	ret
   167bc:	0ff77713          	andi	a4,a4,255
   167c0:	0ff7f793          	andi	a5,a5,255
   167c4:	40f70533          	sub	a0,a4,a5
   167c8:	8082                	ret
   167ca:	00054603          	lbu	a2,0(a0)
   167ce:	0005c683          	lbu	a3,0(a1)
   167d2:	0505                	addi	a0,a0,1
   167d4:	0585                	addi	a1,a1,1
   167d6:	00d61363          	bne	a2,a3,167dc <strcmp+0xcc>
   167da:	fa65                	bnez	a2,167ca <strcmp+0xba>
   167dc:	40d60533          	sub	a0,a2,a3
   167e0:	8082                	ret
   167e2:	0521                	addi	a0,a0,8
   167e4:	05a1                	addi	a1,a1,8
   167e6:	fed612e3          	bne	a2,a3,167ca <strcmp+0xba>
   167ea:	4501                	li	a0,0
   167ec:	8082                	ret
   167ee:	0541                	addi	a0,a0,16
   167f0:	05c1                	addi	a1,a1,16
   167f2:	fcd61ce3          	bne	a2,a3,167ca <strcmp+0xba>
   167f6:	4501                	li	a0,0
   167f8:	8082                	ret

00000000000167fa <strcpy>:
   167fa:	00b567b3          	or	a5,a0,a1
   167fe:	8b9d                	andi	a5,a5,7
   16800:	efad                	bnez	a5,1687a <strcpy+0x80>
   16802:	7381b683          	ld	a3,1848(gp) # 1f850 <mask>
   16806:	6198                	ld	a4,0(a1)
   16808:	567d                	li	a2,-1
   1680a:	00d777b3          	and	a5,a4,a3
   1680e:	97b6                	add	a5,a5,a3
   16810:	8fd9                	or	a5,a5,a4
   16812:	8fd5                	or	a5,a5,a3
   16814:	06c79c63          	bne	a5,a2,1688c <strcpy+0x92>
   16818:	862a                	mv	a2,a0
   1681a:	587d                	li	a6,-1
   1681c:	e218                	sd	a4,0(a2)
   1681e:	6598                	ld	a4,8(a1)
   16820:	05a1                	addi	a1,a1,8
   16822:	0621                	addi	a2,a2,8
   16824:	00d777b3          	and	a5,a4,a3
   16828:	97b6                	add	a5,a5,a3
   1682a:	8fd9                	or	a5,a5,a4
   1682c:	8fd5                	or	a5,a5,a3
   1682e:	ff0787e3          	beq	a5,a6,1681c <strcpy+0x22>
   16832:	0005c783          	lbu	a5,0(a1)
   16836:	0015c703          	lbu	a4,1(a1)
   1683a:	0025c683          	lbu	a3,2(a1)
   1683e:	00f60023          	sb	a5,0(a2) # 3fe00000 <__BSS_END__+0x3fde06e8>
   16842:	cb9d                	beqz	a5,16878 <strcpy+0x7e>
   16844:	00e600a3          	sb	a4,1(a2)
   16848:	cb05                	beqz	a4,16878 <strcpy+0x7e>
   1684a:	0035c783          	lbu	a5,3(a1)
   1684e:	00d60123          	sb	a3,2(a2)
   16852:	c29d                	beqz	a3,16878 <strcpy+0x7e>
   16854:	0045c703          	lbu	a4,4(a1)
   16858:	00f601a3          	sb	a5,3(a2)
   1685c:	cf91                	beqz	a5,16878 <strcpy+0x7e>
   1685e:	0055c783          	lbu	a5,5(a1)
   16862:	00e60223          	sb	a4,4(a2)
   16866:	cb09                	beqz	a4,16878 <strcpy+0x7e>
   16868:	0065c703          	lbu	a4,6(a1)
   1686c:	00f602a3          	sb	a5,5(a2)
   16870:	c781                	beqz	a5,16878 <strcpy+0x7e>
   16872:	00e60323          	sb	a4,6(a2)
   16876:	ef09                	bnez	a4,16890 <strcpy+0x96>
   16878:	8082                	ret
   1687a:	87aa                	mv	a5,a0
   1687c:	0005c703          	lbu	a4,0(a1)
   16880:	0785                	addi	a5,a5,1
   16882:	0585                	addi	a1,a1,1
   16884:	fee78fa3          	sb	a4,-1(a5)
   16888:	fb75                	bnez	a4,1687c <strcpy+0x82>
   1688a:	8082                	ret
   1688c:	862a                	mv	a2,a0
   1688e:	b755                	j	16832 <strcpy+0x38>
   16890:	000603a3          	sb	zero,7(a2)
   16894:	8082                	ret

0000000000016896 <strlen>:
   16896:	00757793          	andi	a5,a0,7
   1689a:	872a                	mv	a4,a0
   1689c:	eba9                	bnez	a5,168ee <strlen+0x58>
   1689e:	7381b683          	ld	a3,1848(gp) # 1f850 <mask>
   168a2:	55fd                	li	a1,-1
   168a4:	6310                	ld	a2,0(a4)
   168a6:	0721                	addi	a4,a4,8
   168a8:	00d677b3          	and	a5,a2,a3
   168ac:	97b6                	add	a5,a5,a3
   168ae:	8fd1                	or	a5,a5,a2
   168b0:	8fd5                	or	a5,a5,a3
   168b2:	feb789e3          	beq	a5,a1,168a4 <strlen+0xe>
   168b6:	ff874683          	lbu	a3,-8(a4) # ffffffffffffeff8 <__BSS_END__+0xfffffffffffdf6e0>
   168ba:	40a707b3          	sub	a5,a4,a0
   168be:	c6a9                	beqz	a3,16908 <strlen+0x72>
   168c0:	ff974683          	lbu	a3,-7(a4)
   168c4:	ce9d                	beqz	a3,16902 <strlen+0x6c>
   168c6:	ffa74683          	lbu	a3,-6(a4)
   168ca:	c6a9                	beqz	a3,16914 <strlen+0x7e>
   168cc:	ffb74683          	lbu	a3,-5(a4)
   168d0:	ce9d                	beqz	a3,1690e <strlen+0x78>
   168d2:	ffc74683          	lbu	a3,-4(a4)
   168d6:	ffd74603          	lbu	a2,-3(a4)
   168da:	ffe74503          	lbu	a0,-2(a4)
   168de:	ce95                	beqz	a3,1691a <strlen+0x84>
   168e0:	c221                	beqz	a2,16920 <strlen+0x8a>
   168e2:	00a03533          	snez	a0,a0
   168e6:	953e                	add	a0,a0,a5
   168e8:	1579                	addi	a0,a0,-2
   168ea:	8082                	ret
   168ec:	dacd                	beqz	a3,1689e <strlen+0x8>
   168ee:	00074783          	lbu	a5,0(a4)
   168f2:	0705                	addi	a4,a4,1
   168f4:	00777693          	andi	a3,a4,7
   168f8:	fbf5                	bnez	a5,168ec <strlen+0x56>
   168fa:	8f09                	sub	a4,a4,a0
   168fc:	fff70513          	addi	a0,a4,-1
   16900:	8082                	ret
   16902:	ff978513          	addi	a0,a5,-7
   16906:	8082                	ret
   16908:	ff878513          	addi	a0,a5,-8
   1690c:	8082                	ret
   1690e:	ffb78513          	addi	a0,a5,-5
   16912:	8082                	ret
   16914:	ffa78513          	addi	a0,a5,-6
   16918:	8082                	ret
   1691a:	ffc78513          	addi	a0,a5,-4
   1691e:	8082                	ret
   16920:	ffd78513          	addi	a0,a5,-3
   16924:	8082                	ret

0000000000016926 <strncpy>:
   16926:	00a5e7b3          	or	a5,a1,a0
   1692a:	8b9d                	andi	a5,a5,7
   1692c:	872a                	mv	a4,a0
   1692e:	e7b1                	bnez	a5,1697a <strncpy+0x54>
   16930:	479d                	li	a5,7
   16932:	04c7f463          	bgeu	a5,a2,1697a <strncpy+0x54>
   16936:	7101b303          	ld	t1,1808(gp) # 1f828 <__SDATA_BEGIN__>
   1693a:	7181b883          	ld	a7,1816(gp) # 1f830 <__SDATA_BEGIN__+0x8>
   1693e:	4e1d                	li	t3,7
   16940:	6194                	ld	a3,0(a1)
   16942:	006687b3          	add	a5,a3,t1
   16946:	fff6c813          	not	a6,a3
   1694a:	0107f7b3          	and	a5,a5,a6
   1694e:	0117f7b3          	and	a5,a5,a7
   16952:	e785                	bnez	a5,1697a <strncpy+0x54>
   16954:	e314                	sd	a3,0(a4)
   16956:	1661                	addi	a2,a2,-8
   16958:	0721                	addi	a4,a4,8
   1695a:	05a1                	addi	a1,a1,8
   1695c:	fece62e3          	bltu	t3,a2,16940 <strncpy+0x1a>
   16960:	0585                	addi	a1,a1,1
   16962:	00170793          	addi	a5,a4,1
   16966:	ce11                	beqz	a2,16982 <strncpy+0x5c>
   16968:	fff5c683          	lbu	a3,-1(a1)
   1696c:	fff60813          	addi	a6,a2,-1
   16970:	fed78fa3          	sb	a3,-1(a5)
   16974:	ca81                	beqz	a3,16984 <strncpy+0x5e>
   16976:	873e                	mv	a4,a5
   16978:	8642                	mv	a2,a6
   1697a:	0585                	addi	a1,a1,1
   1697c:	00170793          	addi	a5,a4,1
   16980:	f665                	bnez	a2,16968 <strncpy+0x42>
   16982:	8082                	ret
   16984:	963a                	add	a2,a2,a4
   16986:	00080863          	beqz	a6,16996 <strncpy+0x70>
   1698a:	0785                	addi	a5,a5,1
   1698c:	fe078fa3          	sb	zero,-1(a5)
   16990:	fec79de3          	bne	a5,a2,1698a <strncpy+0x64>
   16994:	8082                	ret
   16996:	8082                	ret

0000000000016998 <_svfprintf_r>:
   16998:	d8010113          	addi	sp,sp,-640
   1699c:	26113c23          	sd	ra,632(sp)
   169a0:	25313c23          	sd	s3,600(sp)
   169a4:	25413823          	sd	s4,592(sp)
   169a8:	23913423          	sd	s9,552(sp)
   169ac:	8a2e                	mv	s4,a1
   169ae:	8cb2                	mv	s9,a2
   169b0:	ec36                	sd	a3,24(sp)
   169b2:	26813823          	sd	s0,624(sp)
   169b6:	26913423          	sd	s1,616(sp)
   169ba:	27213023          	sd	s2,608(sp)
   169be:	25513423          	sd	s5,584(sp)
   169c2:	25613023          	sd	s6,576(sp)
   169c6:	23713c23          	sd	s7,568(sp)
   169ca:	23813823          	sd	s8,560(sp)
   169ce:	23a13023          	sd	s10,544(sp)
   169d2:	21b13c23          	sd	s11,536(sp)
   169d6:	89aa                	mv	s3,a0
   169d8:	a9ffe0ef          	jal	ra,15476 <_localeconv_r>
   169dc:	611c                	ld	a5,0(a0)
   169de:	853e                	mv	a0,a5
   169e0:	f8be                	sd	a5,112(sp)
   169e2:	eb5ff0ef          	jal	ra,16896 <strlen>
   169e6:	010a5783          	lhu	a5,16(s4)
   169ea:	e202                	sd	zero,256(sp)
   169ec:	e602                	sd	zero,264(sp)
   169ee:	0807f793          	andi	a5,a5,128
   169f2:	f4aa                	sd	a0,104(sp)
   169f4:	c789                	beqz	a5,169fe <_svfprintf_r+0x66>
   169f6:	018a3783          	ld	a5,24(s4)
   169fa:	720785e3          	beqz	a5,17924 <_svfprintf_r+0xf8c>
   169fe:	67f5                	lui	a5,0x1d
   16a00:	a887b783          	ld	a5,-1400(a5) # 1ca88 <zeroes.0+0x40>
   16a04:	19010b13          	addi	s6,sp,400
   16a08:	ea5a                	sd	s6,272(sp)
   16a0a:	ed3e                	sd	a5,152(sp)
   16a0c:	67f5                	lui	a5,0x1d
   16a0e:	a687b783          	ld	a5,-1432(a5) # 1ca68 <zeroes.0+0x20>
   16a12:	f202                	sd	zero,288(sp)
   16a14:	10012c23          	sw	zero,280(sp)
   16a18:	e93e                	sd	a5,144(sp)
   16a1a:	67f5                	lui	a5,0x1d
   16a1c:	a787b783          	ld	a5,-1416(a5) # 1ca78 <zeroes.0+0x30>
   16a20:	f002                	sd	zero,32(sp)
   16a22:	f402                	sd	zero,40(sp)
   16a24:	f13e                	sd	a5,160(sp)
   16a26:	000cc783          	lbu	a5,0(s9)
   16a2a:	fc82                	sd	zero,120(sp)
   16a2c:	f082                	sd	zero,96(sp)
   16a2e:	e102                	sd	zero,128(sp)
   16a30:	e502                	sd	zero,136(sp)
   16a32:	e402                	sd	zero,8(sp)
   16a34:	835a                	mv	t1,s6
   16a36:	1c078563          	beqz	a5,16c00 <_svfprintf_r+0x268>
   16a3a:	8466                	mv	s0,s9
   16a3c:	02500713          	li	a4,37
   16a40:	2ee78163          	beq	a5,a4,16d22 <_svfprintf_r+0x38a>
   16a44:	00144783          	lbu	a5,1(s0)
   16a48:	0405                	addi	s0,s0,1
   16a4a:	fbfd                	bnez	a5,16a40 <_svfprintf_r+0xa8>
   16a4c:	419404bb          	subw	s1,s0,s9
   16a50:	1a048863          	beqz	s1,16c00 <_svfprintf_r+0x268>
   16a54:	7712                	ld	a4,288(sp)
   16a56:	11812783          	lw	a5,280(sp)
   16a5a:	01933023          	sd	s9,0(t1) # ffffffff80000000 <__BSS_END__+0xffffffff7ffe06e8>
   16a5e:	9726                	add	a4,a4,s1
   16a60:	2785                	addiw	a5,a5,1
   16a62:	00933423          	sd	s1,8(t1)
   16a66:	f23a                	sd	a4,288(sp)
   16a68:	10f12c23          	sw	a5,280(sp)
   16a6c:	0007871b          	sext.w	a4,a5
   16a70:	479d                	li	a5,7
   16a72:	0341                	addi	t1,t1,16
   16a74:	2ae7ce63          	blt	a5,a4,16d30 <_svfprintf_r+0x398>
   16a78:	6722                	ld	a4,8(sp)
   16a7a:	00044783          	lbu	a5,0(s0)
   16a7e:	9f25                	addw	a4,a4,s1
   16a80:	e43a                	sd	a4,8(sp)
   16a82:	16078f63          	beqz	a5,16c00 <_svfprintf_r+0x268>
   16a86:	67f5                	lui	a5,0x1d
   16a88:	00144e03          	lbu	t3,1(s0)
   16a8c:	0c010fa3          	sb	zero,223(sp)
   16a90:	0405                	addi	s0,s0,1
   16a92:	5c7d                	li	s8,-1
   16a94:	4a81                	li	s5,0
   16a96:	4481                	li	s1,0
   16a98:	05a00913          	li	s2,90
   16a9c:	f5878b93          	addi	s7,a5,-168 # 1cf58 <__mprec_bigtens+0x28>
   16aa0:	4da5                	li	s11,9
   16aa2:	0405                	addi	s0,s0,1
   16aa4:	000e0d1b          	sext.w	s10,t3
   16aa8:	02a00613          	li	a2,42
   16aac:	fe0d079b          	addiw	a5,s10,-32
   16ab0:	0007871b          	sext.w	a4,a5
   16ab4:	04e96363          	bltu	s2,a4,16afa <_svfprintf_r+0x162>
   16ab8:	02079713          	slli	a4,a5,0x20
   16abc:	01e75793          	srli	a5,a4,0x1e
   16ac0:	97de                	add	a5,a5,s7
   16ac2:	439c                	lw	a5,0(a5)
   16ac4:	8782                	jr	a5
   16ac6:	4a81                	li	s5,0
   16ac8:	00044703          	lbu	a4,0(s0)
   16acc:	002a979b          	slliw	a5,s5,0x2
   16ad0:	01578abb          	addw	s5,a5,s5
   16ad4:	fd0d0e1b          	addiw	t3,s10,-48
   16ad8:	001a9a9b          	slliw	s5,s5,0x1
   16adc:	fd07079b          	addiw	a5,a4,-48
   16ae0:	0405                	addi	s0,s0,1
   16ae2:	015e0abb          	addw	s5,t3,s5
   16ae6:	00070d1b          	sext.w	s10,a4
   16aea:	fcfdffe3          	bgeu	s11,a5,16ac8 <_svfprintf_r+0x130>
   16aee:	fe0d079b          	addiw	a5,s10,-32
   16af2:	0007871b          	sext.w	a4,a5
   16af6:	fce971e3          	bgeu	s2,a4,16ab8 <_svfprintf_r+0x120>
   16afa:	100d0363          	beqz	s10,16c00 <_svfprintf_r+0x268>
   16afe:	13a10423          	sb	s10,296(sp)
   16b02:	0c010fa3          	sb	zero,223(sp)
   16b06:	4905                	li	s2,1
   16b08:	4b85                	li	s7,1
   16b0a:	12810c93          	addi	s9,sp,296
   16b0e:	e802                	sd	zero,16(sp)
   16b10:	4c01                	li	s8,0
   16b12:	e482                	sd	zero,72(sp)
   16b14:	ec82                	sd	zero,88(sp)
   16b16:	e882                	sd	zero,80(sp)
   16b18:	0024f293          	andi	t0,s1,2
   16b1c:	00028363          	beqz	t0,16b22 <_svfprintf_r+0x18a>
   16b20:	2909                	addiw	s2,s2,2
   16b22:	0844fd93          	andi	s11,s1,132
   16b26:	7792                	ld	a5,288(sp)
   16b28:	000d9663          	bnez	s11,16b34 <_svfprintf_r+0x19c>
   16b2c:	412a873b          	subw	a4,s5,s2
   16b30:	1ee045e3          	bgtz	a4,1751a <_svfprintf_r+0xb82>
   16b34:	0df14703          	lbu	a4,223(sp)
   16b38:	c70d                	beqz	a4,16b62 <_svfprintf_r+0x1ca>
   16b3a:	11812703          	lw	a4,280(sp)
   16b3e:	0df10693          	addi	a3,sp,223
   16b42:	00d33023          	sd	a3,0(t1)
   16b46:	2705                	addiw	a4,a4,1
   16b48:	4685                	li	a3,1
   16b4a:	0785                	addi	a5,a5,1
   16b4c:	00d33423          	sd	a3,8(t1)
   16b50:	10e12c23          	sw	a4,280(sp)
   16b54:	0007069b          	sext.w	a3,a4
   16b58:	f23e                	sd	a5,288(sp)
   16b5a:	471d                	li	a4,7
   16b5c:	0341                	addi	t1,t1,16
   16b5e:	3cd74d63          	blt	a4,a3,16f38 <_svfprintf_r+0x5a0>
   16b62:	02028563          	beqz	t0,16b8c <_svfprintf_r+0x1f4>
   16b66:	11812703          	lw	a4,280(sp)
   16b6a:	1194                	addi	a3,sp,224
   16b6c:	00d33023          	sd	a3,0(t1)
   16b70:	2705                	addiw	a4,a4,1
   16b72:	4689                	li	a3,2
   16b74:	0789                	addi	a5,a5,2
   16b76:	00d33423          	sd	a3,8(t1)
   16b7a:	10e12c23          	sw	a4,280(sp)
   16b7e:	0007069b          	sext.w	a3,a4
   16b82:	f23e                	sd	a5,288(sp)
   16b84:	471d                	li	a4,7
   16b86:	0341                	addi	t1,t1,16
   16b88:	22d743e3          	blt	a4,a3,175ae <_svfprintf_r+0xc16>
   16b8c:	08000713          	li	a4,128
   16b90:	04ed88e3          	beq	s11,a4,173e0 <_svfprintf_r+0xa48>
   16b94:	417c0c3b          	subw	s8,s8,s7
   16b98:	0d804ee3          	bgtz	s8,17474 <_svfprintf_r+0xadc>
   16b9c:	1004f713          	andi	a4,s1,256
   16ba0:	72071b63          	bnez	a4,172d6 <_svfprintf_r+0x93e>
   16ba4:	11812703          	lw	a4,280(sp)
   16ba8:	97de                	add	a5,a5,s7
   16baa:	01933023          	sd	s9,0(t1)
   16bae:	0017069b          	addiw	a3,a4,1
   16bb2:	8736                	mv	a4,a3
   16bb4:	01733423          	sd	s7,8(t1)
   16bb8:	10e12c23          	sw	a4,280(sp)
   16bbc:	f23e                	sd	a5,288(sp)
   16bbe:	471d                	li	a4,7
   16bc0:	44d74863          	blt	a4,a3,17010 <_svfprintf_r+0x678>
   16bc4:	0341                	addi	t1,t1,16
   16bc6:	8891                	andi	s1,s1,4
   16bc8:	c489                	beqz	s1,16bd2 <_svfprintf_r+0x23a>
   16bca:	412a84bb          	subw	s1,s5,s2
   16bce:	1e904ae3          	bgtz	s1,175c2 <_svfprintf_r+0xc2a>
   16bd2:	8756                	mv	a4,s5
   16bd4:	012ad363          	bge	s5,s2,16bda <_svfprintf_r+0x242>
   16bd8:	874a                	mv	a4,s2
   16bda:	66a2                	ld	a3,8(sp)
   16bdc:	9f35                	addw	a4,a4,a3
   16bde:	e43a                	sd	a4,8(sp)
   16be0:	10079be3          	bnez	a5,174f6 <_svfprintf_r+0xb5e>
   16be4:	67c2                	ld	a5,16(sp)
   16be6:	10012c23          	sw	zero,280(sp)
   16bea:	c789                	beqz	a5,16bf4 <_svfprintf_r+0x25c>
   16bec:	65c2                	ld	a1,16(sp)
   16bee:	854e                	mv	a0,s3
   16bf0:	ca8fc0ef          	jal	ra,13098 <_free_r>
   16bf4:	835a                	mv	t1,s6
   16bf6:	8ca2                	mv	s9,s0
   16bf8:	000cc783          	lbu	a5,0(s9)
   16bfc:	e2079fe3          	bnez	a5,16a3a <_svfprintf_r+0xa2>
   16c00:	7792                	ld	a5,288(sp)
   16c02:	c399                	beqz	a5,16c08 <_svfprintf_r+0x270>
   16c04:	2a40106f          	j	17ea8 <_svfprintf_r+0x1510>
   16c08:	010a5783          	lhu	a5,16(s4)
   16c0c:	0407f793          	andi	a5,a5,64
   16c10:	c399                	beqz	a5,16c16 <_svfprintf_r+0x27e>
   16c12:	7100106f          	j	18322 <_svfprintf_r+0x198a>
   16c16:	27813083          	ld	ra,632(sp)
   16c1a:	27013403          	ld	s0,624(sp)
   16c1e:	6522                	ld	a0,8(sp)
   16c20:	26813483          	ld	s1,616(sp)
   16c24:	26013903          	ld	s2,608(sp)
   16c28:	25813983          	ld	s3,600(sp)
   16c2c:	25013a03          	ld	s4,592(sp)
   16c30:	24813a83          	ld	s5,584(sp)
   16c34:	24013b03          	ld	s6,576(sp)
   16c38:	23813b83          	ld	s7,568(sp)
   16c3c:	23013c03          	ld	s8,560(sp)
   16c40:	22813c83          	ld	s9,552(sp)
   16c44:	22013d03          	ld	s10,544(sp)
   16c48:	21813d83          	ld	s11,536(sp)
   16c4c:	28010113          	addi	sp,sp,640
   16c50:	8082                	ret
   16c52:	0104e493          	ori	s1,s1,16
   16c56:	00044e03          	lbu	t3,0(s0)
   16c5a:	2481                	sext.w	s1,s1
   16c5c:	b599                	j	16aa2 <_svfprintf_r+0x10a>
   16c5e:	0104e493          	ori	s1,s1,16
   16c62:	2481                	sext.w	s1,s1
   16c64:	66e2                	ld	a3,24(sp)
   16c66:	0204f793          	andi	a5,s1,32
   16c6a:	00868713          	addi	a4,a3,8
   16c6e:	3c078a63          	beqz	a5,17042 <_svfprintf_r+0x6aa>
   16c72:	629c                	ld	a5,0(a3)
   16c74:	893e                	mv	s2,a5
   16c76:	3e07c463          	bltz	a5,1705e <_svfprintf_r+0x6c6>
   16c7a:	57fd                	li	a5,-1
   16c7c:	00fc1463          	bne	s8,a5,16c84 <_svfprintf_r+0x2ec>
   16c80:	7dd0006f          	j	17c5c <_svfprintf_r+0x12c4>
   16c84:	f7f4f493          	andi	s1,s1,-129
   16c88:	ec3a                	sd	a4,24(sp)
   16c8a:	00048d9b          	sext.w	s11,s1
   16c8e:	2e0902e3          	beqz	s2,17772 <_svfprintf_r+0xdda>
   16c92:	47a5                	li	a5,9
   16c94:	6927ebe3          	bltu	a5,s2,17b2a <_svfprintf_r+0x1192>
   16c98:	0309091b          	addiw	s2,s2,48
   16c9c:	192105a3          	sb	s2,395(sp)
   16ca0:	84ee                	mv	s1,s11
   16ca2:	4b85                	li	s7,1
   16ca4:	18b10c93          	addi	s9,sp,395
   16ca8:	0df14783          	lbu	a5,223(sp)
   16cac:	000b891b          	sext.w	s2,s7
   16cb0:	018bd463          	bge	s7,s8,16cb8 <_svfprintf_r+0x320>
   16cb4:	000c091b          	sext.w	s2,s8
   16cb8:	e802                	sd	zero,16(sp)
   16cba:	e482                	sd	zero,72(sp)
   16cbc:	ec82                	sd	zero,88(sp)
   16cbe:	e882                	sd	zero,80(sp)
   16cc0:	e4078ce3          	beqz	a5,16b18 <_svfprintf_r+0x180>
   16cc4:	2905                	addiw	s2,s2,1
   16cc6:	bd89                	j	16b18 <_svfprintf_r+0x180>
   16cc8:	0104e493          	ori	s1,s1,16
   16ccc:	2481                	sext.w	s1,s1
   16cce:	66e2                	ld	a3,24(sp)
   16cd0:	0204f793          	andi	a5,s1,32
   16cd4:	00868713          	addi	a4,a3,8
   16cd8:	34078663          	beqz	a5,17024 <_svfprintf_r+0x68c>
   16cdc:	0006b903          	ld	s2,0(a3)
   16ce0:	bff4f493          	andi	s1,s1,-1025
   16ce4:	00048d9b          	sext.w	s11,s1
   16ce8:	ec3a                	sd	a4,24(sp)
   16cea:	4781                	li	a5,0
   16cec:	0c010fa3          	sb	zero,223(sp)
   16cf0:	577d                	li	a4,-1
   16cf2:	38ec0263          	beq	s8,a4,17076 <_svfprintf_r+0x6de>
   16cf6:	f7fdf493          	andi	s1,s11,-129
   16cfa:	2481                	sext.w	s1,s1
   16cfc:	00091de3          	bnez	s2,17516 <_svfprintf_r+0xb7e>
   16d00:	6a0c1363          	bnez	s8,173a6 <_svfprintf_r+0xa0e>
   16d04:	26079ae3          	bnez	a5,17778 <_svfprintf_r+0xde0>
   16d08:	001dfb93          	andi	s7,s11,1
   16d0c:	18c10c93          	addi	s9,sp,396
   16d10:	f80b8ce3          	beqz	s7,16ca8 <_svfprintf_r+0x310>
   16d14:	03000793          	li	a5,48
   16d18:	18f105a3          	sb	a5,395(sp)
   16d1c:	18b10c93          	addi	s9,sp,395
   16d20:	b761                	j	16ca8 <_svfprintf_r+0x310>
   16d22:	419404bb          	subw	s1,s0,s9
   16d26:	d20497e3          	bnez	s1,16a54 <_svfprintf_r+0xbc>
   16d2a:	00044783          	lbu	a5,0(s0)
   16d2e:	bb91                	j	16a82 <_svfprintf_r+0xea>
   16d30:	0a10                	addi	a2,sp,272
   16d32:	85d2                	mv	a1,s4
   16d34:	854e                	mv	a0,s3
   16d36:	316030ef          	jal	ra,1a04c <__ssprint_r>
   16d3a:	ec0517e3          	bnez	a0,16c08 <_svfprintf_r+0x270>
   16d3e:	835a                	mv	t1,s6
   16d40:	bb25                	j	16a78 <_svfprintf_r+0xe0>
   16d42:	0084f793          	andi	a5,s1,8
   16d46:	320794e3          	bnez	a5,1786e <_svfprintf_r+0xed6>
   16d4a:	67e2                	ld	a5,24(sp)
   16d4c:	e81a                	sd	t1,16(sp)
   16d4e:	2388                	fld	fa0,0(a5)
   16d50:	07a1                	addi	a5,a5,8
   16d52:	ec3e                	sd	a5,24(sp)
   16d54:	7c6050ef          	jal	ra,1c51a <__extenddftf2>
   16d58:	6342                	ld	t1,16(sp)
   16d5a:	e22a                	sd	a0,256(sp)
   16d5c:	e62e                	sd	a1,264(sp)
   16d5e:	0208                	addi	a0,sp,256
   16d60:	e81a                	sd	t1,16(sp)
   16d62:	eccfe0ef          	jal	ra,1542e <_ldcheck>
   16d66:	d5aa                	sw	a0,232(sp)
   16d68:	4789                	li	a5,2
   16d6a:	6342                	ld	t1,16(sp)
   16d6c:	74f500e3          	beq	a0,a5,17cac <_svfprintf_r+0x1314>
   16d70:	4785                	li	a5,1
   16d72:	00f51463          	bne	a0,a5,16d7a <_svfprintf_r+0x3e2>
   16d76:	06e0106f          	j	17de4 <_svfprintf_r+0x144c>
   16d7a:	06100793          	li	a5,97
   16d7e:	00fd1463          	bne	s10,a5,16d86 <_svfprintf_r+0x3ee>
   16d82:	5500106f          	j	182d2 <_svfprintf_r+0x193a>
   16d86:	04100793          	li	a5,65
   16d8a:	00fd1463          	bne	s10,a5,16d92 <_svfprintf_r+0x3fa>
   16d8e:	32e0106f          	j	180bc <_svfprintf_r+0x1724>
   16d92:	fdfd7713          	andi	a4,s10,-33
   16d96:	57fd                	li	a5,-1
   16d98:	ecba                	sd	a4,88(sp)
   16d9a:	00fc1463          	bne	s8,a5,16da2 <_svfprintf_r+0x40a>
   16d9e:	1400106f          	j	17ede <_svfprintf_r+0x1546>
   16da2:	04700793          	li	a5,71
   16da6:	00f71463          	bne	a4,a5,16dae <_svfprintf_r+0x416>
   16daa:	56a0106f          	j	18314 <_svfprintf_r+0x197c>
   16dae:	6932                	ld	s2,264(sp)
   16db0:	1004e793          	ori	a5,s1,256
   16db4:	fd26                	sd	s1,184(sp)
   16db6:	6b92                	ld	s7,256(sp)
   16db8:	2781                	sext.w	a5,a5
   16dba:	00095463          	bgez	s2,16dc2 <_svfprintf_r+0x42a>
   16dbe:	4640106f          	j	18222 <_svfprintf_r+0x188a>
   16dc2:	e582                	sd	zero,200(sp)
   16dc4:	84be                	mv	s1,a5
   16dc6:	e802                	sd	zero,16(sp)
   16dc8:	6766                	ld	a4,88(sp)
   16dca:	04600793          	li	a5,70
   16dce:	00f71463          	bne	a4,a5,16dd6 <_svfprintf_r+0x43e>
   16dd2:	1c40106f          	j	17f96 <_svfprintf_r+0x15fe>
   16dd6:	04500793          	li	a5,69
   16dda:	f01a                	sd	t1,32(sp)
   16ddc:	00f71463          	bne	a4,a5,16de4 <_svfprintf_r+0x44c>
   16de0:	5000106f          	j	182e0 <_svfprintf_r+0x1948>
   16de4:	11bc                	addi	a5,sp,232
   16de6:	8762                	mv	a4,s8
   16de8:	0f810893          	addi	a7,sp,248
   16dec:	0ec10813          	addi	a6,sp,236
   16df0:	4689                	li	a3,2
   16df2:	85de                	mv	a1,s7
   16df4:	864a                	mv	a2,s2
   16df6:	854e                	mv	a0,s3
   16df8:	85dfd0ef          	jal	ra,14654 <_ldtoa_r>
   16dfc:	6766                	ld	a4,88(sp)
   16dfe:	04700793          	li	a5,71
   16e02:	7302                	ld	t1,32(sp)
   16e04:	8caa                	mv	s9,a0
   16e06:	00f70463          	beq	a4,a5,16e0e <_svfprintf_r+0x476>
   16e0a:	6aa0106f          	j	184b4 <_svfprintf_r+0x1b1c>
   16e0e:	77ea                	ld	a5,184(sp)
   16e10:	8b85                	andi	a5,a5,1
   16e12:	c399                	beqz	a5,16e18 <_svfprintf_r+0x480>
   16e14:	4880106f          	j	1829c <_svfprintf_r+0x1904>
   16e18:	766e                	ld	a2,248(sp)
   16e1a:	419607bb          	subw	a5,a2,s9
   16e1e:	f03e                	sd	a5,32(sp)
   16e20:	572e                	lw	a4,232(sp)
   16e22:	04700793          	li	a5,71
   16e26:	e8ba                	sd	a4,80(sp)
   16e28:	6766                	ld	a4,88(sp)
   16e2a:	00f71463          	bne	a4,a5,16e32 <_svfprintf_r+0x49a>
   16e2e:	0c40106f          	j	17ef2 <_svfprintf_r+0x155a>
   16e32:	6766                	ld	a4,88(sp)
   16e34:	04600793          	li	a5,70
   16e38:	00f71463          	bne	a4,a5,16e40 <_svfprintf_r+0x4a8>
   16e3c:	25c0106f          	j	18098 <_svfprintf_r+0x1700>
   16e40:	67c6                	ld	a5,80(sp)
   16e42:	65e6                	ld	a1,88(sp)
   16e44:	04100613          	li	a2,65
   16e48:	37fd                	addiw	a5,a5,-1
   16e4a:	d5be                	sw	a5,232(sp)
   16e4c:	0ffd7713          	andi	a4,s10,255
   16e50:	4681                	li	a3,0
   16e52:	00c59663          	bne	a1,a2,16e5e <_svfprintf_r+0x4c6>
   16e56:	273d                	addiw	a4,a4,15
   16e58:	0ff77713          	andi	a4,a4,255
   16e5c:	4685                	li	a3,1
   16e5e:	0ee10823          	sb	a4,240(sp)
   16e62:	02b00713          	li	a4,43
   16e66:	0007d763          	bgez	a5,16e74 <_svfprintf_r+0x4dc>
   16e6a:	6746                	ld	a4,80(sp)
   16e6c:	4785                	li	a5,1
   16e6e:	9f99                	subw	a5,a5,a4
   16e70:	02d00713          	li	a4,45
   16e74:	0ee108a3          	sb	a4,241(sp)
   16e78:	4725                	li	a4,9
   16e7a:	00f74463          	blt	a4,a5,16e82 <_svfprintf_r+0x4ea>
   16e7e:	4fa0106f          	j	18378 <_svfprintf_r+0x19e0>
   16e82:	0ff10513          	addi	a0,sp,255
   16e86:	88aa                	mv	a7,a0
   16e88:	46a9                	li	a3,10
   16e8a:	06300e93          	li	t4,99
   16e8e:	02d7e73b          	remw	a4,a5,a3
   16e92:	85c6                	mv	a1,a7
   16e94:	863e                	mv	a2,a5
   16e96:	18fd                	addi	a7,a7,-1
   16e98:	0307071b          	addiw	a4,a4,48
   16e9c:	fee58fa3          	sb	a4,-1(a1)
   16ea0:	02d7c7bb          	divw	a5,a5,a3
   16ea4:	fecec5e3          	blt	t4,a2,16e8e <_svfprintf_r+0x4f6>
   16ea8:	0307879b          	addiw	a5,a5,48
   16eac:	0ff7f693          	andi	a3,a5,255
   16eb0:	fed88fa3          	sb	a3,-1(a7)
   16eb4:	ffe58793          	addi	a5,a1,-2
   16eb8:	00a7e463          	bltu	a5,a0,16ec0 <_svfprintf_r+0x528>
   16ebc:	5f00106f          	j	184ac <_svfprintf_r+0x1b14>
   16ec0:	0f210713          	addi	a4,sp,242
   16ec4:	a019                	j	16eca <_svfprintf_r+0x532>
   16ec6:	0007c683          	lbu	a3,0(a5)
   16eca:	00d70023          	sb	a3,0(a4)
   16ece:	0785                	addi	a5,a5,1
   16ed0:	0705                	addi	a4,a4,1
   16ed2:	fea79ae3          	bne	a5,a0,16ec6 <_svfprintf_r+0x52e>
   16ed6:	10110793          	addi	a5,sp,257
   16eda:	0f210713          	addi	a4,sp,242
   16ede:	8f8d                	sub	a5,a5,a1
   16ee0:	97ba                	add	a5,a5,a4
   16ee2:	1998                	addi	a4,sp,240
   16ee4:	9f99                	subw	a5,a5,a4
   16ee6:	fcbe                	sd	a5,120(sp)
   16ee8:	77e6                	ld	a5,120(sp)
   16eea:	7682                	ld	a3,32(sp)
   16eec:	4705                	li	a4,1
   16eee:	00d78bbb          	addw	s7,a5,a3
   16ef2:	87de                	mv	a5,s7
   16ef4:	00d74463          	blt	a4,a3,16efc <_svfprintf_r+0x564>
   16ef8:	53e0106f          	j	18436 <_svfprintf_r+0x1a9e>
   16efc:	7726                	ld	a4,104(sp)
   16efe:	00e78bbb          	addw	s7,a5,a4
   16f02:	77ea                	ld	a5,184(sp)
   16f04:	fffbc913          	not	s2,s7
   16f08:	43f95913          	srai	s2,s2,0x3f
   16f0c:	bff7f493          	andi	s1,a5,-1025
   16f10:	2481                	sext.w	s1,s1
   16f12:	012bf933          	and	s2,s7,s2
   16f16:	1004e493          	ori	s1,s1,256
   16f1a:	2901                	sext.w	s2,s2
   16f1c:	e482                	sd	zero,72(sp)
   16f1e:	ec82                	sd	zero,88(sp)
   16f20:	e882                	sd	zero,80(sp)
   16f22:	67ae                	ld	a5,200(sp)
   16f24:	e399                	bnez	a5,16f2a <_svfprintf_r+0x592>
   16f26:	0220106f          	j	17f48 <_svfprintf_r+0x15b0>
   16f2a:	02d00793          	li	a5,45
   16f2e:	0cf10fa3          	sb	a5,223(sp)
   16f32:	4c01                	li	s8,0
   16f34:	2905                	addiw	s2,s2,1
   16f36:	b6cd                	j	16b18 <_svfprintf_r+0x180>
   16f38:	0a10                	addi	a2,sp,272
   16f3a:	85d2                	mv	a1,s4
   16f3c:	854e                	mv	a0,s3
   16f3e:	f816                	sd	t0,48(sp)
   16f40:	10c030ef          	jal	ra,1a04c <__ssprint_r>
   16f44:	5c051063          	bnez	a0,17504 <_svfprintf_r+0xb6c>
   16f48:	7792                	ld	a5,288(sp)
   16f4a:	72c2                	ld	t0,48(sp)
   16f4c:	835a                	mv	t1,s6
   16f4e:	b911                	j	16b62 <_svfprintf_r+0x1ca>
   16f50:	11812603          	lw	a2,280(sp)
   16f54:	00178c13          	addi	s8,a5,1
   16f58:	7782                	ld	a5,32(sp)
   16f5a:	0016071b          	addiw	a4,a2,1
   16f5e:	4585                	li	a1,1
   16f60:	01933023          	sd	s9,0(t1)
   16f64:	86ba                	mv	a3,a4
   16f66:	01030b93          	addi	s7,t1,16
   16f6a:	00f5dde3          	bge	a1,a5,17784 <_svfprintf_r+0xdec>
   16f6e:	4605                	li	a2,1
   16f70:	10d12c23          	sw	a3,280(sp)
   16f74:	00c33423          	sd	a2,8(t1)
   16f78:	f262                	sd	s8,288(sp)
   16f7a:	469d                	li	a3,7
   16f7c:	0ae6c0e3          	blt	a3,a4,1781c <_svfprintf_r+0xe84>
   16f80:	77a6                	ld	a5,104(sp)
   16f82:	0017069b          	addiw	a3,a4,1
   16f86:	7746                	ld	a4,112(sp)
   16f88:	9c3e                	add	s8,s8,a5
   16f8a:	00fbb423          	sd	a5,8(s7)
   16f8e:	00ebb023          	sd	a4,0(s7)
   16f92:	10d12c23          	sw	a3,280(sp)
   16f96:	0006871b          	sext.w	a4,a3
   16f9a:	f262                	sd	s8,288(sp)
   16f9c:	469d                	li	a3,7
   16f9e:	0bc1                	addi	s7,s7,16
   16fa0:	08e6cbe3          	blt	a3,a4,17836 <_svfprintf_r+0xe9e>
   16fa4:	6512                	ld	a0,256(sp)
   16fa6:	65b2                	ld	a1,264(sp)
   16fa8:	00170e1b          	addiw	t3,a4,1
   16fac:	4601                	li	a2,0
   16fae:	4681                	li	a3,0
   16fb0:	d872                	sw	t3,48(sp)
   16fb2:	fc3a                	sd	a4,56(sp)
   16fb4:	466040ef          	jal	ra,1b41a <__eqtf2>
   16fb8:	5e42                	lw	t3,48(sp)
   16fba:	7782                	ld	a5,32(sp)
   16fbc:	010b8313          	addi	t1,s7,16
   16fc0:	000e061b          	sext.w	a2,t3
   16fc4:	fff78d1b          	addiw	s10,a5,-1
   16fc8:	7c050f63          	beqz	a0,177a6 <_svfprintf_r+0xe0e>
   16fcc:	001c8813          	addi	a6,s9,1
   16fd0:	9c6a                	add	s8,s8,s10
   16fd2:	010bb023          	sd	a6,0(s7)
   16fd6:	01abb423          	sd	s10,8(s7)
   16fda:	f262                	sd	s8,288(sp)
   16fdc:	11c12c23          	sw	t3,280(sp)
   16fe0:	469d                	li	a3,7
   16fe2:	32c6c4e3          	blt	a3,a2,17b0a <_svfprintf_r+0x1172>
   16fe6:	7762                	ld	a4,56(sp)
   16fe8:	020b8693          	addi	a3,s7,32
   16fec:	8b9a                	mv	s7,t1
   16fee:	0027061b          	addiw	a2,a4,2
   16ff2:	8336                	mv	t1,a3
   16ff4:	76e6                	ld	a3,120(sp)
   16ff6:	1998                	addi	a4,sp,240
   16ff8:	00ebb023          	sd	a4,0(s7)
   16ffc:	018687b3          	add	a5,a3,s8
   17000:	00dbb423          	sd	a3,8(s7)
   17004:	f23e                	sd	a5,288(sp)
   17006:	10c12c23          	sw	a2,280(sp)
   1700a:	471d                	li	a4,7
   1700c:	bac75de3          	bge	a4,a2,16bc6 <_svfprintf_r+0x22e>
   17010:	0a10                	addi	a2,sp,272
   17012:	85d2                	mv	a1,s4
   17014:	854e                	mv	a0,s3
   17016:	036030ef          	jal	ra,1a04c <__ssprint_r>
   1701a:	4e051563          	bnez	a0,17504 <_svfprintf_r+0xb6c>
   1701e:	7792                	ld	a5,288(sp)
   17020:	835a                	mv	t1,s6
   17022:	b655                	j	16bc6 <_svfprintf_r+0x22e>
   17024:	0104f793          	andi	a5,s1,16
   17028:	020799e3          	bnez	a5,1785a <_svfprintf_r+0xec2>
   1702c:	66e2                	ld	a3,24(sp)
   1702e:	0404f793          	andi	a5,s1,64
   17032:	0006a903          	lw	s2,0(a3)
   17036:	580787e3          	beqz	a5,17dc4 <_svfprintf_r+0x142c>
   1703a:	1942                	slli	s2,s2,0x30
   1703c:	03095913          	srli	s2,s2,0x30
   17040:	b145                	j	16ce0 <_svfprintf_r+0x348>
   17042:	0104f793          	andi	a5,s1,16
   17046:	00079fe3          	bnez	a5,17864 <_svfprintf_r+0xecc>
   1704a:	0404f793          	andi	a5,s1,64
   1704e:	580782e3          	beqz	a5,17dd2 <_svfprintf_r+0x143a>
   17052:	67e2                	ld	a5,24(sp)
   17054:	00079903          	lh	s2,0(a5)
   17058:	87ca                	mv	a5,s2
   1705a:	c207d0e3          	bgez	a5,16c7a <_svfprintf_r+0x2e2>
   1705e:	02d00793          	li	a5,45
   17062:	0cf10fa3          	sb	a5,223(sp)
   17066:	ec3a                	sd	a4,24(sp)
   17068:	577d                	li	a4,-1
   1706a:	41200933          	neg	s2,s2
   1706e:	8da6                	mv	s11,s1
   17070:	4785                	li	a5,1
   17072:	c8ec12e3          	bne	s8,a4,16cf6 <_svfprintf_r+0x35e>
   17076:	4705                	li	a4,1
   17078:	c0e78de3          	beq	a5,a4,16c92 <_svfprintf_r+0x2fa>
   1707c:	4709                	li	a4,2
   1707e:	32e78d63          	beq	a5,a4,173b8 <_svfprintf_r+0xa20>
   17082:	18c10b93          	addi	s7,sp,396
   17086:	8cde                	mv	s9,s7
   17088:	00797793          	andi	a5,s2,7
   1708c:	03078793          	addi	a5,a5,48
   17090:	fefc8fa3          	sb	a5,-1(s9)
   17094:	00395913          	srli	s2,s2,0x3
   17098:	8766                	mv	a4,s9
   1709a:	1cfd                	addi	s9,s9,-1
   1709c:	fe0916e3          	bnez	s2,17088 <_svfprintf_r+0x6f0>
   170a0:	001df693          	andi	a3,s11,1
   170a4:	32068a63          	beqz	a3,173d8 <_svfprintf_r+0xa40>
   170a8:	03000693          	li	a3,48
   170ac:	32d78663          	beq	a5,a3,173d8 <_svfprintf_r+0xa40>
   170b0:	1779                	addi	a4,a4,-2
   170b2:	fedc8fa3          	sb	a3,-1(s9)
   170b6:	40eb8bbb          	subw	s7,s7,a4
   170ba:	84ee                	mv	s1,s11
   170bc:	8cba                	mv	s9,a4
   170be:	b6ed                	j	16ca8 <_svfprintf_r+0x310>
   170c0:	6762                	ld	a4,24(sp)
   170c2:	0c010fa3          	sb	zero,223(sp)
   170c6:	4905                	li	s2,1
   170c8:	431c                	lw	a5,0(a4)
   170ca:	0721                	addi	a4,a4,8
   170cc:	ec3a                	sd	a4,24(sp)
   170ce:	12f10423          	sb	a5,296(sp)
   170d2:	4b85                	li	s7,1
   170d4:	12810c93          	addi	s9,sp,296
   170d8:	bc1d                	j	16b0e <_svfprintf_r+0x176>
   170da:	67e2                	ld	a5,24(sp)
   170dc:	0c010fa3          	sb	zero,223(sp)
   170e0:	0007bc83          	ld	s9,0(a5)
   170e4:	00878d93          	addi	s11,a5,8
   170e8:	400c83e3          	beqz	s9,17cee <_svfprintf_r+0x1356>
   170ec:	57fd                	li	a5,-1
   170ee:	0afc02e3          	beq	s8,a5,17992 <_svfprintf_r+0xffa>
   170f2:	8662                	mv	a2,s8
   170f4:	4581                	li	a1,0
   170f6:	8566                	mv	a0,s9
   170f8:	ec1a                	sd	t1,24(sp)
   170fa:	e02fe0ef          	jal	ra,156fc <memchr>
   170fe:	e82a                	sd	a0,16(sp)
   17100:	6362                	ld	t1,24(sp)
   17102:	720504e3          	beqz	a0,1802a <_svfprintf_r+0x1692>
   17106:	67c2                	ld	a5,16(sp)
   17108:	ec6e                	sd	s11,24(sp)
   1710a:	e802                	sd	zero,16(sp)
   1710c:	41978bbb          	subw	s7,a5,s9
   17110:	0df14783          	lbu	a5,223(sp)
   17114:	fffbc913          	not	s2,s7
   17118:	43f95913          	srai	s2,s2,0x3f
   1711c:	e482                	sd	zero,72(sp)
   1711e:	ec82                	sd	zero,88(sp)
   17120:	e882                	sd	zero,80(sp)
   17122:	01797933          	and	s2,s2,s7
   17126:	4c01                	li	s8,0
   17128:	b8079ee3          	bnez	a5,16cc4 <_svfprintf_r+0x32c>
   1712c:	b2f5                	j	16b18 <_svfprintf_r+0x180>
   1712e:	0104e493          	ori	s1,s1,16
   17132:	00048d9b          	sext.w	s11,s1
   17136:	66e2                	ld	a3,24(sp)
   17138:	020df793          	andi	a5,s11,32
   1713c:	00868713          	addi	a4,a3,8
   17140:	6a078d63          	beqz	a5,177fa <_svfprintf_r+0xe62>
   17144:	0006b903          	ld	s2,0(a3)
   17148:	4785                	li	a5,1
   1714a:	ec3a                	sd	a4,24(sp)
   1714c:	b645                	j	16cec <_svfprintf_r+0x354>
   1714e:	0084e493          	ori	s1,s1,8
   17152:	00044e03          	lbu	t3,0(s0)
   17156:	2481                	sext.w	s1,s1
   17158:	b2a9                	j	16aa2 <_svfprintf_r+0x10a>
   1715a:	0204e493          	ori	s1,s1,32
   1715e:	00044e03          	lbu	t3,0(s0)
   17162:	2481                	sext.w	s1,s1
   17164:	ba3d                	j	16aa2 <_svfprintf_r+0x10a>
   17166:	6762                	ld	a4,24(sp)
   17168:	77e1                	lui	a5,0xffff8
   1716a:	8307c793          	xori	a5,a5,-2000
   1716e:	0ef11023          	sh	a5,224(sp)
   17172:	00870793          	addi	a5,a4,8
   17176:	ec3e                	sd	a5,24(sp)
   17178:	67f5                	lui	a5,0x1d
   1717a:	8a078793          	addi	a5,a5,-1888 # 1c8a0 <__clzdi2+0x98>
   1717e:	0024e493          	ori	s1,s1,2
   17182:	f43e                	sd	a5,40(sp)
   17184:	00073903          	ld	s2,0(a4)
   17188:	00048d9b          	sext.w	s11,s1
   1718c:	4789                	li	a5,2
   1718e:	07800d13          	li	s10,120
   17192:	bea9                	j	16cec <_svfprintf_r+0x354>
   17194:	66e2                	ld	a3,24(sp)
   17196:	0204f793          	andi	a5,s1,32
   1719a:	6298                	ld	a4,0(a3)
   1719c:	06a1                	addi	a3,a3,8
   1719e:	ec36                	sd	a3,24(sp)
   171a0:	e395                	bnez	a5,171c4 <_svfprintf_r+0x82c>
   171a2:	0104f793          	andi	a5,s1,16
   171a6:	ef99                	bnez	a5,171c4 <_svfprintf_r+0x82c>
   171a8:	0404f793          	andi	a5,s1,64
   171ac:	4c0792e3          	bnez	a5,17e70 <_svfprintf_r+0x14d8>
   171b0:	2004f493          	andi	s1,s1,512
   171b4:	67a2                	ld	a5,8(sp)
   171b6:	e099                	bnez	s1,171bc <_svfprintf_r+0x824>
   171b8:	1540106f          	j	1830c <_svfprintf_r+0x1974>
   171bc:	00f70023          	sb	a5,0(a4)
   171c0:	8ca2                	mv	s9,s0
   171c2:	bc1d                	j	16bf8 <_svfprintf_r+0x260>
   171c4:	67a2                	ld	a5,8(sp)
   171c6:	8ca2                	mv	s9,s0
   171c8:	e31c                	sd	a5,0(a4)
   171ca:	b43d                	j	16bf8 <_svfprintf_r+0x260>
   171cc:	00044e03          	lbu	t3,0(s0)
   171d0:	06c00793          	li	a5,108
   171d4:	70fe0963          	beq	t3,a5,178e6 <_svfprintf_r+0xf4e>
   171d8:	0104e493          	ori	s1,s1,16
   171dc:	2481                	sext.w	s1,s1
   171de:	b0d1                	j	16aa2 <_svfprintf_r+0x10a>
   171e0:	00044e03          	lbu	t3,0(s0)
   171e4:	06800793          	li	a5,104
   171e8:	72fe0663          	beq	t3,a5,17914 <_svfprintf_r+0xf7c>
   171ec:	0404e493          	ori	s1,s1,64
   171f0:	2481                	sext.w	s1,s1
   171f2:	b845                	j	16aa2 <_svfprintf_r+0x10a>
   171f4:	0804e493          	ori	s1,s1,128
   171f8:	00044e03          	lbu	t3,0(s0)
   171fc:	2481                	sext.w	s1,s1
   171fe:	b055                	j	16aa2 <_svfprintf_r+0x10a>
   17200:	00044d03          	lbu	s10,0(s0)
   17204:	00140713          	addi	a4,s0,1
   17208:	00cd1463          	bne	s10,a2,17210 <_svfprintf_r+0x878>
   1720c:	2720106f          	j	1847e <_svfprintf_r+0x1ae6>
   17210:	fd0d079b          	addiw	a5,s10,-48
   17214:	843a                	mv	s0,a4
   17216:	4c01                	li	s8,0
   17218:	88fdeae3          	bltu	s11,a5,16aac <_svfprintf_r+0x114>
   1721c:	00044d03          	lbu	s10,0(s0)
   17220:	002c169b          	slliw	a3,s8,0x2
   17224:	018686bb          	addw	a3,a3,s8
   17228:	0016969b          	slliw	a3,a3,0x1
   1722c:	00f68c3b          	addw	s8,a3,a5
   17230:	fd0d079b          	addiw	a5,s10,-48
   17234:	0405                	addi	s0,s0,1
   17236:	fefdf3e3          	bgeu	s11,a5,1721c <_svfprintf_r+0x884>
   1723a:	b88d                	j	16aac <_svfprintf_r+0x114>
   1723c:	00044e03          	lbu	t3,0(s0)
   17240:	0044e493          	ori	s1,s1,4
   17244:	2481                	sext.w	s1,s1
   17246:	b8b1                	j	16aa2 <_svfprintf_r+0x10a>
   17248:	02b00793          	li	a5,43
   1724c:	00044e03          	lbu	t3,0(s0)
   17250:	0cf10fa3          	sb	a5,223(sp)
   17254:	b0b9                	j	16aa2 <_svfprintf_r+0x10a>
   17256:	67e2                	ld	a5,24(sp)
   17258:	00044e03          	lbu	t3,0(s0)
   1725c:	0007aa83          	lw	s5,0(a5)
   17260:	07a1                	addi	a5,a5,8
   17262:	ec3e                	sd	a5,24(sp)
   17264:	820adfe3          	bgez	s5,16aa2 <_svfprintf_r+0x10a>
   17268:	41500abb          	negw	s5,s5
   1726c:	bfd1                	j	17240 <_svfprintf_r+0x8a8>
   1726e:	854e                	mv	a0,s3
   17270:	e81a                	sd	t1,16(sp)
   17272:	a04fe0ef          	jal	ra,15476 <_localeconv_r>
   17276:	651c                	ld	a5,8(a0)
   17278:	853e                	mv	a0,a5
   1727a:	e53e                	sd	a5,136(sp)
   1727c:	e1aff0ef          	jal	ra,16896 <strlen>
   17280:	87aa                	mv	a5,a0
   17282:	854e                	mv	a0,s3
   17284:	8d3e                	mv	s10,a5
   17286:	e13e                	sd	a5,128(sp)
   17288:	9eefe0ef          	jal	ra,15476 <_localeconv_r>
   1728c:	691c                	ld	a5,16(a0)
   1728e:	6342                	ld	t1,16(sp)
   17290:	00044e03          	lbu	t3,0(s0)
   17294:	f0be                	sd	a5,96(sp)
   17296:	800d06e3          	beqz	s10,16aa2 <_svfprintf_r+0x10a>
   1729a:	800784e3          	beqz	a5,16aa2 <_svfprintf_r+0x10a>
   1729e:	0007c783          	lbu	a5,0(a5)
   172a2:	800780e3          	beqz	a5,16aa2 <_svfprintf_r+0x10a>
   172a6:	4004e493          	ori	s1,s1,1024
   172aa:	2481                	sext.w	s1,s1
   172ac:	ff6ff06f          	j	16aa2 <_svfprintf_r+0x10a>
   172b0:	0014e493          	ori	s1,s1,1
   172b4:	00044e03          	lbu	t3,0(s0)
   172b8:	2481                	sext.w	s1,s1
   172ba:	fe8ff06f          	j	16aa2 <_svfprintf_r+0x10a>
   172be:	0df14783          	lbu	a5,223(sp)
   172c2:	00044e03          	lbu	t3,0(s0)
   172c6:	fc079e63          	bnez	a5,16aa2 <_svfprintf_r+0x10a>
   172ca:	02000793          	li	a5,32
   172ce:	0cf10fa3          	sb	a5,223(sp)
   172d2:	fd0ff06f          	j	16aa2 <_svfprintf_r+0x10a>
   172d6:	06500713          	li	a4,101
   172da:	c7a75be3          	bge	a4,s10,16f50 <_svfprintf_r+0x5b8>
   172de:	6512                	ld	a0,256(sp)
   172e0:	65b2                	ld	a1,264(sp)
   172e2:	4601                	li	a2,0
   172e4:	4681                	li	a3,0
   172e6:	fc1a                	sd	t1,56(sp)
   172e8:	f83e                	sd	a5,48(sp)
   172ea:	130040ef          	jal	ra,1b41a <__eqtf2>
   172ee:	77c2                	ld	a5,48(sp)
   172f0:	7362                	ld	t1,56(sp)
   172f2:	34051a63          	bnez	a0,17646 <_svfprintf_r+0xcae>
   172f6:	11812703          	lw	a4,280(sp)
   172fa:	66f5                	lui	a3,0x1d
   172fc:	8c068693          	addi	a3,a3,-1856 # 1c8c0 <__clzdi2+0xb8>
   17300:	2705                	addiw	a4,a4,1
   17302:	00d33023          	sd	a3,0(t1)
   17306:	0785                	addi	a5,a5,1
   17308:	4685                	li	a3,1
   1730a:	00d33423          	sd	a3,8(t1)
   1730e:	10e12c23          	sw	a4,280(sp)
   17312:	0007069b          	sext.w	a3,a4
   17316:	f23e                	sd	a5,288(sp)
   17318:	471d                	li	a4,7
   1731a:	0341                	addi	t1,t1,16
   1731c:	14d744e3          	blt	a4,a3,17c64 <_svfprintf_r+0x12cc>
   17320:	572e                	lw	a4,232(sp)
   17322:	7682                	ld	a3,32(sp)
   17324:	52d75663          	bge	a4,a3,17850 <_svfprintf_r+0xeb8>
   17328:	7746                	ld	a4,112(sp)
   1732a:	76a6                	ld	a3,104(sp)
   1732c:	0341                	addi	t1,t1,16
   1732e:	fee33823          	sd	a4,-16(t1)
   17332:	11812703          	lw	a4,280(sp)
   17336:	97b6                	add	a5,a5,a3
   17338:	fed33c23          	sd	a3,-8(t1)
   1733c:	2705                	addiw	a4,a4,1
   1733e:	0007069b          	sext.w	a3,a4
   17342:	10e12c23          	sw	a4,280(sp)
   17346:	f23e                	sd	a5,288(sp)
   17348:	471d                	li	a4,7
   1734a:	5ad74663          	blt	a4,a3,178f6 <_svfprintf_r+0xf5e>
   1734e:	7702                	ld	a4,32(sp)
   17350:	fff70b9b          	addiw	s7,a4,-1
   17354:	877059e3          	blez	s7,16bc6 <_svfprintf_r+0x22e>
   17358:	68f5                	lui	a7,0x1d
   1735a:	46c1                	li	a3,16
   1735c:	11812703          	lw	a4,280(sp)
   17360:	0d888d93          	addi	s11,a7,216 # 1d0d8 <zeroes.0>
   17364:	4cc1                	li	s9,16
   17366:	4c1d                	li	s8,7
   17368:	0176c763          	blt	a3,s7,17376 <_svfprintf_r+0x9de>
   1736c:	10f0006f          	j	17c7a <_svfprintf_r+0x12e2>
   17370:	3bc1                	addiw	s7,s7,-16
   17372:	117cd4e3          	bge	s9,s7,17c7a <_svfprintf_r+0x12e2>
   17376:	2705                	addiw	a4,a4,1
   17378:	07c1                	addi	a5,a5,16
   1737a:	01b33023          	sd	s11,0(t1)
   1737e:	01933423          	sd	s9,8(t1)
   17382:	f23e                	sd	a5,288(sp)
   17384:	10e12c23          	sw	a4,280(sp)
   17388:	0341                	addi	t1,t1,16
   1738a:	feec53e3          	bge	s8,a4,17370 <_svfprintf_r+0x9d8>
   1738e:	0a10                	addi	a2,sp,272
   17390:	85d2                	mv	a1,s4
   17392:	854e                	mv	a0,s3
   17394:	4b9020ef          	jal	ra,1a04c <__ssprint_r>
   17398:	16051663          	bnez	a0,17504 <_svfprintf_r+0xb6c>
   1739c:	7792                	ld	a5,288(sp)
   1739e:	11812703          	lw	a4,280(sp)
   173a2:	835a                	mv	t1,s6
   173a4:	b7f1                	j	17370 <_svfprintf_r+0x9d8>
   173a6:	4705                	li	a4,1
   173a8:	00e79463          	bne	a5,a4,173b0 <_svfprintf_r+0xa18>
   173ac:	75b0006f          	j	18306 <_svfprintf_r+0x196e>
   173b0:	4709                	li	a4,2
   173b2:	8da6                	mv	s11,s1
   173b4:	cce797e3          	bne	a5,a4,17082 <_svfprintf_r+0x6ea>
   173b8:	18c10b93          	addi	s7,sp,396
   173bc:	8cde                	mv	s9,s7
   173be:	7722                	ld	a4,40(sp)
   173c0:	00f97793          	andi	a5,s2,15
   173c4:	1cfd                	addi	s9,s9,-1
   173c6:	97ba                	add	a5,a5,a4
   173c8:	0007c783          	lbu	a5,0(a5)
   173cc:	00495913          	srli	s2,s2,0x4
   173d0:	00fc8023          	sb	a5,0(s9)
   173d4:	fe0915e3          	bnez	s2,173be <_svfprintf_r+0xa26>
   173d8:	419b8bbb          	subw	s7,s7,s9
   173dc:	84ee                	mv	s1,s11
   173de:	b0e9                	j	16ca8 <_svfprintf_r+0x310>
   173e0:	412a86bb          	subw	a3,s5,s2
   173e4:	fad05863          	blez	a3,16b94 <_svfprintf_r+0x1fc>
   173e8:	68f5                	lui	a7,0x1d
   173ea:	4641                	li	a2,16
   173ec:	11812703          	lw	a4,280(sp)
   173f0:	0d888d93          	addi	s11,a7,216 # 1d0d8 <zeroes.0>
   173f4:	4f41                	li	t5,16
   173f6:	429d                	li	t0,7
   173f8:	00d64663          	blt	a2,a3,17404 <_svfprintf_r+0xa6c>
   173fc:	a089                	j	1743e <_svfprintf_r+0xaa6>
   173fe:	36c1                	addiw	a3,a3,-16
   17400:	02df5f63          	bge	t5,a3,1743e <_svfprintf_r+0xaa6>
   17404:	2705                	addiw	a4,a4,1
   17406:	07c1                	addi	a5,a5,16
   17408:	01b33023          	sd	s11,0(t1)
   1740c:	01e33423          	sd	t5,8(t1)
   17410:	f23e                	sd	a5,288(sp)
   17412:	10e12c23          	sw	a4,280(sp)
   17416:	0341                	addi	t1,t1,16
   17418:	fee2d3e3          	bge	t0,a4,173fe <_svfprintf_r+0xa66>
   1741c:	0a10                	addi	a2,sp,272
   1741e:	85d2                	mv	a1,s4
   17420:	854e                	mv	a0,s3
   17422:	f836                	sd	a3,48(sp)
   17424:	429020ef          	jal	ra,1a04c <__ssprint_r>
   17428:	ed71                	bnez	a0,17504 <_svfprintf_r+0xb6c>
   1742a:	76c2                	ld	a3,48(sp)
   1742c:	4f41                	li	t5,16
   1742e:	7792                	ld	a5,288(sp)
   17430:	36c1                	addiw	a3,a3,-16
   17432:	11812703          	lw	a4,280(sp)
   17436:	835a                	mv	t1,s6
   17438:	429d                	li	t0,7
   1743a:	fcdf45e3          	blt	t5,a3,17404 <_svfprintf_r+0xa6c>
   1743e:	2705                	addiw	a4,a4,1
   17440:	97b6                	add	a5,a5,a3
   17442:	00d33423          	sd	a3,8(t1)
   17446:	01b33023          	sd	s11,0(t1)
   1744a:	0007069b          	sext.w	a3,a4
   1744e:	10e12c23          	sw	a4,280(sp)
   17452:	f23e                	sd	a5,288(sp)
   17454:	471d                	li	a4,7
   17456:	0341                	addi	t1,t1,16
   17458:	f2d75e63          	bge	a4,a3,16b94 <_svfprintf_r+0x1fc>
   1745c:	0a10                	addi	a2,sp,272
   1745e:	85d2                	mv	a1,s4
   17460:	854e                	mv	a0,s3
   17462:	3eb020ef          	jal	ra,1a04c <__ssprint_r>
   17466:	ed59                	bnez	a0,17504 <_svfprintf_r+0xb6c>
   17468:	417c0c3b          	subw	s8,s8,s7
   1746c:	7792                	ld	a5,288(sp)
   1746e:	835a                	mv	t1,s6
   17470:	f3805663          	blez	s8,16b9c <_svfprintf_r+0x204>
   17474:	68f5                	lui	a7,0x1d
   17476:	4641                	li	a2,16
   17478:	11812703          	lw	a4,280(sp)
   1747c:	0d888d93          	addi	s11,a7,216 # 1d0d8 <zeroes.0>
   17480:	4ec1                	li	t4,16
   17482:	4f1d                	li	t5,7
   17484:	01864663          	blt	a2,s8,17490 <_svfprintf_r+0xaf8>
   17488:	a83d                	j	174c6 <_svfprintf_r+0xb2e>
   1748a:	3c41                	addiw	s8,s8,-16
   1748c:	038edd63          	bge	t4,s8,174c6 <_svfprintf_r+0xb2e>
   17490:	2705                	addiw	a4,a4,1
   17492:	07c1                	addi	a5,a5,16
   17494:	01b33023          	sd	s11,0(t1)
   17498:	01d33423          	sd	t4,8(t1)
   1749c:	f23e                	sd	a5,288(sp)
   1749e:	10e12c23          	sw	a4,280(sp)
   174a2:	0341                	addi	t1,t1,16
   174a4:	feef53e3          	bge	t5,a4,1748a <_svfprintf_r+0xaf2>
   174a8:	0a10                	addi	a2,sp,272
   174aa:	85d2                	mv	a1,s4
   174ac:	854e                	mv	a0,s3
   174ae:	39f020ef          	jal	ra,1a04c <__ssprint_r>
   174b2:	e929                	bnez	a0,17504 <_svfprintf_r+0xb6c>
   174b4:	4ec1                	li	t4,16
   174b6:	3c41                	addiw	s8,s8,-16
   174b8:	7792                	ld	a5,288(sp)
   174ba:	11812703          	lw	a4,280(sp)
   174be:	835a                	mv	t1,s6
   174c0:	4f1d                	li	t5,7
   174c2:	fd8ec7e3          	blt	t4,s8,17490 <_svfprintf_r+0xaf8>
   174c6:	0017069b          	addiw	a3,a4,1
   174ca:	97e2                	add	a5,a5,s8
   174cc:	01b33023          	sd	s11,0(t1)
   174d0:	01833423          	sd	s8,8(t1)
   174d4:	f23e                	sd	a5,288(sp)
   174d6:	10d12c23          	sw	a3,280(sp)
   174da:	471d                	li	a4,7
   174dc:	0341                	addi	t1,t1,16
   174de:	ead75f63          	bge	a4,a3,16b9c <_svfprintf_r+0x204>
   174e2:	0a10                	addi	a2,sp,272
   174e4:	85d2                	mv	a1,s4
   174e6:	854e                	mv	a0,s3
   174e8:	365020ef          	jal	ra,1a04c <__ssprint_r>
   174ec:	ed01                	bnez	a0,17504 <_svfprintf_r+0xb6c>
   174ee:	7792                	ld	a5,288(sp)
   174f0:	835a                	mv	t1,s6
   174f2:	eaaff06f          	j	16b9c <_svfprintf_r+0x204>
   174f6:	0a10                	addi	a2,sp,272
   174f8:	85d2                	mv	a1,s4
   174fa:	854e                	mv	a0,s3
   174fc:	351020ef          	jal	ra,1a04c <__ssprint_r>
   17500:	ee050263          	beqz	a0,16be4 <_svfprintf_r+0x24c>
   17504:	67c2                	ld	a5,16(sp)
   17506:	f0078163          	beqz	a5,16c08 <_svfprintf_r+0x270>
   1750a:	65c2                	ld	a1,16(sp)
   1750c:	854e                	mv	a0,s3
   1750e:	b8bfb0ef          	jal	ra,13098 <_free_r>
   17512:	ef6ff06f          	j	16c08 <_svfprintf_r+0x270>
   17516:	8da6                	mv	s11,s1
   17518:	beb9                	j	17076 <_svfprintf_r+0x6de>
   1751a:	46c1                	li	a3,16
   1751c:	11812603          	lw	a2,280(sp)
   17520:	30e6d0e3          	bge	a3,a4,18020 <_svfprintf_r+0x1688>
   17524:	66f5                	lui	a3,0x1d
   17526:	0c868693          	addi	a3,a3,200 # 1d0c8 <blanks.1>
   1752a:	48c1                	li	a7,16
   1752c:	439d                	li	t2,7
   1752e:	a021                	j	17536 <_svfprintf_r+0xb9e>
   17530:	3741                	addiw	a4,a4,-16
   17532:	04e8d363          	bge	a7,a4,17578 <_svfprintf_r+0xbe0>
   17536:	2605                	addiw	a2,a2,1
   17538:	07c1                	addi	a5,a5,16
   1753a:	00d33023          	sd	a3,0(t1)
   1753e:	01133423          	sd	a7,8(t1)
   17542:	f23e                	sd	a5,288(sp)
   17544:	10c12c23          	sw	a2,280(sp)
   17548:	0341                	addi	t1,t1,16
   1754a:	fec3d3e3          	bge	t2,a2,17530 <_svfprintf_r+0xb98>
   1754e:	0a10                	addi	a2,sp,272
   17550:	85d2                	mv	a1,s4
   17552:	854e                	mv	a0,s3
   17554:	e0b6                	sd	a3,64(sp)
   17556:	fc3a                	sd	a4,56(sp)
   17558:	f816                	sd	t0,48(sp)
   1755a:	2f3020ef          	jal	ra,1a04c <__ssprint_r>
   1755e:	f15d                	bnez	a0,17504 <_svfprintf_r+0xb6c>
   17560:	7762                	ld	a4,56(sp)
   17562:	48c1                	li	a7,16
   17564:	7792                	ld	a5,288(sp)
   17566:	3741                	addiw	a4,a4,-16
   17568:	11812603          	lw	a2,280(sp)
   1756c:	6686                	ld	a3,64(sp)
   1756e:	72c2                	ld	t0,48(sp)
   17570:	835a                	mv	t1,s6
   17572:	439d                	li	t2,7
   17574:	fce8c1e3          	blt	a7,a4,17536 <_svfprintf_r+0xb9e>
   17578:	2605                	addiw	a2,a2,1
   1757a:	97ba                	add	a5,a5,a4
   1757c:	00d33023          	sd	a3,0(t1)
   17580:	00e33423          	sd	a4,8(t1)
   17584:	f23e                	sd	a5,288(sp)
   17586:	0006069b          	sext.w	a3,a2
   1758a:	10c12c23          	sw	a2,280(sp)
   1758e:	471d                	li	a4,7
   17590:	0341                	addi	t1,t1,16
   17592:	dad75163          	bge	a4,a3,16b34 <_svfprintf_r+0x19c>
   17596:	0a10                	addi	a2,sp,272
   17598:	85d2                	mv	a1,s4
   1759a:	854e                	mv	a0,s3
   1759c:	f816                	sd	t0,48(sp)
   1759e:	2af020ef          	jal	ra,1a04c <__ssprint_r>
   175a2:	f12d                	bnez	a0,17504 <_svfprintf_r+0xb6c>
   175a4:	7792                	ld	a5,288(sp)
   175a6:	72c2                	ld	t0,48(sp)
   175a8:	835a                	mv	t1,s6
   175aa:	d8aff06f          	j	16b34 <_svfprintf_r+0x19c>
   175ae:	0a10                	addi	a2,sp,272
   175b0:	85d2                	mv	a1,s4
   175b2:	854e                	mv	a0,s3
   175b4:	299020ef          	jal	ra,1a04c <__ssprint_r>
   175b8:	f531                	bnez	a0,17504 <_svfprintf_r+0xb6c>
   175ba:	7792                	ld	a5,288(sp)
   175bc:	835a                	mv	t1,s6
   175be:	dceff06f          	j	16b8c <_svfprintf_r+0x1f4>
   175c2:	46c1                	li	a3,16
   175c4:	11812703          	lw	a4,280(sp)
   175c8:	2e96d5e3          	bge	a3,s1,180b2 <_svfprintf_r+0x171a>
   175cc:	66f5                	lui	a3,0x1d
   175ce:	0c868693          	addi	a3,a3,200 # 1d0c8 <blanks.1>
   175d2:	4bc1                	li	s7,16
   175d4:	4c1d                	li	s8,7
   175d6:	a021                	j	175de <_svfprintf_r+0xc46>
   175d8:	34c1                	addiw	s1,s1,-16
   175da:	029bde63          	bge	s7,s1,17616 <_svfprintf_r+0xc7e>
   175de:	2705                	addiw	a4,a4,1
   175e0:	07c1                	addi	a5,a5,16
   175e2:	00d33023          	sd	a3,0(t1)
   175e6:	01733423          	sd	s7,8(t1)
   175ea:	f23e                	sd	a5,288(sp)
   175ec:	10e12c23          	sw	a4,280(sp)
   175f0:	0341                	addi	t1,t1,16
   175f2:	feec53e3          	bge	s8,a4,175d8 <_svfprintf_r+0xc40>
   175f6:	0a10                	addi	a2,sp,272
   175f8:	85d2                	mv	a1,s4
   175fa:	854e                	mv	a0,s3
   175fc:	f836                	sd	a3,48(sp)
   175fe:	24f020ef          	jal	ra,1a04c <__ssprint_r>
   17602:	f00511e3          	bnez	a0,17504 <_svfprintf_r+0xb6c>
   17606:	34c1                	addiw	s1,s1,-16
   17608:	7792                	ld	a5,288(sp)
   1760a:	11812703          	lw	a4,280(sp)
   1760e:	76c2                	ld	a3,48(sp)
   17610:	835a                	mv	t1,s6
   17612:	fc9bc6e3          	blt	s7,s1,175de <_svfprintf_r+0xc46>
   17616:	2705                	addiw	a4,a4,1
   17618:	97a6                	add	a5,a5,s1
   1761a:	00d33023          	sd	a3,0(t1)
   1761e:	10e12c23          	sw	a4,280(sp)
   17622:	0007069b          	sext.w	a3,a4
   17626:	00933423          	sd	s1,8(t1)
   1762a:	f23e                	sd	a5,288(sp)
   1762c:	471d                	li	a4,7
   1762e:	dad75263          	bge	a4,a3,16bd2 <_svfprintf_r+0x23a>
   17632:	0a10                	addi	a2,sp,272
   17634:	85d2                	mv	a1,s4
   17636:	854e                	mv	a0,s3
   17638:	215020ef          	jal	ra,1a04c <__ssprint_r>
   1763c:	ec0514e3          	bnez	a0,17504 <_svfprintf_r+0xb6c>
   17640:	7792                	ld	a5,288(sp)
   17642:	d90ff06f          	j	16bd2 <_svfprintf_r+0x23a>
   17646:	562e                	lw	a2,232(sp)
   17648:	56c05163          	blez	a2,17baa <_svfprintf_r+0x1212>
   1764c:	6746                	ld	a4,80(sp)
   1764e:	7682                	ld	a3,32(sp)
   17650:	00070b9b          	sext.w	s7,a4
   17654:	22e6cf63          	blt	a3,a4,17892 <_svfprintf_r+0xefa>
   17658:	03705263          	blez	s7,1767c <_svfprintf_r+0xce4>
   1765c:	11812703          	lw	a4,280(sp)
   17660:	97de                	add	a5,a5,s7
   17662:	01933023          	sd	s9,0(t1)
   17666:	0017069b          	addiw	a3,a4,1
   1766a:	01733423          	sd	s7,8(t1)
   1766e:	f23e                	sd	a5,288(sp)
   17670:	10d12c23          	sw	a3,280(sp)
   17674:	471d                	li	a4,7
   17676:	0341                	addi	t1,t1,16
   17678:	7cd74163          	blt	a4,a3,17e3a <_svfprintf_r+0x14a2>
   1767c:	fffbc713          	not	a4,s7
   17680:	977d                	srai	a4,a4,0x3f
   17682:	00ebfbb3          	and	s7,s7,a4
   17686:	6746                	ld	a4,80(sp)
   17688:	41770bbb          	subw	s7,a4,s7
   1768c:	2b704d63          	bgtz	s7,17946 <_svfprintf_r+0xfae>
   17690:	66c6                	ld	a3,80(sp)
   17692:	4004f713          	andi	a4,s1,1024
   17696:	00dc8c33          	add	s8,s9,a3
   1769a:	32071563          	bnez	a4,179c4 <_svfprintf_r+0x102c>
   1769e:	572e                	lw	a4,232(sp)
   176a0:	7682                	ld	a3,32(sp)
   176a2:	00d74663          	blt	a4,a3,176ae <_svfprintf_r+0xd16>
   176a6:	0014f693          	andi	a3,s1,1
   176aa:	7a068563          	beqz	a3,17e54 <_svfprintf_r+0x14bc>
   176ae:	76c6                	ld	a3,112(sp)
   176b0:	7626                	ld	a2,104(sp)
   176b2:	0341                	addi	t1,t1,16
   176b4:	fed33823          	sd	a3,-16(t1)
   176b8:	11812683          	lw	a3,280(sp)
   176bc:	97b2                	add	a5,a5,a2
   176be:	fec33c23          	sd	a2,-8(t1)
   176c2:	2685                	addiw	a3,a3,1
   176c4:	0006861b          	sext.w	a2,a3
   176c8:	10d12c23          	sw	a3,280(sp)
   176cc:	f23e                	sd	a5,288(sp)
   176ce:	469d                	li	a3,7
   176d0:	0ac6c7e3          	blt	a3,a2,17f7e <_svfprintf_r+0x15e6>
   176d4:	7682                	ld	a3,32(sp)
   176d6:	00dc8633          	add	a2,s9,a3
   176da:	40e6873b          	subw	a4,a3,a4
   176de:	4186063b          	subw	a2,a2,s8
   176e2:	0007069b          	sext.w	a3,a4
   176e6:	00d65363          	bge	a2,a3,176ec <_svfprintf_r+0xd54>
   176ea:	8732                	mv	a4,a2
   176ec:	00070b9b          	sext.w	s7,a4
   176f0:	03705263          	blez	s7,17714 <_svfprintf_r+0xd7c>
   176f4:	11812703          	lw	a4,280(sp)
   176f8:	97de                	add	a5,a5,s7
   176fa:	01833023          	sd	s8,0(t1)
   176fe:	0017061b          	addiw	a2,a4,1
   17702:	01733423          	sd	s7,8(t1)
   17706:	f23e                	sd	a5,288(sp)
   17708:	10c12c23          	sw	a2,280(sp)
   1770c:	471d                	li	a4,7
   1770e:	0341                	addi	t1,t1,16
   17710:	16c745e3          	blt	a4,a2,1807a <_svfprintf_r+0x16e2>
   17714:	fffbc713          	not	a4,s7
   17718:	977d                	srai	a4,a4,0x3f
   1771a:	00ebfbb3          	and	s7,s7,a4
   1771e:	41768bbb          	subw	s7,a3,s7
   17722:	cb705263          	blez	s7,16bc6 <_svfprintf_r+0x22e>
   17726:	68f5                	lui	a7,0x1d
   17728:	46c1                	li	a3,16
   1772a:	11812703          	lw	a4,280(sp)
   1772e:	0d888d93          	addi	s11,a7,216 # 1d0d8 <zeroes.0>
   17732:	4cc1                	li	s9,16
   17734:	4c1d                	li	s8,7
   17736:	0176c663          	blt	a3,s7,17742 <_svfprintf_r+0xdaa>
   1773a:	a381                	j	17c7a <_svfprintf_r+0x12e2>
   1773c:	3bc1                	addiw	s7,s7,-16
   1773e:	537cde63          	bge	s9,s7,17c7a <_svfprintf_r+0x12e2>
   17742:	2705                	addiw	a4,a4,1
   17744:	07c1                	addi	a5,a5,16
   17746:	01b33023          	sd	s11,0(t1)
   1774a:	01933423          	sd	s9,8(t1)
   1774e:	f23e                	sd	a5,288(sp)
   17750:	10e12c23          	sw	a4,280(sp)
   17754:	0341                	addi	t1,t1,16
   17756:	feec53e3          	bge	s8,a4,1773c <_svfprintf_r+0xda4>
   1775a:	0a10                	addi	a2,sp,272
   1775c:	85d2                	mv	a1,s4
   1775e:	854e                	mv	a0,s3
   17760:	0ed020ef          	jal	ra,1a04c <__ssprint_r>
   17764:	da0510e3          	bnez	a0,17504 <_svfprintf_r+0xb6c>
   17768:	7792                	ld	a5,288(sp)
   1776a:	11812703          	lw	a4,280(sp)
   1776e:	835a                	mv	t1,s6
   17770:	b7f1                	j	1773c <_svfprintf_r+0xda4>
   17772:	d20c1363          	bnez	s8,16c98 <_svfprintf_r+0x300>
   17776:	84ee                	mv	s1,s11
   17778:	4c01                	li	s8,0
   1777a:	4b81                	li	s7,0
   1777c:	18c10c93          	addi	s9,sp,396
   17780:	d28ff06f          	j	16ca8 <_svfprintf_r+0x310>
   17784:	0014f513          	andi	a0,s1,1
   17788:	fe051363          	bnez	a0,16f6e <_svfprintf_r+0x5d6>
   1778c:	00b33423          	sd	a1,8(t1)
   17790:	f262                	sd	s8,288(sp)
   17792:	10e12c23          	sw	a4,280(sp)
   17796:	469d                	li	a3,7
   17798:	36e6c963          	blt	a3,a4,17b0a <_svfprintf_r+0x1172>
   1779c:	2609                	addiw	a2,a2,2
   1779e:	02030313          	addi	t1,t1,32
   177a2:	853ff06f          	j	16ff4 <_svfprintf_r+0x65c>
   177a6:	85a057e3          	blez	s10,16ff4 <_svfprintf_r+0x65c>
   177aa:	4741                	li	a4,16
   177ac:	49a75ce3          	bge	a4,s10,18444 <_svfprintf_r+0x1aac>
   177b0:	68f5                	lui	a7,0x1d
   177b2:	0d888d93          	addi	s11,a7,216 # 1d0d8 <zeroes.0>
   177b6:	4841                	li	a6,16
   177b8:	4c9d                	li	s9,7
   177ba:	a031                	j	177c6 <_svfprintf_r+0xe2e>
   177bc:	3d41                	addiw	s10,s10,-16
   177be:	5ba85f63          	bge	a6,s10,17d7c <_svfprintf_r+0x13e4>
   177c2:	00170e1b          	addiw	t3,a4,1
   177c6:	0c41                	addi	s8,s8,16
   177c8:	01bbb023          	sd	s11,0(s7)
   177cc:	010bb423          	sd	a6,8(s7)
   177d0:	f262                	sd	s8,288(sp)
   177d2:	000e071b          	sext.w	a4,t3
   177d6:	11c12c23          	sw	t3,280(sp)
   177da:	0bc1                	addi	s7,s7,16
   177dc:	feecd0e3          	bge	s9,a4,177bc <_svfprintf_r+0xe24>
   177e0:	0a10                	addi	a2,sp,272
   177e2:	85d2                	mv	a1,s4
   177e4:	854e                	mv	a0,s3
   177e6:	067020ef          	jal	ra,1a04c <__ssprint_r>
   177ea:	d0051de3          	bnez	a0,17504 <_svfprintf_r+0xb6c>
   177ee:	7c12                	ld	s8,288(sp)
   177f0:	11812703          	lw	a4,280(sp)
   177f4:	8bda                	mv	s7,s6
   177f6:	4841                	li	a6,16
   177f8:	b7d1                	j	177bc <_svfprintf_r+0xe24>
   177fa:	010df793          	andi	a5,s11,16
   177fe:	e3d9                	bnez	a5,17884 <_svfprintf_r+0xeec>
   17800:	66e2                	ld	a3,24(sp)
   17802:	040df793          	andi	a5,s11,64
   17806:	0006a903          	lw	s2,0(a3)
   1780a:	58078e63          	beqz	a5,17da6 <_svfprintf_r+0x140e>
   1780e:	1942                	slli	s2,s2,0x30
   17810:	03095913          	srli	s2,s2,0x30
   17814:	ec3a                	sd	a4,24(sp)
   17816:	4785                	li	a5,1
   17818:	cd4ff06f          	j	16cec <_svfprintf_r+0x354>
   1781c:	0a10                	addi	a2,sp,272
   1781e:	85d2                	mv	a1,s4
   17820:	854e                	mv	a0,s3
   17822:	02b020ef          	jal	ra,1a04c <__ssprint_r>
   17826:	cc051fe3          	bnez	a0,17504 <_svfprintf_r+0xb6c>
   1782a:	7c12                	ld	s8,288(sp)
   1782c:	11812703          	lw	a4,280(sp)
   17830:	8bda                	mv	s7,s6
   17832:	f4eff06f          	j	16f80 <_svfprintf_r+0x5e8>
   17836:	0a10                	addi	a2,sp,272
   17838:	85d2                	mv	a1,s4
   1783a:	854e                	mv	a0,s3
   1783c:	011020ef          	jal	ra,1a04c <__ssprint_r>
   17840:	cc0512e3          	bnez	a0,17504 <_svfprintf_r+0xb6c>
   17844:	7c12                	ld	s8,288(sp)
   17846:	11812703          	lw	a4,280(sp)
   1784a:	8bda                	mv	s7,s6
   1784c:	f58ff06f          	j	16fa4 <_svfprintf_r+0x60c>
   17850:	0014f713          	andi	a4,s1,1
   17854:	b6070963          	beqz	a4,16bc6 <_svfprintf_r+0x22e>
   17858:	bcc1                	j	17328 <_svfprintf_r+0x990>
   1785a:	67e2                	ld	a5,24(sp)
   1785c:	0007b903          	ld	s2,0(a5)
   17860:	c80ff06f          	j	16ce0 <_svfprintf_r+0x348>
   17864:	67e2                	ld	a5,24(sp)
   17866:	639c                	ld	a5,0(a5)
   17868:	893e                	mv	s2,a5
   1786a:	c0cff06f          	j	16c76 <_svfprintf_r+0x2de>
   1786e:	67e2                	ld	a5,24(sp)
   17870:	07bd                	addi	a5,a5,15
   17872:	9bc1                	andi	a5,a5,-16
   17874:	6398                	ld	a4,0(a5)
   17876:	6794                	ld	a3,8(a5)
   17878:	07c1                	addi	a5,a5,16
   1787a:	ec3e                	sd	a5,24(sp)
   1787c:	e23a                	sd	a4,256(sp)
   1787e:	e636                	sd	a3,264(sp)
   17880:	cdeff06f          	j	16d5e <_svfprintf_r+0x3c6>
   17884:	67e2                	ld	a5,24(sp)
   17886:	ec3a                	sd	a4,24(sp)
   17888:	0007b903          	ld	s2,0(a5)
   1788c:	4785                	li	a5,1
   1788e:	c5eff06f          	j	16cec <_svfprintf_r+0x354>
   17892:	00068b9b          	sext.w	s7,a3
   17896:	dd7043e3          	bgtz	s7,1765c <_svfprintf_r+0xcc4>
   1789a:	b3cd                	j	1767c <_svfprintf_r+0xce4>
   1789c:	8da6                	mv	s11,s1
   1789e:	b861                	j	17136 <_svfprintf_r+0x79e>
   178a0:	67f5                	lui	a5,0x1d
   178a2:	8a078793          	addi	a5,a5,-1888 # 1c8a0 <__clzdi2+0x98>
   178a6:	f43e                	sd	a5,40(sp)
   178a8:	66e2                	ld	a3,24(sp)
   178aa:	0204f793          	andi	a5,s1,32
   178ae:	00868713          	addi	a4,a3,8
   178b2:	22078a63          	beqz	a5,17ae6 <_svfprintf_r+0x114e>
   178b6:	0006b903          	ld	s2,0(a3)
   178ba:	0014f793          	andi	a5,s1,1
   178be:	cf81                	beqz	a5,178d6 <_svfprintf_r+0xf3e>
   178c0:	00090b63          	beqz	s2,178d6 <_svfprintf_r+0xf3e>
   178c4:	0024e493          	ori	s1,s1,2
   178c8:	03000793          	li	a5,48
   178cc:	0ef10023          	sb	a5,224(sp)
   178d0:	0fa100a3          	sb	s10,225(sp)
   178d4:	2481                	sext.w	s1,s1
   178d6:	bff4f493          	andi	s1,s1,-1025
   178da:	00048d9b          	sext.w	s11,s1
   178de:	ec3a                	sd	a4,24(sp)
   178e0:	4789                	li	a5,2
   178e2:	c0aff06f          	j	16cec <_svfprintf_r+0x354>
   178e6:	0204e493          	ori	s1,s1,32
   178ea:	00144e03          	lbu	t3,1(s0)
   178ee:	2481                	sext.w	s1,s1
   178f0:	0405                	addi	s0,s0,1
   178f2:	9b0ff06f          	j	16aa2 <_svfprintf_r+0x10a>
   178f6:	0a10                	addi	a2,sp,272
   178f8:	85d2                	mv	a1,s4
   178fa:	854e                	mv	a0,s3
   178fc:	750020ef          	jal	ra,1a04c <__ssprint_r>
   17900:	c00512e3          	bnez	a0,17504 <_svfprintf_r+0xb6c>
   17904:	7792                	ld	a5,288(sp)
   17906:	835a                	mv	t1,s6
   17908:	b499                	j	1734e <_svfprintf_r+0x9b6>
   1790a:	67f5                	lui	a5,0x1d
   1790c:	88878793          	addi	a5,a5,-1912 # 1c888 <__clzdi2+0x80>
   17910:	f43e                	sd	a5,40(sp)
   17912:	bf59                	j	178a8 <_svfprintf_r+0xf10>
   17914:	2004e493          	ori	s1,s1,512
   17918:	00144e03          	lbu	t3,1(s0)
   1791c:	2481                	sext.w	s1,s1
   1791e:	0405                	addi	s0,s0,1
   17920:	982ff06f          	j	16aa2 <_svfprintf_r+0x10a>
   17924:	04000593          	li	a1,64
   17928:	854e                	mv	a0,s3
   1792a:	ca1f80ef          	jal	ra,105ca <_malloc_r>
   1792e:	00aa3023          	sd	a0,0(s4)
   17932:	00aa3c23          	sd	a0,24(s4)
   17936:	360504e3          	beqz	a0,1849e <_svfprintf_r+0x1b06>
   1793a:	04000793          	li	a5,64
   1793e:	02fa2023          	sw	a5,32(s4)
   17942:	8bcff06f          	j	169fe <_svfprintf_r+0x66>
   17946:	68f5                	lui	a7,0x1d
   17948:	46c1                	li	a3,16
   1794a:	11812703          	lw	a4,280(sp)
   1794e:	0d888d93          	addi	s11,a7,216 # 1d0d8 <zeroes.0>
   17952:	4d41                	li	s10,16
   17954:	4c1d                	li	s8,7
   17956:	0176c663          	blt	a3,s7,17962 <_svfprintf_r+0xfca>
   1795a:	a165                	j	17e02 <_svfprintf_r+0x146a>
   1795c:	3bc1                	addiw	s7,s7,-16
   1795e:	4b7d5263          	bge	s10,s7,17e02 <_svfprintf_r+0x146a>
   17962:	2705                	addiw	a4,a4,1
   17964:	07c1                	addi	a5,a5,16
   17966:	01b33023          	sd	s11,0(t1)
   1796a:	01a33423          	sd	s10,8(t1)
   1796e:	f23e                	sd	a5,288(sp)
   17970:	10e12c23          	sw	a4,280(sp)
   17974:	0341                	addi	t1,t1,16
   17976:	feec53e3          	bge	s8,a4,1795c <_svfprintf_r+0xfc4>
   1797a:	0a10                	addi	a2,sp,272
   1797c:	85d2                	mv	a1,s4
   1797e:	854e                	mv	a0,s3
   17980:	6cc020ef          	jal	ra,1a04c <__ssprint_r>
   17984:	b80510e3          	bnez	a0,17504 <_svfprintf_r+0xb6c>
   17988:	7792                	ld	a5,288(sp)
   1798a:	11812703          	lw	a4,280(sp)
   1798e:	835a                	mv	t1,s6
   17990:	b7f1                	j	1795c <_svfprintf_r+0xfc4>
   17992:	8566                	mv	a0,s9
   17994:	f81a                	sd	t1,48(sp)
   17996:	f01fe0ef          	jal	ra,16896 <strlen>
   1799a:	00050b9b          	sext.w	s7,a0
   1799e:	0df14783          	lbu	a5,223(sp)
   179a2:	fffbc913          	not	s2,s7
   179a6:	43f95913          	srai	s2,s2,0x3f
   179aa:	ec6e                	sd	s11,24(sp)
   179ac:	e802                	sd	zero,16(sp)
   179ae:	e482                	sd	zero,72(sp)
   179b0:	ec82                	sd	zero,88(sp)
   179b2:	e882                	sd	zero,80(sp)
   179b4:	7342                	ld	t1,48(sp)
   179b6:	01797933          	and	s2,s2,s7
   179ba:	4c01                	li	s8,0
   179bc:	b0079463          	bnez	a5,16cc4 <_svfprintf_r+0x32c>
   179c0:	958ff06f          	j	16b18 <_svfprintf_r+0x180>
   179c4:	7702                	ld	a4,32(sp)
   179c6:	6ef5                	lui	t4,0x1d
   179c8:	4b9d                	li	s7,7
   179ca:	9766                	add	a4,a4,s9
   179cc:	fc3a                	sd	a4,56(sp)
   179ce:	6766                	ld	a4,88(sp)
   179d0:	4dc1                	li	s11,16
   179d2:	0d8e8d13          	addi	s10,t4,216 # 1d0d8 <zeroes.0>
   179d6:	cb51                	beqz	a4,17a6a <_svfprintf_r+0x10d2>
   179d8:	6726                	ld	a4,72(sp)
   179da:	eb59                	bnez	a4,17a70 <_svfprintf_r+0x10d8>
   179dc:	7706                	ld	a4,96(sp)
   179de:	177d                	addi	a4,a4,-1
   179e0:	f0ba                	sd	a4,96(sp)
   179e2:	6766                	ld	a4,88(sp)
   179e4:	377d                	addiw	a4,a4,-1
   179e6:	ecba                	sd	a4,88(sp)
   179e8:	672a                	ld	a4,136(sp)
   179ea:	668a                	ld	a3,128(sp)
   179ec:	0341                	addi	t1,t1,16
   179ee:	fee33823          	sd	a4,-16(t1)
   179f2:	11812703          	lw	a4,280(sp)
   179f6:	97b6                	add	a5,a5,a3
   179f8:	fed33c23          	sd	a3,-8(t1)
   179fc:	2705                	addiw	a4,a4,1
   179fe:	f23e                	sd	a5,288(sp)
   17a00:	0007069b          	sext.w	a3,a4
   17a04:	10e12c23          	sw	a4,280(sp)
   17a08:	0edbc763          	blt	s7,a3,17af6 <_svfprintf_r+0x115e>
   17a0c:	7706                	ld	a4,96(sp)
   17a0e:	00074583          	lbu	a1,0(a4)
   17a12:	7762                	ld	a4,56(sp)
   17a14:	0005861b          	sext.w	a2,a1
   17a18:	418706bb          	subw	a3,a4,s8
   17a1c:	0006071b          	sext.w	a4,a2
   17a20:	00c6d463          	bge	a3,a2,17a28 <_svfprintf_r+0x1090>
   17a24:	0006871b          	sext.w	a4,a3
   17a28:	02e05663          	blez	a4,17a54 <_svfprintf_r+0x10bc>
   17a2c:	11812683          	lw	a3,280(sp)
   17a30:	97ba                	add	a5,a5,a4
   17a32:	01833023          	sd	s8,0(t1)
   17a36:	0016861b          	addiw	a2,a3,1
   17a3a:	00e33423          	sd	a4,8(t1)
   17a3e:	f23e                	sd	a5,288(sp)
   17a40:	10c12c23          	sw	a2,280(sp)
   17a44:	24cbc363          	blt	s7,a2,17c8a <_svfprintf_r+0x12f2>
   17a48:	7686                	ld	a3,96(sp)
   17a4a:	0341                	addi	t1,t1,16
   17a4c:	0006c583          	lbu	a1,0(a3)
   17a50:	0005861b          	sext.w	a2,a1
   17a54:	fff74693          	not	a3,a4
   17a58:	96fd                	srai	a3,a3,0x3f
   17a5a:	8f75                	and	a4,a4,a3
   17a5c:	40e6073b          	subw	a4,a2,a4
   17a60:	00e04c63          	bgtz	a4,17a78 <_svfprintf_r+0x10e0>
   17a64:	9c2e                	add	s8,s8,a1
   17a66:	6766                	ld	a4,88(sp)
   17a68:	fb25                	bnez	a4,179d8 <_svfprintf_r+0x1040>
   17a6a:	6726                	ld	a4,72(sp)
   17a6c:	46070c63          	beqz	a4,17ee4 <_svfprintf_r+0x154c>
   17a70:	6726                	ld	a4,72(sp)
   17a72:	377d                	addiw	a4,a4,-1
   17a74:	e4ba                	sd	a4,72(sp)
   17a76:	bf8d                	j	179e8 <_svfprintf_r+0x1050>
   17a78:	11812683          	lw	a3,280(sp)
   17a7c:	00edc663          	blt	s11,a4,17a88 <_svfprintf_r+0x10f0>
   17a80:	a081                	j	17ac0 <_svfprintf_r+0x1128>
   17a82:	3741                	addiw	a4,a4,-16
   17a84:	02edde63          	bge	s11,a4,17ac0 <_svfprintf_r+0x1128>
   17a88:	2685                	addiw	a3,a3,1
   17a8a:	07c1                	addi	a5,a5,16
   17a8c:	01a33023          	sd	s10,0(t1)
   17a90:	01b33423          	sd	s11,8(t1)
   17a94:	f23e                	sd	a5,288(sp)
   17a96:	10d12c23          	sw	a3,280(sp)
   17a9a:	0341                	addi	t1,t1,16
   17a9c:	fedbd3e3          	bge	s7,a3,17a82 <_svfprintf_r+0x10ea>
   17aa0:	0a10                	addi	a2,sp,272
   17aa2:	85d2                	mv	a1,s4
   17aa4:	854e                	mv	a0,s3
   17aa6:	f83a                	sd	a4,48(sp)
   17aa8:	5a4020ef          	jal	ra,1a04c <__ssprint_r>
   17aac:	a4051ce3          	bnez	a0,17504 <_svfprintf_r+0xb6c>
   17ab0:	7742                	ld	a4,48(sp)
   17ab2:	7792                	ld	a5,288(sp)
   17ab4:	11812683          	lw	a3,280(sp)
   17ab8:	3741                	addiw	a4,a4,-16
   17aba:	835a                	mv	t1,s6
   17abc:	fcedc6e3          	blt	s11,a4,17a88 <_svfprintf_r+0x10f0>
   17ac0:	2685                	addiw	a3,a3,1
   17ac2:	97ba                	add	a5,a5,a4
   17ac4:	00e33423          	sd	a4,8(t1)
   17ac8:	01a33023          	sd	s10,0(t1)
   17acc:	f23e                	sd	a5,288(sp)
   17ace:	0006871b          	sext.w	a4,a3
   17ad2:	10d12c23          	sw	a3,280(sp)
   17ad6:	48ebc163          	blt	s7,a4,17f58 <_svfprintf_r+0x15c0>
   17ada:	7706                	ld	a4,96(sp)
   17adc:	0341                	addi	t1,t1,16
   17ade:	00074583          	lbu	a1,0(a4)
   17ae2:	9c2e                	add	s8,s8,a1
   17ae4:	b749                	j	17a66 <_svfprintf_r+0x10ce>
   17ae6:	0104f793          	andi	a5,s1,16
   17aea:	14078e63          	beqz	a5,17c46 <_svfprintf_r+0x12ae>
   17aee:	67e2                	ld	a5,24(sp)
   17af0:	0007b903          	ld	s2,0(a5)
   17af4:	b3d9                	j	178ba <_svfprintf_r+0xf22>
   17af6:	0a10                	addi	a2,sp,272
   17af8:	85d2                	mv	a1,s4
   17afa:	854e                	mv	a0,s3
   17afc:	550020ef          	jal	ra,1a04c <__ssprint_r>
   17b00:	a00512e3          	bnez	a0,17504 <_svfprintf_r+0xb6c>
   17b04:	7792                	ld	a5,288(sp)
   17b06:	835a                	mv	t1,s6
   17b08:	b711                	j	17a0c <_svfprintf_r+0x1074>
   17b0a:	0a10                	addi	a2,sp,272
   17b0c:	85d2                	mv	a1,s4
   17b0e:	854e                	mv	a0,s3
   17b10:	53c020ef          	jal	ra,1a04c <__ssprint_r>
   17b14:	9e0518e3          	bnez	a0,17504 <_svfprintf_r+0xb6c>
   17b18:	11812603          	lw	a2,280(sp)
   17b1c:	7c12                	ld	s8,288(sp)
   17b1e:	1a010313          	addi	t1,sp,416
   17b22:	2605                	addiw	a2,a2,1
   17b24:	8bda                	mv	s7,s6
   17b26:	cceff06f          	j	16ff4 <_svfprintf_r+0x65c>
   17b2a:	18c10b93          	addi	s7,sp,396
   17b2e:	400df793          	andi	a5,s11,1024
   17b32:	f002                	sd	zero,32(sp)
   17b34:	85de                	mv	a1,s7
   17b36:	44a9                	li	s1,10
   17b38:	4725                	li	a4,9
   17b3a:	0ff00693          	li	a3,255
   17b3e:	a039                	j	17b4c <_svfprintf_r+0x11b4>
   17b40:	02995633          	divu	a2,s2,s1
   17b44:	89277ae3          	bgeu	a4,s2,173d8 <_svfprintf_r+0xa40>
   17b48:	8932                	mv	s2,a2
   17b4a:	85e6                	mv	a1,s9
   17b4c:	7502                	ld	a0,32(sp)
   17b4e:	fff58c93          	addi	s9,a1,-1
   17b52:	2505                	addiw	a0,a0,1
   17b54:	f02a                	sd	a0,32(sp)
   17b56:	02997633          	remu	a2,s2,s1
   17b5a:	0306061b          	addiw	a2,a2,48
   17b5e:	fec58fa3          	sb	a2,-1(a1)
   17b62:	dff9                	beqz	a5,17b40 <_svfprintf_r+0x11a8>
   17b64:	7606                	ld	a2,96(sp)
   17b66:	00064603          	lbu	a2,0(a2)
   17b6a:	fcc51be3          	bne	a0,a2,17b40 <_svfprintf_r+0x11a8>
   17b6e:	fcd609e3          	beq	a2,a3,17b40 <_svfprintf_r+0x11a8>
   17b72:	872773e3          	bgeu	a4,s2,173d8 <_svfprintf_r+0xa40>
   17b76:	f83e                	sd	a5,48(sp)
   17b78:	678a                	ld	a5,128(sp)
   17b7a:	65aa                	ld	a1,136(sp)
   17b7c:	e81a                	sd	t1,16(sp)
   17b7e:	40fc8cb3          	sub	s9,s9,a5
   17b82:	863e                	mv	a2,a5
   17b84:	8566                	mv	a0,s9
   17b86:	da1fe0ef          	jal	ra,16926 <strncpy>
   17b8a:	7786                	ld	a5,96(sp)
   17b8c:	02995633          	divu	a2,s2,s1
   17b90:	6342                	ld	t1,16(sp)
   17b92:	0017c583          	lbu	a1,1(a5)
   17b96:	f002                	sd	zero,32(sp)
   17b98:	4725                	li	a4,9
   17b9a:	00b035b3          	snez	a1,a1
   17b9e:	97ae                	add	a5,a5,a1
   17ba0:	f0be                	sd	a5,96(sp)
   17ba2:	0ff00693          	li	a3,255
   17ba6:	77c2                	ld	a5,48(sp)
   17ba8:	b745                	j	17b48 <_svfprintf_r+0x11b0>
   17baa:	11812703          	lw	a4,280(sp)
   17bae:	66f5                	lui	a3,0x1d
   17bb0:	8c068693          	addi	a3,a3,-1856 # 1c8c0 <__clzdi2+0xb8>
   17bb4:	2705                	addiw	a4,a4,1
   17bb6:	00d33023          	sd	a3,0(t1)
   17bba:	0785                	addi	a5,a5,1
   17bbc:	4685                	li	a3,1
   17bbe:	00d33423          	sd	a3,8(t1)
   17bc2:	10e12c23          	sw	a4,280(sp)
   17bc6:	0007069b          	sext.w	a3,a4
   17bca:	f23e                	sd	a5,288(sp)
   17bcc:	471d                	li	a4,7
   17bce:	0341                	addi	t1,t1,16
   17bd0:	06d74063          	blt	a4,a3,17c30 <_svfprintf_r+0x1298>
   17bd4:	12061963          	bnez	a2,17d06 <_svfprintf_r+0x136e>
   17bd8:	7682                	ld	a3,32(sp)
   17bda:	0014f713          	andi	a4,s1,1
   17bde:	8f55                	or	a4,a4,a3
   17be0:	e319                	bnez	a4,17be6 <_svfprintf_r+0x124e>
   17be2:	fe5fe06f          	j	16bc6 <_svfprintf_r+0x22e>
   17be6:	7746                	ld	a4,112(sp)
   17be8:	76a6                	ld	a3,104(sp)
   17bea:	00e33023          	sd	a4,0(t1)
   17bee:	11812703          	lw	a4,280(sp)
   17bf2:	97b6                	add	a5,a5,a3
   17bf4:	00d33423          	sd	a3,8(t1)
   17bf8:	2705                	addiw	a4,a4,1
   17bfa:	0007069b          	sext.w	a3,a4
   17bfe:	10e12c23          	sw	a4,280(sp)
   17c02:	f23e                	sd	a5,288(sp)
   17c04:	471d                	li	a4,7
   17c06:	2ad74d63          	blt	a4,a3,17ec0 <_svfprintf_r+0x1528>
   17c0a:	0341                	addi	t1,t1,16
   17c0c:	7702                	ld	a4,32(sp)
   17c0e:	0016861b          	addiw	a2,a3,1
   17c12:	01933023          	sd	s9,0(t1)
   17c16:	97ba                	add	a5,a5,a4
   17c18:	00e33423          	sd	a4,8(t1)
   17c1c:	f23e                	sd	a5,288(sp)
   17c1e:	10c12c23          	sw	a2,280(sp)
   17c22:	471d                	li	a4,7
   17c24:	00c74463          	blt	a4,a2,17c2c <_svfprintf_r+0x1294>
   17c28:	f9dfe06f          	j	16bc4 <_svfprintf_r+0x22c>
   17c2c:	be4ff06f          	j	17010 <_svfprintf_r+0x678>
   17c30:	0a10                	addi	a2,sp,272
   17c32:	85d2                	mv	a1,s4
   17c34:	854e                	mv	a0,s3
   17c36:	416020ef          	jal	ra,1a04c <__ssprint_r>
   17c3a:	8c0515e3          	bnez	a0,17504 <_svfprintf_r+0xb6c>
   17c3e:	562e                	lw	a2,232(sp)
   17c40:	7792                	ld	a5,288(sp)
   17c42:	835a                	mv	t1,s6
   17c44:	bf41                	j	17bd4 <_svfprintf_r+0x123c>
   17c46:	66e2                	ld	a3,24(sp)
   17c48:	0404f793          	andi	a5,s1,64
   17c4c:	0006a903          	lw	s2,0(a3)
   17c50:	16078463          	beqz	a5,17db8 <_svfprintf_r+0x1420>
   17c54:	1942                	slli	s2,s2,0x30
   17c56:	03095913          	srli	s2,s2,0x30
   17c5a:	b185                	j	178ba <_svfprintf_r+0xf22>
   17c5c:	8da6                	mv	s11,s1
   17c5e:	ec3a                	sd	a4,24(sp)
   17c60:	832ff06f          	j	16c92 <_svfprintf_r+0x2fa>
   17c64:	0a10                	addi	a2,sp,272
   17c66:	85d2                	mv	a1,s4
   17c68:	854e                	mv	a0,s3
   17c6a:	3e2020ef          	jal	ra,1a04c <__ssprint_r>
   17c6e:	88051be3          	bnez	a0,17504 <_svfprintf_r+0xb6c>
   17c72:	7792                	ld	a5,288(sp)
   17c74:	835a                	mv	t1,s6
   17c76:	eaaff06f          	j	17320 <_svfprintf_r+0x988>
   17c7a:	0017069b          	addiw	a3,a4,1
   17c7e:	8736                	mv	a4,a3
   17c80:	97de                	add	a5,a5,s7
   17c82:	01b33023          	sd	s11,0(t1)
   17c86:	f2ffe06f          	j	16bb4 <_svfprintf_r+0x21c>
   17c8a:	0a10                	addi	a2,sp,272
   17c8c:	85d2                	mv	a1,s4
   17c8e:	854e                	mv	a0,s3
   17c90:	f83a                	sd	a4,48(sp)
   17c92:	3ba020ef          	jal	ra,1a04c <__ssprint_r>
   17c96:	860517e3          	bnez	a0,17504 <_svfprintf_r+0xb6c>
   17c9a:	7786                	ld	a5,96(sp)
   17c9c:	7742                	ld	a4,48(sp)
   17c9e:	835a                	mv	t1,s6
   17ca0:	0007c583          	lbu	a1,0(a5)
   17ca4:	7792                	ld	a5,288(sp)
   17ca6:	0005861b          	sext.w	a2,a1
   17caa:	b36d                	j	17a54 <_svfprintf_r+0x10bc>
   17cac:	6512                	ld	a0,256(sp)
   17cae:	65b2                	ld	a1,264(sp)
   17cb0:	4601                	li	a2,0
   17cb2:	4681                	li	a3,0
   17cb4:	0a1030ef          	jal	ra,1b554 <__letf2>
   17cb8:	6342                	ld	t1,16(sp)
   17cba:	2a054d63          	bltz	a0,17f74 <_svfprintf_r+0x15dc>
   17cbe:	0df14783          	lbu	a5,223(sp)
   17cc2:	04700713          	li	a4,71
   17cc6:	17a75663          	bge	a4,s10,17e32 <_svfprintf_r+0x149a>
   17cca:	6875                	lui	a6,0x1d
   17ccc:	87080c93          	addi	s9,a6,-1936 # 1c870 <__clzdi2+0x68>
   17cd0:	f7f4f493          	andi	s1,s1,-129
   17cd4:	e802                	sd	zero,16(sp)
   17cd6:	e482                	sd	zero,72(sp)
   17cd8:	ec82                	sd	zero,88(sp)
   17cda:	e882                	sd	zero,80(sp)
   17cdc:	2481                	sext.w	s1,s1
   17cde:	490d                	li	s2,3
   17ce0:	4b8d                	li	s7,3
   17ce2:	4c01                	li	s8,0
   17ce4:	c399                	beqz	a5,17cea <_svfprintf_r+0x1352>
   17ce6:	fdffe06f          	j	16cc4 <_svfprintf_r+0x32c>
   17cea:	e2ffe06f          	j	16b18 <_svfprintf_r+0x180>
   17cee:	4799                	li	a5,6
   17cf0:	000c0b9b          	sext.w	s7,s8
   17cf4:	1587ee63          	bltu	a5,s8,17e50 <_svfprintf_r+0x14b8>
   17cf8:	6875                	lui	a6,0x1d
   17cfa:	895e                	mv	s2,s7
   17cfc:	ec6e                	sd	s11,24(sp)
   17cfe:	8b880c93          	addi	s9,a6,-1864 # 1c8b8 <__clzdi2+0xb0>
   17d02:	e0dfe06f          	j	16b0e <_svfprintf_r+0x176>
   17d06:	7746                	ld	a4,112(sp)
   17d08:	76a6                	ld	a3,104(sp)
   17d0a:	0341                	addi	t1,t1,16
   17d0c:	fee33823          	sd	a4,-16(t1)
   17d10:	11812703          	lw	a4,280(sp)
   17d14:	97b6                	add	a5,a5,a3
   17d16:	fed33c23          	sd	a3,-8(t1)
   17d1a:	2705                	addiw	a4,a4,1
   17d1c:	0007069b          	sext.w	a3,a4
   17d20:	10e12c23          	sw	a4,280(sp)
   17d24:	f23e                	sd	a5,288(sp)
   17d26:	471d                	li	a4,7
   17d28:	18d74c63          	blt	a4,a3,17ec0 <_svfprintf_r+0x1528>
   17d2c:	ee0650e3          	bgez	a2,17c0c <_svfprintf_r+0x1274>
   17d30:	68f5                	lui	a7,0x1d
   17d32:	5741                	li	a4,-16
   17d34:	40c00c3b          	negw	s8,a2
   17d38:	0d888d93          	addi	s11,a7,216 # 1d0d8 <zeroes.0>
   17d3c:	4bc1                	li	s7,16
   17d3e:	4d1d                	li	s10,7
   17d40:	00e64663          	blt	a2,a4,17d4c <_svfprintf_r+0x13b4>
   17d44:	abb9                	j	182a2 <_svfprintf_r+0x190a>
   17d46:	3c41                	addiw	s8,s8,-16
   17d48:	558bdd63          	bge	s7,s8,182a2 <_svfprintf_r+0x190a>
   17d4c:	2685                	addiw	a3,a3,1
   17d4e:	07c1                	addi	a5,a5,16
   17d50:	01b33023          	sd	s11,0(t1)
   17d54:	01733423          	sd	s7,8(t1)
   17d58:	f23e                	sd	a5,288(sp)
   17d5a:	10d12c23          	sw	a3,280(sp)
   17d5e:	0341                	addi	t1,t1,16
   17d60:	fedd53e3          	bge	s10,a3,17d46 <_svfprintf_r+0x13ae>
   17d64:	0a10                	addi	a2,sp,272
   17d66:	85d2                	mv	a1,s4
   17d68:	854e                	mv	a0,s3
   17d6a:	2e2020ef          	jal	ra,1a04c <__ssprint_r>
   17d6e:	f8051b63          	bnez	a0,17504 <_svfprintf_r+0xb6c>
   17d72:	7792                	ld	a5,288(sp)
   17d74:	11812683          	lw	a3,280(sp)
   17d78:	835a                	mv	t1,s6
   17d7a:	b7f1                	j	17d46 <_svfprintf_r+0x13ae>
   17d7c:	0017061b          	addiw	a2,a4,1
   17d80:	010b8713          	addi	a4,s7,16
   17d84:	9c6a                	add	s8,s8,s10
   17d86:	01bbb023          	sd	s11,0(s7)
   17d8a:	01abb423          	sd	s10,8(s7)
   17d8e:	f262                	sd	s8,288(sp)
   17d90:	10c12c23          	sw	a2,280(sp)
   17d94:	469d                	li	a3,7
   17d96:	d6c6cae3          	blt	a3,a2,17b0a <_svfprintf_r+0x1172>
   17d9a:	2605                	addiw	a2,a2,1
   17d9c:	01070313          	addi	t1,a4,16
   17da0:	8bba                	mv	s7,a4
   17da2:	a52ff06f          	j	16ff4 <_svfprintf_r+0x65c>
   17da6:	200df793          	andi	a5,s11,512
   17daa:	cbe5                	beqz	a5,17e9a <_svfprintf_r+0x1502>
   17dac:	0ff97913          	andi	s2,s2,255
   17db0:	ec3a                	sd	a4,24(sp)
   17db2:	4785                	li	a5,1
   17db4:	f39fe06f          	j	16cec <_svfprintf_r+0x354>
   17db8:	2004f793          	andi	a5,s1,512
   17dbc:	cbf9                	beqz	a5,17e92 <_svfprintf_r+0x14fa>
   17dbe:	0ff97913          	andi	s2,s2,255
   17dc2:	bce5                	j	178ba <_svfprintf_r+0xf22>
   17dc4:	2004f793          	andi	a5,s1,512
   17dc8:	c3e1                	beqz	a5,17e88 <_svfprintf_r+0x14f0>
   17dca:	0ff97913          	andi	s2,s2,255
   17dce:	f13fe06f          	j	16ce0 <_svfprintf_r+0x348>
   17dd2:	2004f793          	andi	a5,s1,512
   17dd6:	c3dd                	beqz	a5,17e7c <_svfprintf_r+0x14e4>
   17dd8:	67e2                	ld	a5,24(sp)
   17dda:	00078903          	lb	s2,0(a5)
   17dde:	87ca                	mv	a5,s2
   17de0:	e97fe06f          	j	16c76 <_svfprintf_r+0x2de>
   17de4:	67b2                	ld	a5,264(sp)
   17de6:	0c07da63          	bgez	a5,17eba <_svfprintf_r+0x1522>
   17dea:	02d00793          	li	a5,45
   17dee:	0cf10fa3          	sb	a5,223(sp)
   17df2:	04700713          	li	a4,71
   17df6:	27a75e63          	bge	a4,s10,18072 <_svfprintf_r+0x16da>
   17dfa:	6875                	lui	a6,0x1d
   17dfc:	88080c93          	addi	s9,a6,-1920 # 1c880 <__clzdi2+0x78>
   17e00:	bdc1                	j	17cd0 <_svfprintf_r+0x1338>
   17e02:	0017069b          	addiw	a3,a4,1
   17e06:	97de                	add	a5,a5,s7
   17e08:	01b33023          	sd	s11,0(t1)
   17e0c:	01733423          	sd	s7,8(t1)
   17e10:	f23e                	sd	a5,288(sp)
   17e12:	10d12c23          	sw	a3,280(sp)
   17e16:	471d                	li	a4,7
   17e18:	0341                	addi	t1,t1,16
   17e1a:	86d75be3          	bge	a4,a3,17690 <_svfprintf_r+0xcf8>
   17e1e:	0a10                	addi	a2,sp,272
   17e20:	85d2                	mv	a1,s4
   17e22:	854e                	mv	a0,s3
   17e24:	228020ef          	jal	ra,1a04c <__ssprint_r>
   17e28:	ec051e63          	bnez	a0,17504 <_svfprintf_r+0xb6c>
   17e2c:	7792                	ld	a5,288(sp)
   17e2e:	835a                	mv	t1,s6
   17e30:	b085                	j	17690 <_svfprintf_r+0xcf8>
   17e32:	6875                	lui	a6,0x1d
   17e34:	86880c93          	addi	s9,a6,-1944 # 1c868 <__clzdi2+0x60>
   17e38:	bd61                	j	17cd0 <_svfprintf_r+0x1338>
   17e3a:	0a10                	addi	a2,sp,272
   17e3c:	85d2                	mv	a1,s4
   17e3e:	854e                	mv	a0,s3
   17e40:	20c020ef          	jal	ra,1a04c <__ssprint_r>
   17e44:	ec051063          	bnez	a0,17504 <_svfprintf_r+0xb6c>
   17e48:	7792                	ld	a5,288(sp)
   17e4a:	835a                	mv	t1,s6
   17e4c:	831ff06f          	j	1767c <_svfprintf_r+0xce4>
   17e50:	4b99                	li	s7,6
   17e52:	b55d                	j	17cf8 <_svfprintf_r+0x1360>
   17e54:	7682                	ld	a3,32(sp)
   17e56:	00dc8833          	add	a6,s9,a3
   17e5a:	40e68bbb          	subw	s7,a3,a4
   17e5e:	41880f3b          	subw	t5,a6,s8
   17e62:	000b869b          	sext.w	a3,s7
   17e66:	8adf57e3          	bge	t5,a3,17714 <_svfprintf_r+0xd7c>
   17e6a:	000f0b9b          	sext.w	s7,t5
   17e6e:	b05d                	j	17714 <_svfprintf_r+0xd7c>
   17e70:	67a2                	ld	a5,8(sp)
   17e72:	8ca2                	mv	s9,s0
   17e74:	00f71023          	sh	a5,0(a4)
   17e78:	d81fe06f          	j	16bf8 <_svfprintf_r+0x260>
   17e7c:	67e2                	ld	a5,24(sp)
   17e7e:	0007a903          	lw	s2,0(a5)
   17e82:	87ca                	mv	a5,s2
   17e84:	df3fe06f          	j	16c76 <_svfprintf_r+0x2de>
   17e88:	1902                	slli	s2,s2,0x20
   17e8a:	02095913          	srli	s2,s2,0x20
   17e8e:	e53fe06f          	j	16ce0 <_svfprintf_r+0x348>
   17e92:	1902                	slli	s2,s2,0x20
   17e94:	02095913          	srli	s2,s2,0x20
   17e98:	b40d                	j	178ba <_svfprintf_r+0xf22>
   17e9a:	1902                	slli	s2,s2,0x20
   17e9c:	02095913          	srli	s2,s2,0x20
   17ea0:	ec3a                	sd	a4,24(sp)
   17ea2:	4785                	li	a5,1
   17ea4:	e49fe06f          	j	16cec <_svfprintf_r+0x354>
   17ea8:	0a10                	addi	a2,sp,272
   17eaa:	85d2                	mv	a1,s4
   17eac:	854e                	mv	a0,s3
   17eae:	19e020ef          	jal	ra,1a04c <__ssprint_r>
   17eb2:	010a5783          	lhu	a5,16(s4)
   17eb6:	d57fe06f          	j	16c0c <_svfprintf_r+0x274>
   17eba:	0df14783          	lbu	a5,223(sp)
   17ebe:	bf15                	j	17df2 <_svfprintf_r+0x145a>
   17ec0:	0a10                	addi	a2,sp,272
   17ec2:	85d2                	mv	a1,s4
   17ec4:	854e                	mv	a0,s3
   17ec6:	186020ef          	jal	ra,1a04c <__ssprint_r>
   17eca:	e2051d63          	bnez	a0,17504 <_svfprintf_r+0xb6c>
   17ece:	562e                	lw	a2,232(sp)
   17ed0:	7792                	ld	a5,288(sp)
   17ed2:	11812683          	lw	a3,280(sp)
   17ed6:	835a                	mv	t1,s6
   17ed8:	d2065ae3          	bgez	a2,17c0c <_svfprintf_r+0x1274>
   17edc:	bd91                	j	17d30 <_svfprintf_r+0x1398>
   17ede:	4c19                	li	s8,6
   17ee0:	ecffe06f          	j	16dae <_svfprintf_r+0x416>
   17ee4:	7702                	ld	a4,32(sp)
   17ee6:	9766                	add	a4,a4,s9
   17ee8:	fb877b63          	bgeu	a4,s8,1769e <_svfprintf_r+0xd06>
   17eec:	8c3a                	mv	s8,a4
   17eee:	fb0ff06f          	j	1769e <_svfprintf_r+0xd06>
   17ef2:	6746                	ld	a4,80(sp)
   17ef4:	57f5                	li	a5,-3
   17ef6:	00f74463          	blt	a4,a5,17efe <_svfprintf_r+0x1566>
   17efa:	00ec5863          	bge	s8,a4,17f0a <_svfprintf_r+0x1572>
   17efe:	3d79                	addiw	s10,s10,-2
   17f00:	fdfd7793          	andi	a5,s10,-33
   17f04:	ecbe                	sd	a5,88(sp)
   17f06:	f3bfe06f          	j	16e40 <_svfprintf_r+0x4a8>
   17f0a:	6746                	ld	a4,80(sp)
   17f0c:	7782                	ld	a5,32(sp)
   17f0e:	12f74c63          	blt	a4,a5,18046 <_svfprintf_r+0x16ae>
   17f12:	77ea                	ld	a5,184(sp)
   17f14:	8bba                	mv	s7,a4
   17f16:	8b85                	andi	a5,a5,1
   17f18:	c781                	beqz	a5,17f20 <_svfprintf_r+0x1588>
   17f1a:	77a6                	ld	a5,104(sp)
   17f1c:	00e78bbb          	addw	s7,a5,a4
   17f20:	77ea                	ld	a5,184(sp)
   17f22:	4007f793          	andi	a5,a5,1024
   17f26:	c781                	beqz	a5,17f2e <_svfprintf_r+0x1596>
   17f28:	67c6                	ld	a5,80(sp)
   17f2a:	46f04c63          	bgtz	a5,183a2 <_svfprintf_r+0x1a0a>
   17f2e:	fffbc913          	not	s2,s7
   17f32:	43f95913          	srai	s2,s2,0x3f
   17f36:	012bf933          	and	s2,s7,s2
   17f3a:	2901                	sext.w	s2,s2
   17f3c:	06700d13          	li	s10,103
   17f40:	e482                	sd	zero,72(sp)
   17f42:	ec82                	sd	zero,88(sp)
   17f44:	fdffe06f          	j	16f22 <_svfprintf_r+0x58a>
   17f48:	0df14783          	lbu	a5,223(sp)
   17f4c:	4c01                	li	s8,0
   17f4e:	c399                	beqz	a5,17f54 <_svfprintf_r+0x15bc>
   17f50:	d75fe06f          	j	16cc4 <_svfprintf_r+0x32c>
   17f54:	bc5fe06f          	j	16b18 <_svfprintf_r+0x180>
   17f58:	0a10                	addi	a2,sp,272
   17f5a:	85d2                	mv	a1,s4
   17f5c:	854e                	mv	a0,s3
   17f5e:	0ee020ef          	jal	ra,1a04c <__ssprint_r>
   17f62:	da051163          	bnez	a0,17504 <_svfprintf_r+0xb6c>
   17f66:	7786                	ld	a5,96(sp)
   17f68:	835a                	mv	t1,s6
   17f6a:	0007c583          	lbu	a1,0(a5)
   17f6e:	7792                	ld	a5,288(sp)
   17f70:	9c2e                	add	s8,s8,a1
   17f72:	bcd5                	j	17a66 <_svfprintf_r+0x10ce>
   17f74:	02d00793          	li	a5,45
   17f78:	0cf10fa3          	sb	a5,223(sp)
   17f7c:	b399                	j	17cc2 <_svfprintf_r+0x132a>
   17f7e:	0a10                	addi	a2,sp,272
   17f80:	85d2                	mv	a1,s4
   17f82:	854e                	mv	a0,s3
   17f84:	0c8020ef          	jal	ra,1a04c <__ssprint_r>
   17f88:	d6051e63          	bnez	a0,17504 <_svfprintf_r+0xb6c>
   17f8c:	572e                	lw	a4,232(sp)
   17f8e:	7792                	ld	a5,288(sp)
   17f90:	835a                	mv	t1,s6
   17f92:	f42ff06f          	j	176d4 <_svfprintf_r+0xd3c>
   17f96:	11bc                	addi	a5,sp,232
   17f98:	8762                	mv	a4,s8
   17f9a:	0f810893          	addi	a7,sp,248
   17f9e:	0ec10813          	addi	a6,sp,236
   17fa2:	468d                	li	a3,3
   17fa4:	85de                	mv	a1,s7
   17fa6:	864a                	mv	a2,s2
   17fa8:	854e                	mv	a0,s3
   17faa:	f01a                	sd	t1,32(sp)
   17fac:	ea8fc0ef          	jal	ra,14654 <_ldtoa_r>
   17fb0:	00054703          	lbu	a4,0(a0)
   17fb4:	03000793          	li	a5,48
   17fb8:	7302                	ld	t1,32(sp)
   17fba:	8caa                	mv	s9,a0
   17fbc:	04f70463          	beq	a4,a5,18004 <_svfprintf_r+0x166c>
   17fc0:	57ae                	lw	a5,232(sp)
   17fc2:	97e2                	add	a5,a5,s8
   17fc4:	97e6                	add	a5,a5,s9
   17fc6:	4601                	li	a2,0
   17fc8:	4681                	li	a3,0
   17fca:	855e                	mv	a0,s7
   17fcc:	85ca                	mv	a1,s2
   17fce:	f83e                	sd	a5,48(sp)
   17fd0:	f01a                	sd	t1,32(sp)
   17fd2:	448030ef          	jal	ra,1b41a <__eqtf2>
   17fd6:	77c2                	ld	a5,48(sp)
   17fd8:	7302                	ld	t1,32(sp)
   17fda:	863e                	mv	a2,a5
   17fdc:	e119                	bnez	a0,17fe2 <_svfprintf_r+0x164a>
   17fde:	e3dfe06f          	j	16e1a <_svfprintf_r+0x482>
   17fe2:	766e                	ld	a2,248(sp)
   17fe4:	00f66463          	bltu	a2,a5,17fec <_svfprintf_r+0x1654>
   17fe8:	e33fe06f          	j	16e1a <_svfprintf_r+0x482>
   17fec:	03000693          	li	a3,48
   17ff0:	00160713          	addi	a4,a2,1
   17ff4:	fdba                	sd	a4,248(sp)
   17ff6:	00d60023          	sb	a3,0(a2)
   17ffa:	766e                	ld	a2,248(sp)
   17ffc:	fef66ae3          	bltu	a2,a5,17ff0 <_svfprintf_r+0x1658>
   18000:	e1bfe06f          	j	16e1a <_svfprintf_r+0x482>
   18004:	4601                	li	a2,0
   18006:	4681                	li	a3,0
   18008:	855e                	mv	a0,s7
   1800a:	85ca                	mv	a1,s2
   1800c:	f01a                	sd	t1,32(sp)
   1800e:	40c030ef          	jal	ra,1b41a <__eqtf2>
   18012:	7302                	ld	t1,32(sp)
   18014:	d555                	beqz	a0,17fc0 <_svfprintf_r+0x1628>
   18016:	4705                	li	a4,1
   18018:	418707bb          	subw	a5,a4,s8
   1801c:	d5be                	sw	a5,232(sp)
   1801e:	b755                	j	17fc2 <_svfprintf_r+0x162a>
   18020:	66f5                	lui	a3,0x1d
   18022:	0c868693          	addi	a3,a3,200 # 1d0c8 <blanks.1>
   18026:	d52ff06f          	j	17578 <_svfprintf_r+0xbe0>
   1802a:	0df14783          	lbu	a5,223(sp)
   1802e:	ec6e                	sd	s11,24(sp)
   18030:	e482                	sd	zero,72(sp)
   18032:	ec82                	sd	zero,88(sp)
   18034:	e882                	sd	zero,80(sp)
   18036:	8962                	mv	s2,s8
   18038:	8be2                	mv	s7,s8
   1803a:	4c01                	li	s8,0
   1803c:	c399                	beqz	a5,18042 <_svfprintf_r+0x16aa>
   1803e:	c87fe06f          	j	16cc4 <_svfprintf_r+0x32c>
   18042:	ad7fe06f          	j	16b18 <_svfprintf_r+0x180>
   18046:	7702                	ld	a4,32(sp)
   18048:	77a6                	ld	a5,104(sp)
   1804a:	06700d13          	li	s10,103
   1804e:	00e78bbb          	addw	s7,a5,a4
   18052:	6746                	ld	a4,80(sp)
   18054:	3ce05363          	blez	a4,1841a <_svfprintf_r+0x1a82>
   18058:	77ea                	ld	a5,184(sp)
   1805a:	4007f793          	andi	a5,a5,1024
   1805e:	34079463          	bnez	a5,183a6 <_svfprintf_r+0x1a0e>
   18062:	fffbc913          	not	s2,s7
   18066:	43f95913          	srai	s2,s2,0x3f
   1806a:	012bf933          	and	s2,s7,s2
   1806e:	2901                	sext.w	s2,s2
   18070:	bdc1                	j	17f40 <_svfprintf_r+0x15a8>
   18072:	6875                	lui	a6,0x1d
   18074:	87880c93          	addi	s9,a6,-1928 # 1c878 <__clzdi2+0x70>
   18078:	b9a1                	j	17cd0 <_svfprintf_r+0x1338>
   1807a:	0a10                	addi	a2,sp,272
   1807c:	85d2                	mv	a1,s4
   1807e:	854e                	mv	a0,s3
   18080:	7cd010ef          	jal	ra,1a04c <__ssprint_r>
   18084:	c8051063          	bnez	a0,17504 <_svfprintf_r+0xb6c>
   18088:	56ae                	lw	a3,232(sp)
   1808a:	7702                	ld	a4,32(sp)
   1808c:	7792                	ld	a5,288(sp)
   1808e:	835a                	mv	t1,s6
   18090:	40d706bb          	subw	a3,a4,a3
   18094:	e80ff06f          	j	17714 <_svfprintf_r+0xd7c>
   18098:	77ea                	ld	a5,184(sp)
   1809a:	6746                	ld	a4,80(sp)
   1809c:	8b85                	andi	a5,a5,1
   1809e:	00fc67b3          	or	a5,s8,a5
   180a2:	3ae05663          	blez	a4,1844e <_svfprintf_r+0x1ab6>
   180a6:	2c079163          	bnez	a5,18368 <_svfprintf_r+0x19d0>
   180aa:	6bc6                	ld	s7,80(sp)
   180ac:	06600d13          	li	s10,102
   180b0:	b765                	j	18058 <_svfprintf_r+0x16c0>
   180b2:	66f5                	lui	a3,0x1d
   180b4:	0c868693          	addi	a3,a3,200 # 1d0c8 <blanks.1>
   180b8:	d5eff06f          	j	17616 <_svfprintf_r+0xc7e>
   180bc:	03000793          	li	a5,48
   180c0:	0ef10023          	sb	a5,224(sp)
   180c4:	05800713          	li	a4,88
   180c8:	0024e793          	ori	a5,s1,2
   180cc:	2781                	sext.w	a5,a5
   180ce:	0ee100a3          	sb	a4,225(sp)
   180d2:	fd3e                	sd	a5,184(sp)
   180d4:	06300713          	li	a4,99
   180d8:	e802                	sd	zero,16(sp)
   180da:	12810c93          	addi	s9,sp,296
   180de:	1b874363          	blt	a4,s8,18284 <_svfprintf_r+0x18ec>
   180e2:	6932                	ld	s2,264(sp)
   180e4:	fdfd7793          	andi	a5,s10,-33
   180e8:	1024e493          	ori	s1,s1,258
   180ec:	ecbe                	sd	a5,88(sp)
   180ee:	e582                	sd	zero,200(sp)
   180f0:	6b92                	ld	s7,256(sp)
   180f2:	2481                	sext.w	s1,s1
   180f4:	12094963          	bltz	s2,18226 <_svfprintf_r+0x188e>
   180f8:	06100793          	li	a5,97
   180fc:	22fd0763          	beq	s10,a5,1832a <_svfprintf_r+0x1992>
   18100:	04100793          	li	a5,65
   18104:	00fd0463          	beq	s10,a5,1810c <_svfprintf_r+0x1774>
   18108:	cc1fe06f          	j	16dc8 <_svfprintf_r+0x430>
   1810c:	85ca                	mv	a1,s2
   1810e:	855e                	mv	a0,s7
   18110:	fc1a                	sd	t1,56(sp)
   18112:	4ca040ef          	jal	ra,1c5dc <__trunctfdf2>
   18116:	11a8                	addi	a0,sp,232
   18118:	c16fe0ef          	jal	ra,1652e <frexp>
   1811c:	3fe040ef          	jal	ra,1c51a <__extenddftf2>
   18120:	66ea                	ld	a3,152(sp)
   18122:	4601                	li	a2,0
   18124:	4d6030ef          	jal	ra,1b5fa <__multf3>
   18128:	4601                	li	a2,0
   1812a:	4681                	li	a3,0
   1812c:	f82a                	sd	a0,48(sp)
   1812e:	f02e                	sd	a1,32(sp)
   18130:	2ea030ef          	jal	ra,1b41a <__eqtf2>
   18134:	7282                	ld	t0,32(sp)
   18136:	7742                	ld	a4,48(sp)
   18138:	7362                	ld	t1,56(sp)
   1813a:	e119                	bnez	a0,18140 <_svfprintf_r+0x17a8>
   1813c:	4785                	li	a5,1
   1813e:	d5be                	sw	a5,232(sp)
   18140:	6bf5                	lui	s7,0x1d
   18142:	888b8793          	addi	a5,s7,-1912 # 1c888 <__clzdi2+0x80>
   18146:	e4be                	sd	a5,72(sp)
   18148:	020c1793          	slli	a5,s8,0x20
   1814c:	9381                	srli	a5,a5,0x20
   1814e:	0785                	addi	a5,a5,1
   18150:	97e6                	add	a5,a5,s9
   18152:	f53e                	sd	a5,168(sp)
   18154:	018c87bb          	addw	a5,s9,s8
   18158:	8de6                	mv	s11,s9
   1815a:	c3be                	sw	a5,196(sp)
   1815c:	a819                	j	18172 <_svfprintf_r+0x17da>
   1815e:	4601                	li	a2,0
   18160:	4681                	li	a3,0
   18162:	e0aa                	sd	a0,64(sp)
   18164:	2b6030ef          	jal	ra,1b41a <__eqtf2>
   18168:	6f06                	ld	t5,64(sp)
   1816a:	7342                	ld	t1,48(sp)
   1816c:	82de                	mv	t0,s7
   1816e:	877a                	mv	a4,t5
   18170:	cd39                	beqz	a0,181ce <_svfprintf_r+0x1836>
   18172:	66ca                	ld	a3,144(sp)
   18174:	4601                	li	a2,0
   18176:	853a                	mv	a0,a4
   18178:	8596                	mv	a1,t0
   1817a:	f81a                	sd	t1,48(sp)
   1817c:	47e030ef          	jal	ra,1b5fa <__multf3>
   18180:	8bae                	mv	s7,a1
   18182:	f02a                	sd	a0,32(sp)
   18184:	2a6040ef          	jal	ra,1c42a <__fixtfsi>
   18188:	0005091b          	sext.w	s2,a0
   1818c:	854a                	mv	a0,s2
   1818e:	334040ef          	jal	ra,1c4c2 <__floatsitf>
   18192:	7702                	ld	a4,32(sp)
   18194:	862a                	mv	a2,a0
   18196:	86ae                	mv	a3,a1
   18198:	853a                	mv	a0,a4
   1819a:	85de                	mv	a1,s7
   1819c:	25f030ef          	jal	ra,1bbfa <__subtf3>
   181a0:	67a6                	ld	a5,72(sp)
   181a2:	f96e                	sd	s11,176(sp)
   181a4:	0d85                	addi	s11,s11,1
   181a6:	01278733          	add	a4,a5,s2
   181aa:	479e                	lw	a5,196(sp)
   181ac:	00074703          	lbu	a4,0(a4)
   181b0:	fc2a                	sd	a0,56(sp)
   181b2:	41b787bb          	subw	a5,a5,s11
   181b6:	e8be                	sd	a5,80(sp)
   181b8:	77aa                	ld	a5,168(sp)
   181ba:	feed8fa3          	sb	a4,-1(s11)
   181be:	f02e                	sd	a1,32(sp)
   181c0:	7342                	ld	t1,48(sp)
   181c2:	8f2a                	mv	t5,a0
   181c4:	8bae                	mv	s7,a1
   181c6:	f9b79ce3          	bne	a5,s11,1815e <_svfprintf_r+0x17c6>
   181ca:	57fd                	li	a5,-1
   181cc:	e8be                	sd	a5,80(sp)
   181ce:	768a                	ld	a3,160(sp)
   181d0:	4601                	li	a2,0
   181d2:	857a                	mv	a0,t5
   181d4:	85de                	mv	a1,s7
   181d6:	f01a                	sd	t1,32(sp)
   181d8:	f87a                	sd	t5,48(sp)
   181da:	2d4030ef          	jal	ra,1b4ae <__getf2>
   181de:	7302                	ld	t1,32(sp)
   181e0:	04a04b63          	bgtz	a0,18236 <_svfprintf_r+0x189e>
   181e4:	7f42                	ld	t5,48(sp)
   181e6:	768a                	ld	a3,160(sp)
   181e8:	4601                	li	a2,0
   181ea:	857a                	mv	a0,t5
   181ec:	85de                	mv	a1,s7
   181ee:	22c030ef          	jal	ra,1b41a <__eqtf2>
   181f2:	7302                	ld	t1,32(sp)
   181f4:	e509                	bnez	a0,181fe <_svfprintf_r+0x1866>
   181f6:	00197913          	andi	s2,s2,1
   181fa:	02091e63          	bnez	s2,18236 <_svfprintf_r+0x189e>
   181fe:	67c6                	ld	a5,80(sp)
   18200:	03000693          	li	a3,48
   18204:	0017871b          	addiw	a4,a5,1
   18208:	976e                	add	a4,a4,s11
   1820a:	0007c763          	bltz	a5,18218 <_svfprintf_r+0x1880>
   1820e:	0d85                	addi	s11,s11,1
   18210:	fedd8fa3          	sb	a3,-1(s11)
   18214:	ffb71de3          	bne	a4,s11,1820e <_svfprintf_r+0x1876>
   18218:	419d87bb          	subw	a5,s11,s9
   1821c:	f03e                	sd	a5,32(sp)
   1821e:	c03fe06f          	j	16e20 <_svfprintf_r+0x488>
   18222:	e802                	sd	zero,16(sp)
   18224:	84be                	mv	s1,a5
   18226:	57fd                	li	a5,-1
   18228:	17fe                	slli	a5,a5,0x3f
   1822a:	00f94933          	xor	s2,s2,a5
   1822e:	02d00793          	li	a5,45
   18232:	e5be                	sd	a5,200(sp)
   18234:	b5d1                	j	180f8 <_svfprintf_r+0x1760>
   18236:	77ca                	ld	a5,176(sp)
   18238:	876e                	mv	a4,s11
   1823a:	fdbe                	sd	a5,248(sp)
   1823c:	67a6                	ld	a5,72(sp)
   1823e:	fffdc683          	lbu	a3,-1(s11)
   18242:	00f7c603          	lbu	a2,15(a5)
   18246:	00d61e63          	bne	a2,a3,18262 <_svfprintf_r+0x18ca>
   1824a:	03000593          	li	a1,48
   1824e:	feb70fa3          	sb	a1,-1(a4)
   18252:	776e                	ld	a4,248(sp)
   18254:	fff70693          	addi	a3,a4,-1
   18258:	fdb6                	sd	a3,248(sp)
   1825a:	fff74683          	lbu	a3,-1(a4)
   1825e:	fed608e3          	beq	a2,a3,1824e <_svfprintf_r+0x18b6>
   18262:	0016861b          	addiw	a2,a3,1
   18266:	03900593          	li	a1,57
   1826a:	0ff67613          	andi	a2,a2,255
   1826e:	00b68563          	beq	a3,a1,18278 <_svfprintf_r+0x18e0>
   18272:	fec70fa3          	sb	a2,-1(a4)
   18276:	b74d                	j	18218 <_svfprintf_r+0x1880>
   18278:	67a6                	ld	a5,72(sp)
   1827a:	00a7c603          	lbu	a2,10(a5)
   1827e:	fec70fa3          	sb	a2,-1(a4)
   18282:	bf59                	j	18218 <_svfprintf_r+0x1880>
   18284:	001c059b          	addiw	a1,s8,1
   18288:	854e                	mv	a0,s3
   1828a:	e81a                	sd	t1,16(sp)
   1828c:	b3ef80ef          	jal	ra,105ca <_malloc_r>
   18290:	6342                	ld	t1,16(sp)
   18292:	8caa                	mv	s9,a0
   18294:	22050463          	beqz	a0,184bc <_svfprintf_r+0x1b24>
   18298:	e82a                	sd	a0,16(sp)
   1829a:	b5a1                	j	180e2 <_svfprintf_r+0x174a>
   1829c:	018c87b3          	add	a5,s9,s8
   182a0:	b31d                	j	17fc6 <_svfprintf_r+0x162e>
   182a2:	2685                	addiw	a3,a3,1
   182a4:	97e2                	add	a5,a5,s8
   182a6:	01b33023          	sd	s11,0(t1)
   182aa:	01833423          	sd	s8,8(t1)
   182ae:	f23e                	sd	a5,288(sp)
   182b0:	10d12c23          	sw	a3,280(sp)
   182b4:	471d                	li	a4,7
   182b6:	94d75ae3          	bge	a4,a3,17c0a <_svfprintf_r+0x1272>
   182ba:	0a10                	addi	a2,sp,272
   182bc:	85d2                	mv	a1,s4
   182be:	854e                	mv	a0,s3
   182c0:	58d010ef          	jal	ra,1a04c <__ssprint_r>
   182c4:	a4051063          	bnez	a0,17504 <_svfprintf_r+0xb6c>
   182c8:	7792                	ld	a5,288(sp)
   182ca:	11812683          	lw	a3,280(sp)
   182ce:	835a                	mv	t1,s6
   182d0:	ba35                	j	17c0c <_svfprintf_r+0x1274>
   182d2:	03000793          	li	a5,48
   182d6:	0ef10023          	sb	a5,224(sp)
   182da:	07800713          	li	a4,120
   182de:	b3ed                	j	180c8 <_svfprintf_r+0x1730>
   182e0:	001c0d9b          	addiw	s11,s8,1
   182e4:	11bc                	addi	a5,sp,232
   182e6:	0f810893          	addi	a7,sp,248
   182ea:	0ec10813          	addi	a6,sp,236
   182ee:	876e                	mv	a4,s11
   182f0:	4689                	li	a3,2
   182f2:	85de                	mv	a1,s7
   182f4:	864a                	mv	a2,s2
   182f6:	854e                	mv	a0,s3
   182f8:	b5cfc0ef          	jal	ra,14654 <_ldtoa_r>
   182fc:	8caa                	mv	s9,a0
   182fe:	7302                	ld	t1,32(sp)
   18300:	01bc87b3          	add	a5,s9,s11
   18304:	b1c9                	j	17fc6 <_svfprintf_r+0x162e>
   18306:	8da6                	mv	s11,s1
   18308:	991fe06f          	j	16c98 <_svfprintf_r+0x300>
   1830c:	c31c                	sw	a5,0(a4)
   1830e:	8ca2                	mv	s9,s0
   18310:	8e9fe06f          	j	16bf8 <_svfprintf_r+0x260>
   18314:	000c0463          	beqz	s8,1831c <_svfprintf_r+0x1984>
   18318:	a97fe06f          	j	16dae <_svfprintf_r+0x416>
   1831c:	4c05                	li	s8,1
   1831e:	a91fe06f          	j	16dae <_svfprintf_r+0x416>
   18322:	57fd                	li	a5,-1
   18324:	e43e                	sd	a5,8(sp)
   18326:	8f1fe06f          	j	16c16 <_svfprintf_r+0x27e>
   1832a:	85ca                	mv	a1,s2
   1832c:	855e                	mv	a0,s7
   1832e:	fc1a                	sd	t1,56(sp)
   18330:	2ac040ef          	jal	ra,1c5dc <__trunctfdf2>
   18334:	11a8                	addi	a0,sp,232
   18336:	9f8fe0ef          	jal	ra,1652e <frexp>
   1833a:	1e0040ef          	jal	ra,1c51a <__extenddftf2>
   1833e:	66ea                	ld	a3,152(sp)
   18340:	4601                	li	a2,0
   18342:	2b8030ef          	jal	ra,1b5fa <__multf3>
   18346:	4601                	li	a2,0
   18348:	4681                	li	a3,0
   1834a:	f82a                	sd	a0,48(sp)
   1834c:	f02e                	sd	a1,32(sp)
   1834e:	0cc030ef          	jal	ra,1b41a <__eqtf2>
   18352:	7282                	ld	t0,32(sp)
   18354:	7742                	ld	a4,48(sp)
   18356:	7362                	ld	t1,56(sp)
   18358:	e119                	bnez	a0,1835e <_svfprintf_r+0x19c6>
   1835a:	4785                	li	a5,1
   1835c:	d5be                	sw	a5,232(sp)
   1835e:	6bf5                	lui	s7,0x1d
   18360:	8a0b8793          	addi	a5,s7,-1888 # 1c8a0 <__clzdi2+0x98>
   18364:	e4be                	sd	a5,72(sp)
   18366:	b3cd                	j	18148 <_svfprintf_r+0x17b0>
   18368:	77a6                	ld	a5,104(sp)
   1836a:	06600d13          	li	s10,102
   1836e:	00e78bbb          	addw	s7,a5,a4
   18372:	018b8bbb          	addw	s7,s7,s8
   18376:	b1cd                	j	18058 <_svfprintf_r+0x16c0>
   18378:	0f210713          	addi	a4,sp,242
   1837c:	e699                	bnez	a3,1838a <_svfprintf_r+0x19f2>
   1837e:	03000713          	li	a4,48
   18382:	0ee10923          	sb	a4,242(sp)
   18386:	0f310713          	addi	a4,sp,243
   1838a:	0c14                	addi	a3,sp,528
   1838c:	0307879b          	addiw	a5,a5,48
   18390:	40d706b3          	sub	a3,a4,a3
   18394:	00f70023          	sb	a5,0(a4)
   18398:	1216879b          	addiw	a5,a3,289
   1839c:	fcbe                	sd	a5,120(sp)
   1839e:	b4bfe06f          	j	16ee8 <_svfprintf_r+0x550>
   183a2:	06700d13          	li	s10,103
   183a6:	7786                	ld	a5,96(sp)
   183a8:	0ff00713          	li	a4,255
   183ac:	e482                	sd	zero,72(sp)
   183ae:	0007c783          	lbu	a5,0(a5)
   183b2:	ec82                	sd	zero,88(sp)
   183b4:	02e78863          	beq	a5,a4,183e4 <_svfprintf_r+0x1a4c>
   183b8:	0ff00693          	li	a3,255
   183bc:	6646                	ld	a2,80(sp)
   183be:	0007871b          	sext.w	a4,a5
   183c2:	02c7d163          	bge	a5,a2,183e4 <_svfprintf_r+0x1a4c>
   183c6:	7586                	ld	a1,96(sp)
   183c8:	40e6073b          	subw	a4,a2,a4
   183cc:	e8ba                	sd	a4,80(sp)
   183ce:	0015c783          	lbu	a5,1(a1)
   183d2:	cf8d                	beqz	a5,1840c <_svfprintf_r+0x1a74>
   183d4:	6766                	ld	a4,88(sp)
   183d6:	2705                	addiw	a4,a4,1
   183d8:	ecba                	sd	a4,88(sp)
   183da:	00158713          	addi	a4,a1,1
   183de:	f0ba                	sd	a4,96(sp)
   183e0:	fcd79ee3          	bne	a5,a3,183bc <_svfprintf_r+0x1a24>
   183e4:	6726                	ld	a4,72(sp)
   183e6:	67e6                	ld	a5,88(sp)
   183e8:	9fb9                	addw	a5,a5,a4
   183ea:	670a                	ld	a4,128(sp)
   183ec:	02e787bb          	mulw	a5,a5,a4
   183f0:	017787bb          	addw	a5,a5,s7
   183f4:	00078b9b          	sext.w	s7,a5
   183f8:	fffbc913          	not	s2,s7
   183fc:	43f95913          	srai	s2,s2,0x3f
   18400:	0127f7b3          	and	a5,a5,s2
   18404:	0007891b          	sext.w	s2,a5
   18408:	b1bfe06f          	j	16f22 <_svfprintf_r+0x58a>
   1840c:	6726                	ld	a4,72(sp)
   1840e:	7786                	ld	a5,96(sp)
   18410:	2705                	addiw	a4,a4,1
   18412:	0007c783          	lbu	a5,0(a5)
   18416:	e4ba                	sd	a4,72(sp)
   18418:	b7e1                	j	183e0 <_svfprintf_r+0x1a48>
   1841a:	40eb87bb          	subw	a5,s7,a4
   1841e:	2785                	addiw	a5,a5,1
   18420:	00078b9b          	sext.w	s7,a5
   18424:	fffbc913          	not	s2,s7
   18428:	43f95913          	srai	s2,s2,0x3f
   1842c:	0127f7b3          	and	a5,a5,s2
   18430:	0007891b          	sext.w	s2,a5
   18434:	b631                	j	17f40 <_svfprintf_r+0x15a8>
   18436:	776a                	ld	a4,184(sp)
   18438:	8b05                	andi	a4,a4,1
   1843a:	e319                	bnez	a4,18440 <_svfprintf_r+0x1aa8>
   1843c:	ac7fe06f          	j	16f02 <_svfprintf_r+0x56a>
   18440:	abdfe06f          	j	16efc <_svfprintf_r+0x564>
   18444:	68f5                	lui	a7,0x1d
   18446:	871a                	mv	a4,t1
   18448:	0d888d93          	addi	s11,a7,216 # 1d0d8 <zeroes.0>
   1844c:	ba25                	j	17d84 <_svfprintf_r+0x13ec>
   1844e:	e791                	bnez	a5,1845a <_svfprintf_r+0x1ac2>
   18450:	4905                	li	s2,1
   18452:	06600d13          	li	s10,102
   18456:	4b85                	li	s7,1
   18458:	b4e5                	j	17f40 <_svfprintf_r+0x15a8>
   1845a:	77a6                	ld	a5,104(sp)
   1845c:	06600d13          	li	s10,102
   18460:	0017869b          	addiw	a3,a5,1
   18464:	018686bb          	addw	a3,a3,s8
   18468:	00068b9b          	sext.w	s7,a3
   1846c:	fffbc913          	not	s2,s7
   18470:	43f95913          	srai	s2,s2,0x3f
   18474:	0126f6b3          	and	a3,a3,s2
   18478:	0006891b          	sext.w	s2,a3
   1847c:	b4d1                	j	17f40 <_svfprintf_r+0x15a8>
   1847e:	66e2                	ld	a3,24(sp)
   18480:	429c                	lw	a5,0(a3)
   18482:	00868613          	addi	a2,a3,8
   18486:	86be                	mv	a3,a5
   18488:	0007d363          	bgez	a5,1848e <_svfprintf_r+0x1af6>
   1848c:	56fd                	li	a3,-1
   1848e:	00144e03          	lbu	t3,1(s0)
   18492:	00068c1b          	sext.w	s8,a3
   18496:	ec32                	sd	a2,24(sp)
   18498:	843a                	mv	s0,a4
   1849a:	e08fe06f          	j	16aa2 <_svfprintf_r+0x10a>
   1849e:	47b1                	li	a5,12
   184a0:	00f9a023          	sw	a5,0(s3)
   184a4:	57fd                	li	a5,-1
   184a6:	e43e                	sd	a5,8(sp)
   184a8:	f6efe06f          	j	16c16 <_svfprintf_r+0x27e>
   184ac:	4789                	li	a5,2
   184ae:	fcbe                	sd	a5,120(sp)
   184b0:	a39fe06f          	j	16ee8 <_svfprintf_r+0x550>
   184b4:	8de2                	mv	s11,s8
   184b6:	01bc87b3          	add	a5,s9,s11
   184ba:	b631                	j	17fc6 <_svfprintf_r+0x162e>
   184bc:	010a5783          	lhu	a5,16(s4)
   184c0:	0407e713          	ori	a4,a5,64
   184c4:	87ba                	mv	a5,a4
   184c6:	00ea1823          	sh	a4,16(s4)
   184ca:	f42fe06f          	j	16c0c <_svfprintf_r+0x274>

00000000000184ce <__sprint_r.part.0>:
   184ce:	0ac5a783          	lw	a5,172(a1)
   184d2:	715d                	addi	sp,sp,-80
   184d4:	6709                	lui	a4,0x2
   184d6:	ec56                	sd	s5,24(sp)
   184d8:	e486                	sd	ra,72(sp)
   184da:	e0a2                	sd	s0,64(sp)
   184dc:	fc26                	sd	s1,56(sp)
   184de:	f84a                	sd	s2,48(sp)
   184e0:	f44e                	sd	s3,40(sp)
   184e2:	f052                	sd	s4,32(sp)
   184e4:	e85a                	sd	s6,16(sp)
   184e6:	e45e                	sd	s7,8(sp)
   184e8:	8ff9                	and	a5,a5,a4
   184ea:	8ab2                	mv	s5,a2
   184ec:	c3c1                	beqz	a5,1856c <__sprint_r.part.0+0x9e>
   184ee:	6a1c                	ld	a5,16(a2)
   184f0:	00063b03          	ld	s6,0(a2)
   184f4:	892e                	mv	s2,a1
   184f6:	89aa                	mv	s3,a0
   184f8:	5a7d                	li	s4,-1
   184fa:	c7bd                	beqz	a5,18568 <__sprint_r.part.0+0x9a>
   184fc:	008b3483          	ld	s1,8(s6) # 1008 <register_fini-0xf0e0>
   18500:	000b3403          	ld	s0,0(s6)
   18504:	8089                	srli	s1,s1,0x2
   18506:	00048b9b          	sext.w	s7,s1
   1850a:	05705863          	blez	s7,1855a <__sprint_r.part.0+0x8c>
   1850e:	34fd                	addiw	s1,s1,-1
   18510:	02049793          	slli	a5,s1,0x20
   18514:	01e7d493          	srli	s1,a5,0x1e
   18518:	00440793          	addi	a5,s0,4
   1851c:	94be                	add	s1,s1,a5
   1851e:	a019                	j	18524 <__sprint_r.part.0+0x56>
   18520:	02848b63          	beq	s1,s0,18556 <__sprint_r.part.0+0x88>
   18524:	400c                	lw	a1,0(s0)
   18526:	864a                	mv	a2,s2
   18528:	854e                	mv	a0,s3
   1852a:	0da010ef          	jal	ra,19604 <_fputwc_r>
   1852e:	2501                	sext.w	a0,a0
   18530:	0411                	addi	s0,s0,4
   18532:	ff4517e3          	bne	a0,s4,18520 <__sprint_r.part.0+0x52>
   18536:	557d                	li	a0,-1
   18538:	60a6                	ld	ra,72(sp)
   1853a:	6406                	ld	s0,64(sp)
   1853c:	000ab823          	sd	zero,16(s5)
   18540:	000aa423          	sw	zero,8(s5)
   18544:	74e2                	ld	s1,56(sp)
   18546:	7942                	ld	s2,48(sp)
   18548:	79a2                	ld	s3,40(sp)
   1854a:	7a02                	ld	s4,32(sp)
   1854c:	6ae2                	ld	s5,24(sp)
   1854e:	6b42                	ld	s6,16(sp)
   18550:	6ba2                	ld	s7,8(sp)
   18552:	6161                	addi	sp,sp,80
   18554:	8082                	ret
   18556:	010ab783          	ld	a5,16(s5)
   1855a:	0b8a                	slli	s7,s7,0x2
   1855c:	417787b3          	sub	a5,a5,s7
   18560:	00fab823          	sd	a5,16(s5)
   18564:	0b41                	addi	s6,s6,16
   18566:	fbd9                	bnez	a5,184fc <__sprint_r.part.0+0x2e>
   18568:	4501                	li	a0,0
   1856a:	b7f9                	j	18538 <__sprint_r.part.0+0x6a>
   1856c:	142010ef          	jal	ra,196ae <__sfvwrite_r>
   18570:	b7e1                	j	18538 <__sprint_r.part.0+0x6a>

0000000000018572 <__sprint_r>:
   18572:	6a18                	ld	a4,16(a2)
   18574:	c311                	beqz	a4,18578 <__sprint_r+0x6>
   18576:	bfa1                	j	184ce <__sprint_r.part.0>
   18578:	00062423          	sw	zero,8(a2)
   1857c:	4501                	li	a0,0
   1857e:	8082                	ret

0000000000018580 <_vfiprintf_r>:
   18580:	7145                	addi	sp,sp,-464
   18582:	f74e                	sd	s3,424(sp)
   18584:	ef56                	sd	s5,408(sp)
   18586:	e362                	sd	s8,384(sp)
   18588:	f6ee                	sd	s11,360(sp)
   1858a:	e786                	sd	ra,456(sp)
   1858c:	e3a2                	sd	s0,448(sp)
   1858e:	ff26                	sd	s1,440(sp)
   18590:	fb4a                	sd	s2,432(sp)
   18592:	f352                	sd	s4,416(sp)
   18594:	eb5a                	sd	s6,400(sp)
   18596:	e75e                	sd	s7,392(sp)
   18598:	fee6                	sd	s9,376(sp)
   1859a:	faea                	sd	s10,368(sp)
   1859c:	8aaa                	mv	s5,a0
   1859e:	89ae                	mv	s3,a1
   185a0:	8db2                	mv	s11,a2
   185a2:	8c36                	mv	s8,a3
   185a4:	c501                	beqz	a0,185ac <_vfiprintf_r+0x2c>
   185a6:	493c                	lw	a5,80(a0)
   185a8:	42078463          	beqz	a5,189d0 <_vfiprintf_r+0x450>
   185ac:	01099703          	lh	a4,16(s3)
   185b0:	6689                	lui	a3,0x2
   185b2:	03071793          	slli	a5,a4,0x30
   185b6:	93c1                	srli	a5,a5,0x30
   185b8:	00d7f633          	and	a2,a5,a3
   185bc:	e215                	bnez	a2,185e0 <_vfiprintf_r+0x60>
   185be:	0ac9a603          	lw	a2,172(s3)
   185c2:	00d767b3          	or	a5,a4,a3
   185c6:	0107979b          	slliw	a5,a5,0x10
   185ca:	7779                	lui	a4,0xffffe
   185cc:	4107d79b          	sraiw	a5,a5,0x10
   185d0:	177d                	addi	a4,a4,-1
   185d2:	8f71                	and	a4,a4,a2
   185d4:	00f99823          	sh	a5,16(s3)
   185d8:	17c2                	slli	a5,a5,0x30
   185da:	0ae9a623          	sw	a4,172(s3)
   185de:	93c1                	srli	a5,a5,0x30
   185e0:	0087f713          	andi	a4,a5,8
   185e4:	2a070563          	beqz	a4,1888e <_vfiprintf_r+0x30e>
   185e8:	0189b703          	ld	a4,24(s3)
   185ec:	2a070163          	beqz	a4,1888e <_vfiprintf_r+0x30e>
   185f0:	8be9                	andi	a5,a5,26
   185f2:	4729                	li	a4,10
   185f4:	2ae78963          	beq	a5,a4,188a6 <_vfiprintf_r+0x326>
   185f8:	67f5                	lui	a5,0x1d
   185fa:	1180                	addi	s0,sp,224
   185fc:	0e878793          	addi	a5,a5,232 # 1d0e8 <zeroes.0+0x10>
   18600:	6b75                	lui	s6,0x1d
   18602:	6975                	lui	s2,0x1d
   18604:	f0a2                	sd	s0,96(sp)
   18606:	f882                	sd	zero,112(sp)
   18608:	d482                	sw	zero,104(sp)
   1860a:	8722                	mv	a4,s0
   1860c:	e802                	sd	zero,16(sp)
   1860e:	fc02                	sd	zero,56(sp)
   18610:	e482                	sd	zero,72(sp)
   18612:	e082                	sd	zero,64(sp)
   18614:	e002                	sd	zero,0(sp)
   18616:	ec3e                	sd	a5,24(sp)
   18618:	258b0b13          	addi	s6,s6,600 # 1d258 <blanks.1>
   1861c:	26890913          	addi	s2,s2,616 # 1d268 <zeroes.0>
   18620:	000dc783          	lbu	a5,0(s11)
   18624:	1c078863          	beqz	a5,187f4 <_vfiprintf_r+0x274>
   18628:	84ee                	mv	s1,s11
   1862a:	02500693          	li	a3,37
   1862e:	2ed78f63          	beq	a5,a3,1892c <_vfiprintf_r+0x3ac>
   18632:	0014c783          	lbu	a5,1(s1)
   18636:	0485                	addi	s1,s1,1
   18638:	fbfd                	bnez	a5,1862e <_vfiprintf_r+0xae>
   1863a:	41b48a3b          	subw	s4,s1,s11
   1863e:	1a0a0b63          	beqz	s4,187f4 <_vfiprintf_r+0x274>
   18642:	57a6                	lw	a5,104(sp)
   18644:	76c6                	ld	a3,112(sp)
   18646:	01b73023          	sd	s11,0(a4) # ffffffffffffe000 <__BSS_END__+0xfffffffffffde6e8>
   1864a:	0017861b          	addiw	a2,a5,1
   1864e:	96d2                	add	a3,a3,s4
   18650:	01473423          	sd	s4,8(a4)
   18654:	f8b6                	sd	a3,112(sp)
   18656:	d4b2                	sw	a2,104(sp)
   18658:	479d                	li	a5,7
   1865a:	0741                	addi	a4,a4,16
   1865c:	00c7dc63          	bge	a5,a2,18674 <_vfiprintf_r+0xf4>
   18660:	08068ae3          	beqz	a3,18ef4 <_vfiprintf_r+0x974>
   18664:	1090                	addi	a2,sp,96
   18666:	85ce                	mv	a1,s3
   18668:	8556                	mv	a0,s5
   1866a:	e65ff0ef          	jal	ra,184ce <__sprint_r.part.0>
   1866e:	18051663          	bnez	a0,187fa <_vfiprintf_r+0x27a>
   18672:	8722                	mv	a4,s0
   18674:	6682                	ld	a3,0(sp)
   18676:	0004c783          	lbu	a5,0(s1)
   1867a:	014686bb          	addw	a3,a3,s4
   1867e:	e036                	sd	a3,0(sp)
   18680:	16078a63          	beqz	a5,187f4 <_vfiprintf_r+0x274>
   18684:	0014c783          	lbu	a5,1(s1)
   18688:	00148d93          	addi	s11,s1,1
   1868c:	04010ba3          	sb	zero,87(sp)
   18690:	587d                	li	a6,-1
   18692:	4481                	li	s1,0
   18694:	4d01                	li	s10,0
   18696:	05a00a13          	li	s4,90
   1869a:	4ba5                	li	s7,9
   1869c:	0d85                	addi	s11,s11,1
   1869e:	2781                	sext.w	a5,a5
   186a0:	02a00593          	li	a1,42
   186a4:	fe07869b          	addiw	a3,a5,-32
   186a8:	0006861b          	sext.w	a2,a3
   186ac:	04ca6263          	bltu	s4,a2,186f0 <_vfiprintf_r+0x170>
   186b0:	02069613          	slli	a2,a3,0x20
   186b4:	01e65693          	srli	a3,a2,0x1e
   186b8:	6662                	ld	a2,24(sp)
   186ba:	96b2                	add	a3,a3,a2
   186bc:	4294                	lw	a3,0(a3)
   186be:	8682                	jr	a3
   186c0:	4481                	li	s1,0
   186c2:	000dc603          	lbu	a2,0(s11)
   186c6:	0024969b          	slliw	a3,s1,0x2
   186ca:	9cb5                	addw	s1,s1,a3
   186cc:	fd07879b          	addiw	a5,a5,-48
   186d0:	0014949b          	slliw	s1,s1,0x1
   186d4:	fd06069b          	addiw	a3,a2,-48
   186d8:	9cbd                	addw	s1,s1,a5
   186da:	0d85                	addi	s11,s11,1
   186dc:	0006079b          	sext.w	a5,a2
   186e0:	fedbf1e3          	bgeu	s7,a3,186c2 <_vfiprintf_r+0x142>
   186e4:	fe07869b          	addiw	a3,a5,-32
   186e8:	0006861b          	sext.w	a2,a3
   186ec:	fcca72e3          	bgeu	s4,a2,186b0 <_vfiprintf_r+0x130>
   186f0:	10078263          	beqz	a5,187f4 <_vfiprintf_r+0x274>
   186f4:	06f10c23          	sb	a5,120(sp)
   186f8:	04010ba3          	sb	zero,87(sp)
   186fc:	4b85                	li	s7,1
   186fe:	4a05                	li	s4,1
   18700:	07810c93          	addi	s9,sp,120
   18704:	4801                	li	a6,0
   18706:	002d7293          	andi	t0,s10,2
   1870a:	00028363          	beqz	t0,18710 <_vfiprintf_r+0x190>
   1870e:	2b89                	addiw	s7,s7,2
   18710:	5626                	lw	a2,104(sp)
   18712:	084d7f13          	andi	t5,s10,132
   18716:	77c6                	ld	a5,112(sp)
   18718:	0016051b          	addiw	a0,a2,1
   1871c:	85aa                	mv	a1,a0
   1871e:	000f1663          	bnez	t5,1872a <_vfiprintf_r+0x1aa>
   18722:	417486bb          	subw	a3,s1,s7
   18726:	68d04063          	bgtz	a3,18da6 <_vfiprintf_r+0x826>
   1872a:	05714583          	lbu	a1,87(sp)
   1872e:	01070693          	addi	a3,a4,16
   18732:	c185                	beqz	a1,18752 <_vfiprintf_r+0x1d2>
   18734:	05710613          	addi	a2,sp,87
   18738:	e310                	sd	a2,0(a4)
   1873a:	0785                	addi	a5,a5,1
   1873c:	4605                	li	a2,1
   1873e:	e710                	sd	a2,8(a4)
   18740:	f8be                	sd	a5,112(sp)
   18742:	d4aa                	sw	a0,104(sp)
   18744:	471d                	li	a4,7
   18746:	5ea74563          	blt	a4,a0,18d30 <_vfiprintf_r+0x7b0>
   1874a:	862a                	mv	a2,a0
   1874c:	8736                	mv	a4,a3
   1874e:	2505                	addiw	a0,a0,1
   18750:	06c1                	addi	a3,a3,16
   18752:	02028e63          	beqz	t0,1878e <_vfiprintf_r+0x20e>
   18756:	08b0                	addi	a2,sp,88
   18758:	e310                	sd	a2,0(a4)
   1875a:	0789                	addi	a5,a5,2
   1875c:	4609                	li	a2,2
   1875e:	e710                	sd	a2,8(a4)
   18760:	f8be                	sd	a5,112(sp)
   18762:	d4aa                	sw	a0,104(sp)
   18764:	471d                	li	a4,7
   18766:	60a75963          	bge	a4,a0,18d78 <_vfiprintf_r+0x7f8>
   1876a:	7a078063          	beqz	a5,18f0a <_vfiprintf_r+0x98a>
   1876e:	1090                	addi	a2,sp,96
   18770:	85ce                	mv	a1,s3
   18772:	8556                	mv	a0,s5
   18774:	f042                	sd	a6,32(sp)
   18776:	e47a                	sd	t5,8(sp)
   18778:	d57ff0ef          	jal	ra,184ce <__sprint_r.part.0>
   1877c:	ed3d                	bnez	a0,187fa <_vfiprintf_r+0x27a>
   1877e:	5626                	lw	a2,104(sp)
   18780:	77c6                	ld	a5,112(sp)
   18782:	7802                	ld	a6,32(sp)
   18784:	6f22                	ld	t5,8(sp)
   18786:	1994                	addi	a3,sp,240
   18788:	0016051b          	addiw	a0,a2,1
   1878c:	8722                	mv	a4,s0
   1878e:	08000593          	li	a1,128
   18792:	44bf0e63          	beq	t5,a1,18bee <_vfiprintf_r+0x66e>
   18796:	4148083b          	subw	a6,a6,s4
   1879a:	4f004e63          	bgtz	a6,18c96 <_vfiprintf_r+0x716>
   1879e:	97d2                	add	a5,a5,s4
   187a0:	01973023          	sd	s9,0(a4)
   187a4:	01473423          	sd	s4,8(a4)
   187a8:	f8be                	sd	a5,112(sp)
   187aa:	d4aa                	sw	a0,104(sp)
   187ac:	471d                	li	a4,7
   187ae:	00a75c63          	bge	a4,a0,187c6 <_vfiprintf_r+0x246>
   187b2:	66078f63          	beqz	a5,18e30 <_vfiprintf_r+0x8b0>
   187b6:	1090                	addi	a2,sp,96
   187b8:	85ce                	mv	a1,s3
   187ba:	8556                	mv	a0,s5
   187bc:	d13ff0ef          	jal	ra,184ce <__sprint_r.part.0>
   187c0:	ed0d                	bnez	a0,187fa <_vfiprintf_r+0x27a>
   187c2:	77c6                	ld	a5,112(sp)
   187c4:	86a2                	mv	a3,s0
   187c6:	004d7e13          	andi	t3,s10,4
   187ca:	000e0663          	beqz	t3,187d6 <_vfiprintf_r+0x256>
   187ce:	41748a3b          	subw	s4,s1,s7
   187d2:	67404963          	bgtz	s4,18e44 <_vfiprintf_r+0x8c4>
   187d6:	8726                	mv	a4,s1
   187d8:	0174d363          	bge	s1,s7,187de <_vfiprintf_r+0x25e>
   187dc:	875e                	mv	a4,s7
   187de:	6682                	ld	a3,0(sp)
   187e0:	9f35                	addw	a4,a4,a3
   187e2:	e03a                	sd	a4,0(sp)
   187e4:	52079a63          	bnez	a5,18d18 <_vfiprintf_r+0x798>
   187e8:	000dc783          	lbu	a5,0(s11)
   187ec:	d482                	sw	zero,104(sp)
   187ee:	8722                	mv	a4,s0
   187f0:	e2079ce3          	bnez	a5,18628 <_vfiprintf_r+0xa8>
   187f4:	77c6                	ld	a5,112(sp)
   187f6:	160794e3          	bnez	a5,1915e <_vfiprintf_r+0xbde>
   187fa:	0109d783          	lhu	a5,16(s3)
   187fe:	0407f793          	andi	a5,a5,64
   18802:	16079ee3          	bnez	a5,1917e <_vfiprintf_r+0xbfe>
   18806:	60be                	ld	ra,456(sp)
   18808:	641e                	ld	s0,448(sp)
   1880a:	6502                	ld	a0,0(sp)
   1880c:	74fa                	ld	s1,440(sp)
   1880e:	795a                	ld	s2,432(sp)
   18810:	79ba                	ld	s3,424(sp)
   18812:	7a1a                	ld	s4,416(sp)
   18814:	6afa                	ld	s5,408(sp)
   18816:	6b5a                	ld	s6,400(sp)
   18818:	6bba                	ld	s7,392(sp)
   1881a:	6c1a                	ld	s8,384(sp)
   1881c:	7cf6                	ld	s9,376(sp)
   1881e:	7d56                	ld	s10,368(sp)
   18820:	7db6                	ld	s11,360(sp)
   18822:	6179                	addi	sp,sp,464
   18824:	8082                	ret
   18826:	010d6e13          	ori	t3,s10,16
   1882a:	000dc783          	lbu	a5,0(s11)
   1882e:	000e0d1b          	sext.w	s10,t3
   18832:	b5ad                	j	1869c <_vfiprintf_r+0x11c>
   18834:	010d6e13          	ori	t3,s10,16
   18838:	000e0d1b          	sext.w	s10,t3
   1883c:	020d7793          	andi	a5,s10,32
   18840:	008c0613          	addi	a2,s8,8
   18844:	10078863          	beqz	a5,18954 <_vfiprintf_r+0x3d4>
   18848:	000c3783          	ld	a5,0(s8)
   1884c:	8bbe                	mv	s7,a5
   1884e:	1207c063          	bltz	a5,1896e <_vfiprintf_r+0x3ee>
   18852:	57fd                	li	a5,-1
   18854:	86ea                	mv	a3,s10
   18856:	8c32                	mv	s8,a2
   18858:	52f80b63          	beq	a6,a5,18d8e <_vfiprintf_r+0x80e>
   1885c:	f7fd7693          	andi	a3,s10,-129
   18860:	2681                	sext.w	a3,a3
   18862:	780b9263          	bnez	s7,18fe6 <_vfiprintf_r+0xa66>
   18866:	52081763          	bnez	a6,18d94 <_vfiprintf_r+0x814>
   1886a:	8d36                	mv	s10,a3
   1886c:	4801                	li	a6,0
   1886e:	4a01                	li	s4,0
   18870:	0dc10c93          	addi	s9,sp,220
   18874:	87c2                	mv	a5,a6
   18876:	01485363          	bge	a6,s4,1887c <_vfiprintf_r+0x2fc>
   1887a:	87d2                	mv	a5,s4
   1887c:	05714683          	lbu	a3,87(sp)
   18880:	00078b9b          	sext.w	s7,a5
   18884:	e80681e3          	beqz	a3,18706 <_vfiprintf_r+0x186>
   18888:	00178b9b          	addiw	s7,a5,1
   1888c:	bdad                	j	18706 <_vfiprintf_r+0x186>
   1888e:	85ce                	mv	a1,s3
   18890:	8556                	mv	a0,s5
   18892:	8acfa0ef          	jal	ra,1293e <__swsetup_r>
   18896:	0e0514e3          	bnez	a0,1917e <_vfiprintf_r+0xbfe>
   1889a:	0109d783          	lhu	a5,16(s3)
   1889e:	4729                	li	a4,10
   188a0:	8be9                	andi	a5,a5,26
   188a2:	d4e79be3          	bne	a5,a4,185f8 <_vfiprintf_r+0x78>
   188a6:	01299783          	lh	a5,18(s3)
   188aa:	d407c7e3          	bltz	a5,185f8 <_vfiprintf_r+0x78>
   188ae:	641e                	ld	s0,448(sp)
   188b0:	60be                	ld	ra,456(sp)
   188b2:	74fa                	ld	s1,440(sp)
   188b4:	795a                	ld	s2,432(sp)
   188b6:	7a1a                	ld	s4,416(sp)
   188b8:	6b5a                	ld	s6,400(sp)
   188ba:	6bba                	ld	s7,392(sp)
   188bc:	7cf6                	ld	s9,376(sp)
   188be:	7d56                	ld	s10,368(sp)
   188c0:	86e2                	mv	a3,s8
   188c2:	866e                	mv	a2,s11
   188c4:	6c1a                	ld	s8,384(sp)
   188c6:	7db6                	ld	s11,360(sp)
   188c8:	85ce                	mv	a1,s3
   188ca:	8556                	mv	a0,s5
   188cc:	79ba                	ld	s3,424(sp)
   188ce:	6afa                	ld	s5,408(sp)
   188d0:	6179                	addi	sp,sp,464
   188d2:	0eb0006f          	j	191bc <__sbprintf>
   188d6:	010d6e13          	ori	t3,s10,16
   188da:	000e0d1b          	sext.w	s10,t3
   188de:	020d7793          	andi	a5,s10,32
   188e2:	008c0613          	addi	a2,s8,8
   188e6:	cbb1                	beqz	a5,1893a <_vfiprintf_r+0x3ba>
   188e8:	000c3b83          	ld	s7,0(s8)
   188ec:	bffd7693          	andi	a3,s10,-1025
   188f0:	2681                	sext.w	a3,a3
   188f2:	8c32                	mv	s8,a2
   188f4:	4781                	li	a5,0
   188f6:	04010ba3          	sb	zero,87(sp)
   188fa:	567d                	li	a2,-1
   188fc:	08c80563          	beq	a6,a2,18986 <_vfiprintf_r+0x406>
   18900:	f7f6fe13          	andi	t3,a3,-129
   18904:	000e0d1b          	sext.w	s10,t3
   18908:	460b9f63          	bnez	s7,18d86 <_vfiprintf_r+0x806>
   1890c:	76081963          	bnez	a6,1907e <_vfiprintf_r+0xafe>
   18910:	ffb1                	bnez	a5,1886c <_vfiprintf_r+0x2ec>
   18912:	0016fa13          	andi	s4,a3,1
   18916:	0dc10c93          	addi	s9,sp,220
   1891a:	f40a0de3          	beqz	s4,18874 <_vfiprintf_r+0x2f4>
   1891e:	03000793          	li	a5,48
   18922:	0cf10da3          	sb	a5,219(sp)
   18926:	0db10c93          	addi	s9,sp,219
   1892a:	b7a9                	j	18874 <_vfiprintf_r+0x2f4>
   1892c:	41b48a3b          	subw	s4,s1,s11
   18930:	d00a19e3          	bnez	s4,18642 <_vfiprintf_r+0xc2>
   18934:	0004c783          	lbu	a5,0(s1)
   18938:	b3a1                	j	18680 <_vfiprintf_r+0x100>
   1893a:	010d7793          	andi	a5,s10,16
   1893e:	f7cd                	bnez	a5,188e8 <_vfiprintf_r+0x368>
   18940:	040d7793          	andi	a5,s10,64
   18944:	000c2b83          	lw	s7,0(s8)
   18948:	78078863          	beqz	a5,190d8 <_vfiprintf_r+0xb58>
   1894c:	1bc2                	slli	s7,s7,0x30
   1894e:	030bdb93          	srli	s7,s7,0x30
   18952:	bf69                	j	188ec <_vfiprintf_r+0x36c>
   18954:	010d7793          	andi	a5,s10,16
   18958:	ee0798e3          	bnez	a5,18848 <_vfiprintf_r+0x2c8>
   1895c:	040d7793          	andi	a5,s10,64
   18960:	76078463          	beqz	a5,190c8 <_vfiprintf_r+0xb48>
   18964:	000c1b83          	lh	s7,0(s8)
   18968:	87de                	mv	a5,s7
   1896a:	ee07d4e3          	bgez	a5,18852 <_vfiprintf_r+0x2d2>
   1896e:	02d00793          	li	a5,45
   18972:	04f10ba3          	sb	a5,87(sp)
   18976:	8c32                	mv	s8,a2
   18978:	567d                	li	a2,-1
   1897a:	41700bb3          	neg	s7,s7
   1897e:	86ea                	mv	a3,s10
   18980:	4785                	li	a5,1
   18982:	f6c81fe3          	bne	a6,a2,18900 <_vfiprintf_r+0x380>
   18986:	4605                	li	a2,1
   18988:	40c78363          	beq	a5,a2,18d8e <_vfiprintf_r+0x80e>
   1898c:	4609                	li	a2,2
   1898e:	22c78c63          	beq	a5,a2,18bc6 <_vfiprintf_r+0x646>
   18992:	0dc10a13          	addi	s4,sp,220
   18996:	8cd2                	mv	s9,s4
   18998:	007bf793          	andi	a5,s7,7
   1899c:	03078793          	addi	a5,a5,48
   189a0:	fefc8fa3          	sb	a5,-1(s9)
   189a4:	003bdb93          	srli	s7,s7,0x3
   189a8:	8666                	mv	a2,s9
   189aa:	1cfd                	addi	s9,s9,-1
   189ac:	fe0b96e3          	bnez	s7,18998 <_vfiprintf_r+0x418>
   189b0:	0016f593          	andi	a1,a3,1
   189b4:	22058963          	beqz	a1,18be6 <_vfiprintf_r+0x666>
   189b8:	03000593          	li	a1,48
   189bc:	22b78563          	beq	a5,a1,18be6 <_vfiprintf_r+0x666>
   189c0:	1679                	addi	a2,a2,-2
   189c2:	febc8fa3          	sb	a1,-1(s9)
   189c6:	40ca0a3b          	subw	s4,s4,a2
   189ca:	8d36                	mv	s10,a3
   189cc:	8cb2                	mv	s9,a2
   189ce:	b55d                	j	18874 <_vfiprintf_r+0x2f4>
   189d0:	d96fa0ef          	jal	ra,12f66 <__sinit>
   189d4:	bee1                	j	185ac <_vfiprintf_r+0x2c>
   189d6:	000c3c83          	ld	s9,0(s8)
   189da:	04010ba3          	sb	zero,87(sp)
   189de:	0c21                	addi	s8,s8,8
   189e0:	6c0c8963          	beqz	s9,190b2 <_vfiprintf_r+0xb32>
   189e4:	57fd                	li	a5,-1
   189e6:	66f80963          	beq	a6,a5,19058 <_vfiprintf_r+0xad8>
   189ea:	8642                	mv	a2,a6
   189ec:	4581                	li	a1,0
   189ee:	8566                	mv	a0,s9
   189f0:	f03a                	sd	a4,32(sp)
   189f2:	e442                	sd	a6,8(sp)
   189f4:	d09fc0ef          	jal	ra,156fc <memchr>
   189f8:	6822                	ld	a6,8(sp)
   189fa:	7702                	ld	a4,32(sp)
   189fc:	76050863          	beqz	a0,1916c <_vfiprintf_r+0xbec>
   18a00:	41950a3b          	subw	s4,a0,s9
   18a04:	4801                	li	a6,0
   18a06:	b5bd                	j	18874 <_vfiprintf_r+0x2f4>
   18a08:	000c2783          	lw	a5,0(s8)
   18a0c:	04010ba3          	sb	zero,87(sp)
   18a10:	0c21                	addi	s8,s8,8
   18a12:	06f10c23          	sb	a5,120(sp)
   18a16:	4b85                	li	s7,1
   18a18:	4a05                	li	s4,1
   18a1a:	07810c93          	addi	s9,sp,120
   18a1e:	b1dd                	j	18704 <_vfiprintf_r+0x184>
   18a20:	020d6e13          	ori	t3,s10,32
   18a24:	000dc783          	lbu	a5,0(s11)
   18a28:	000e0d1b          	sext.w	s10,t3
   18a2c:	b985                	j	1869c <_vfiprintf_r+0x11c>
   18a2e:	77e1                	lui	a5,0xffff8
   18a30:	002d6693          	ori	a3,s10,2
   18a34:	8307c793          	xori	a5,a5,-2000
   18a38:	6d75                	lui	s10,0x1d
   18a3a:	04f11c23          	sh	a5,88(sp)
   18a3e:	8a0d0793          	addi	a5,s10,-1888 # 1c8a0 <__clzdi2+0x98>
   18a42:	000c3b83          	ld	s7,0(s8)
   18a46:	e83e                	sd	a5,16(sp)
   18a48:	2681                	sext.w	a3,a3
   18a4a:	0c21                	addi	s8,s8,8
   18a4c:	4789                	li	a5,2
   18a4e:	b565                	j	188f6 <_vfiprintf_r+0x376>
   18a50:	020d7793          	andi	a5,s10,32
   18a54:	000c3683          	ld	a3,0(s8)
   18a58:	0c21                	addi	s8,s8,8
   18a5a:	e385                	bnez	a5,18a7a <_vfiprintf_r+0x4fa>
   18a5c:	010d7793          	andi	a5,s10,16
   18a60:	ef89                	bnez	a5,18a7a <_vfiprintf_r+0x4fa>
   18a62:	040d7793          	andi	a5,s10,64
   18a66:	6c079263          	bnez	a5,1912a <_vfiprintf_r+0xbaa>
   18a6a:	200d7e13          	andi	t3,s10,512
   18a6e:	6782                	ld	a5,0(sp)
   18a70:	700e0e63          	beqz	t3,1918c <_vfiprintf_r+0xc0c>
   18a74:	00f68023          	sb	a5,0(a3) # 2000 <register_fini-0xe0e8>
   18a78:	b665                	j	18620 <_vfiprintf_r+0xa0>
   18a7a:	6782                	ld	a5,0(sp)
   18a7c:	e29c                	sd	a5,0(a3)
   18a7e:	b64d                	j	18620 <_vfiprintf_r+0xa0>
   18a80:	000dc783          	lbu	a5,0(s11)
   18a84:	06c00693          	li	a3,108
   18a88:	60d78c63          	beq	a5,a3,190a0 <_vfiprintf_r+0xb20>
   18a8c:	010d6e13          	ori	t3,s10,16
   18a90:	000e0d1b          	sext.w	s10,t3
   18a94:	b121                	j	1869c <_vfiprintf_r+0x11c>
   18a96:	000dc783          	lbu	a5,0(s11)
   18a9a:	06800693          	li	a3,104
   18a9e:	5ed78863          	beq	a5,a3,1908e <_vfiprintf_r+0xb0e>
   18aa2:	040d6e13          	ori	t3,s10,64
   18aa6:	000e0d1b          	sext.w	s10,t3
   18aaa:	becd                	j	1869c <_vfiprintf_r+0x11c>
   18aac:	010d6693          	ori	a3,s10,16
   18ab0:	2681                	sext.w	a3,a3
   18ab2:	0206f793          	andi	a5,a3,32
   18ab6:	008c0613          	addi	a2,s8,8
   18aba:	e385                	bnez	a5,18ada <_vfiprintf_r+0x55a>
   18abc:	0106f793          	andi	a5,a3,16
   18ac0:	ef89                	bnez	a5,18ada <_vfiprintf_r+0x55a>
   18ac2:	0406f793          	andi	a5,a3,64
   18ac6:	000c2b83          	lw	s7,0(s8)
   18aca:	60078e63          	beqz	a5,190e6 <_vfiprintf_r+0xb66>
   18ace:	1bc2                	slli	s7,s7,0x30
   18ad0:	030bdb93          	srli	s7,s7,0x30
   18ad4:	8c32                	mv	s8,a2
   18ad6:	4785                	li	a5,1
   18ad8:	bd39                	j	188f6 <_vfiprintf_r+0x376>
   18ada:	000c3b83          	ld	s7,0(s8)
   18ade:	4785                	li	a5,1
   18ae0:	8c32                	mv	s8,a2
   18ae2:	bd11                	j	188f6 <_vfiprintf_r+0x376>
   18ae4:	080d6e13          	ori	t3,s10,128
   18ae8:	000dc783          	lbu	a5,0(s11)
   18aec:	000e0d1b          	sext.w	s10,t3
   18af0:	b675                	j	1869c <_vfiprintf_r+0x11c>
   18af2:	000dc783          	lbu	a5,0(s11)
   18af6:	001d8693          	addi	a3,s11,1
   18afa:	68b78c63          	beq	a5,a1,19192 <_vfiprintf_r+0xc12>
   18afe:	fd07861b          	addiw	a2,a5,-48
   18b02:	8db6                	mv	s11,a3
   18b04:	4801                	li	a6,0
   18b06:	b8cbefe3          	bltu	s7,a2,186a4 <_vfiprintf_r+0x124>
   18b0a:	000dc783          	lbu	a5,0(s11)
   18b0e:	0028169b          	slliw	a3,a6,0x2
   18b12:	0106883b          	addw	a6,a3,a6
   18b16:	0018181b          	slliw	a6,a6,0x1
   18b1a:	00c8083b          	addw	a6,a6,a2
   18b1e:	fd07861b          	addiw	a2,a5,-48
   18b22:	0d85                	addi	s11,s11,1
   18b24:	fecbf3e3          	bgeu	s7,a2,18b0a <_vfiprintf_r+0x58a>
   18b28:	beb5                	j	186a4 <_vfiprintf_r+0x124>
   18b2a:	000dc783          	lbu	a5,0(s11)
   18b2e:	004d6e13          	ori	t3,s10,4
   18b32:	000e0d1b          	sext.w	s10,t3
   18b36:	b69d                	j	1869c <_vfiprintf_r+0x11c>
   18b38:	02b00693          	li	a3,43
   18b3c:	000dc783          	lbu	a5,0(s11)
   18b40:	04d10ba3          	sb	a3,87(sp)
   18b44:	bea1                	j	1869c <_vfiprintf_r+0x11c>
   18b46:	000c2483          	lw	s1,0(s8)
   18b4a:	000dc783          	lbu	a5,0(s11)
   18b4e:	0c21                	addi	s8,s8,8
   18b50:	b404d6e3          	bgez	s1,1869c <_vfiprintf_r+0x11c>
   18b54:	409004bb          	negw	s1,s1
   18b58:	bfd9                	j	18b2e <_vfiprintf_r+0x5ae>
   18b5a:	8556                	mv	a0,s5
   18b5c:	f03a                	sd	a4,32(sp)
   18b5e:	e442                	sd	a6,8(sp)
   18b60:	917fc0ef          	jal	ra,15476 <_localeconv_r>
   18b64:	651c                	ld	a5,8(a0)
   18b66:	853e                	mv	a0,a5
   18b68:	e0be                	sd	a5,64(sp)
   18b6a:	d2dfd0ef          	jal	ra,16896 <strlen>
   18b6e:	87aa                	mv	a5,a0
   18b70:	8556                	mv	a0,s5
   18b72:	8cbe                	mv	s9,a5
   18b74:	e4be                	sd	a5,72(sp)
   18b76:	901fc0ef          	jal	ra,15476 <_localeconv_r>
   18b7a:	6914                	ld	a3,16(a0)
   18b7c:	6822                	ld	a6,8(sp)
   18b7e:	7702                	ld	a4,32(sp)
   18b80:	fc36                	sd	a3,56(sp)
   18b82:	440c8763          	beqz	s9,18fd0 <_vfiprintf_r+0xa50>
   18b86:	000dc783          	lbu	a5,0(s11)
   18b8a:	b00689e3          	beqz	a3,1869c <_vfiprintf_r+0x11c>
   18b8e:	0006c683          	lbu	a3,0(a3)
   18b92:	b00685e3          	beqz	a3,1869c <_vfiprintf_r+0x11c>
   18b96:	400d6e13          	ori	t3,s10,1024
   18b9a:	000e0d1b          	sext.w	s10,t3
   18b9e:	bcfd                	j	1869c <_vfiprintf_r+0x11c>
   18ba0:	001d6e13          	ori	t3,s10,1
   18ba4:	000dc783          	lbu	a5,0(s11)
   18ba8:	000e0d1b          	sext.w	s10,t3
   18bac:	bcc5                	j	1869c <_vfiprintf_r+0x11c>
   18bae:	05714683          	lbu	a3,87(sp)
   18bb2:	000dc783          	lbu	a5,0(s11)
   18bb6:	ae0693e3          	bnez	a3,1869c <_vfiprintf_r+0x11c>
   18bba:	02000693          	li	a3,32
   18bbe:	04d10ba3          	sb	a3,87(sp)
   18bc2:	bce9                	j	1869c <_vfiprintf_r+0x11c>
   18bc4:	86ea                	mv	a3,s10
   18bc6:	0dc10a13          	addi	s4,sp,220
   18bca:	8cd2                	mv	s9,s4
   18bcc:	6642                	ld	a2,16(sp)
   18bce:	00fbf793          	andi	a5,s7,15
   18bd2:	1cfd                	addi	s9,s9,-1
   18bd4:	97b2                	add	a5,a5,a2
   18bd6:	0007c783          	lbu	a5,0(a5) # ffffffffffff8000 <__BSS_END__+0xfffffffffffd86e8>
   18bda:	004bdb93          	srli	s7,s7,0x4
   18bde:	00fc8023          	sb	a5,0(s9)
   18be2:	fe0b95e3          	bnez	s7,18bcc <_vfiprintf_r+0x64c>
   18be6:	419a0a3b          	subw	s4,s4,s9
   18bea:	8d36                	mv	s10,a3
   18bec:	b161                	j	18874 <_vfiprintf_r+0x2f4>
   18bee:	41748ebb          	subw	t4,s1,s7
   18bf2:	bbd052e3          	blez	t4,18796 <_vfiprintf_r+0x216>
   18bf6:	45c1                	li	a1,16
   18bf8:	59d5d763          	bge	a1,t4,19186 <_vfiprintf_r+0xc06>
   18bfc:	4f41                	li	t5,16
   18bfe:	429d                	li	t0,7
   18c00:	a801                	j	18c10 <_vfiprintf_r+0x690>
   18c02:	0026039b          	addiw	t2,a2,2
   18c06:	0741                	addi	a4,a4,16
   18c08:	862e                	mv	a2,a1
   18c0a:	3ec1                	addiw	t4,t4,-16
   18c0c:	05df5463          	bge	t5,t4,18c54 <_vfiprintf_r+0x6d4>
   18c10:	0016059b          	addiw	a1,a2,1
   18c14:	07c1                	addi	a5,a5,16
   18c16:	01273023          	sd	s2,0(a4)
   18c1a:	01e73423          	sd	t5,8(a4)
   18c1e:	f8be                	sd	a5,112(sp)
   18c20:	d4ae                	sw	a1,104(sp)
   18c22:	feb2d0e3          	bge	t0,a1,18c02 <_vfiprintf_r+0x682>
   18c26:	10078163          	beqz	a5,18d28 <_vfiprintf_r+0x7a8>
   18c2a:	1090                	addi	a2,sp,96
   18c2c:	85ce                	mv	a1,s3
   18c2e:	8556                	mv	a0,s5
   18c30:	f076                	sd	t4,32(sp)
   18c32:	e442                	sd	a6,8(sp)
   18c34:	89bff0ef          	jal	ra,184ce <__sprint_r.part.0>
   18c38:	bc0511e3          	bnez	a0,187fa <_vfiprintf_r+0x27a>
   18c3c:	7e82                	ld	t4,32(sp)
   18c3e:	5626                	lw	a2,104(sp)
   18c40:	4f41                	li	t5,16
   18c42:	3ec1                	addiw	t4,t4,-16
   18c44:	77c6                	ld	a5,112(sp)
   18c46:	6822                	ld	a6,8(sp)
   18c48:	8722                	mv	a4,s0
   18c4a:	0016039b          	addiw	t2,a2,1
   18c4e:	429d                	li	t0,7
   18c50:	fddf40e3          	blt	t5,t4,18c10 <_vfiprintf_r+0x690>
   18c54:	01070593          	addi	a1,a4,16
   18c58:	97f6                	add	a5,a5,t4
   18c5a:	01273023          	sd	s2,0(a4)
   18c5e:	01d73423          	sd	t4,8(a4)
   18c62:	f8be                	sd	a5,112(sp)
   18c64:	d49e                	sw	t2,104(sp)
   18c66:	471d                	li	a4,7
   18c68:	34775c63          	bge	a4,t2,18fc0 <_vfiprintf_r+0xa40>
   18c6c:	48078e63          	beqz	a5,19108 <_vfiprintf_r+0xb88>
   18c70:	1090                	addi	a2,sp,96
   18c72:	85ce                	mv	a1,s3
   18c74:	8556                	mv	a0,s5
   18c76:	e442                	sd	a6,8(sp)
   18c78:	857ff0ef          	jal	ra,184ce <__sprint_r.part.0>
   18c7c:	b6051fe3          	bnez	a0,187fa <_vfiprintf_r+0x27a>
   18c80:	6822                	ld	a6,8(sp)
   18c82:	5626                	lw	a2,104(sp)
   18c84:	77c6                	ld	a5,112(sp)
   18c86:	4148083b          	subw	a6,a6,s4
   18c8a:	1994                	addi	a3,sp,240
   18c8c:	0016051b          	addiw	a0,a2,1
   18c90:	8722                	mv	a4,s0
   18c92:	b10056e3          	blez	a6,1879e <_vfiprintf_r+0x21e>
   18c96:	45c1                	li	a1,16
   18c98:	4705d663          	bge	a1,a6,19104 <_vfiprintf_r+0xb84>
   18c9c:	4ec1                	li	t4,16
   18c9e:	4f1d                	li	t5,7
   18ca0:	a801                	j	18cb0 <_vfiprintf_r+0x730>
   18ca2:	0026051b          	addiw	a0,a2,2
   18ca6:	0741                	addi	a4,a4,16
   18ca8:	862e                	mv	a2,a1
   18caa:	3841                	addiw	a6,a6,-16
   18cac:	050ed163          	bge	t4,a6,18cee <_vfiprintf_r+0x76e>
   18cb0:	0016059b          	addiw	a1,a2,1
   18cb4:	07c1                	addi	a5,a5,16
   18cb6:	01273023          	sd	s2,0(a4)
   18cba:	01d73423          	sd	t4,8(a4)
   18cbe:	f8be                	sd	a5,112(sp)
   18cc0:	d4ae                	sw	a1,104(sp)
   18cc2:	febf50e3          	bge	t5,a1,18ca2 <_vfiprintf_r+0x722>
   18cc6:	c7a9                	beqz	a5,18d10 <_vfiprintf_r+0x790>
   18cc8:	1090                	addi	a2,sp,96
   18cca:	85ce                	mv	a1,s3
   18ccc:	8556                	mv	a0,s5
   18cce:	e442                	sd	a6,8(sp)
   18cd0:	ffeff0ef          	jal	ra,184ce <__sprint_r.part.0>
   18cd4:	b20513e3          	bnez	a0,187fa <_vfiprintf_r+0x27a>
   18cd8:	6822                	ld	a6,8(sp)
   18cda:	5626                	lw	a2,104(sp)
   18cdc:	4ec1                	li	t4,16
   18cde:	3841                	addiw	a6,a6,-16
   18ce0:	77c6                	ld	a5,112(sp)
   18ce2:	8722                	mv	a4,s0
   18ce4:	0016051b          	addiw	a0,a2,1
   18ce8:	4f1d                	li	t5,7
   18cea:	fd0ec3e3          	blt	t4,a6,18cb0 <_vfiprintf_r+0x730>
   18cee:	01070613          	addi	a2,a4,16
   18cf2:	97c2                	add	a5,a5,a6
   18cf4:	01273023          	sd	s2,0(a4)
   18cf8:	01073423          	sd	a6,8(a4)
   18cfc:	f8be                	sd	a5,112(sp)
   18cfe:	d4aa                	sw	a0,104(sp)
   18d00:	471d                	li	a4,7
   18d02:	1ca74a63          	blt	a4,a0,18ed6 <_vfiprintf_r+0x956>
   18d06:	2505                	addiw	a0,a0,1
   18d08:	01060693          	addi	a3,a2,16
   18d0c:	8732                	mv	a4,a2
   18d0e:	bc41                	j	1879e <_vfiprintf_r+0x21e>
   18d10:	4505                	li	a0,1
   18d12:	4601                	li	a2,0
   18d14:	8722                	mv	a4,s0
   18d16:	bf51                	j	18caa <_vfiprintf_r+0x72a>
   18d18:	1090                	addi	a2,sp,96
   18d1a:	85ce                	mv	a1,s3
   18d1c:	8556                	mv	a0,s5
   18d1e:	fb0ff0ef          	jal	ra,184ce <__sprint_r.part.0>
   18d22:	ac0503e3          	beqz	a0,187e8 <_vfiprintf_r+0x268>
   18d26:	bcd1                	j	187fa <_vfiprintf_r+0x27a>
   18d28:	4385                	li	t2,1
   18d2a:	4601                	li	a2,0
   18d2c:	8722                	mv	a4,s0
   18d2e:	bdf1                	j	18c0a <_vfiprintf_r+0x68a>
   18d30:	1c078663          	beqz	a5,18efc <_vfiprintf_r+0x97c>
   18d34:	1090                	addi	a2,sp,96
   18d36:	85ce                	mv	a1,s3
   18d38:	8556                	mv	a0,s5
   18d3a:	f442                	sd	a6,40(sp)
   18d3c:	f07a                	sd	t5,32(sp)
   18d3e:	e416                	sd	t0,8(sp)
   18d40:	f8eff0ef          	jal	ra,184ce <__sprint_r.part.0>
   18d44:	aa051be3          	bnez	a0,187fa <_vfiprintf_r+0x27a>
   18d48:	5626                	lw	a2,104(sp)
   18d4a:	77c6                	ld	a5,112(sp)
   18d4c:	7822                	ld	a6,40(sp)
   18d4e:	7f02                	ld	t5,32(sp)
   18d50:	62a2                	ld	t0,8(sp)
   18d52:	1994                	addi	a3,sp,240
   18d54:	0016051b          	addiw	a0,a2,1
   18d58:	8722                	mv	a4,s0
   18d5a:	bae5                	j	18752 <_vfiprintf_r+0x1d2>
   18d5c:	22079e63          	bnez	a5,18f98 <_vfiprintf_r+0xa18>
   18d60:	05714703          	lbu	a4,87(sp)
   18d64:	3a071a63          	bnez	a4,19118 <_vfiprintf_r+0xb98>
   18d68:	18028c63          	beqz	t0,18f00 <_vfiprintf_r+0x980>
   18d6c:	08bc                	addi	a5,sp,88
   18d6e:	f1be                	sd	a5,224(sp)
   18d70:	4789                	li	a5,2
   18d72:	f5be                	sd	a5,232(sp)
   18d74:	1994                	addi	a3,sp,240
   18d76:	4505                	li	a0,1
   18d78:	8736                	mv	a4,a3
   18d7a:	862a                	mv	a2,a0
   18d7c:	0016051b          	addiw	a0,a2,1
   18d80:	01070693          	addi	a3,a4,16
   18d84:	b429                	j	1878e <_vfiprintf_r+0x20e>
   18d86:	4605                	li	a2,1
   18d88:	86ea                	mv	a3,s10
   18d8a:	c0c791e3          	bne	a5,a2,1898c <_vfiprintf_r+0x40c>
   18d8e:	47a5                	li	a5,9
   18d90:	1977e263          	bltu	a5,s7,18f14 <_vfiprintf_r+0x994>
   18d94:	030b8b9b          	addiw	s7,s7,48
   18d98:	0d710da3          	sb	s7,219(sp)
   18d9c:	8d36                	mv	s10,a3
   18d9e:	4a05                	li	s4,1
   18da0:	0db10c93          	addi	s9,sp,219
   18da4:	bcc1                	j	18874 <_vfiprintf_r+0x2f4>
   18da6:	4ec1                	li	t4,16
   18da8:	06ded263          	bge	t4,a3,18e0c <_vfiprintf_r+0x88c>
   18dac:	439d                	li	t2,7
   18dae:	a811                	j	18dc2 <_vfiprintf_r+0x842>
   18db0:	0026059b          	addiw	a1,a2,2
   18db4:	0741                	addi	a4,a4,16
   18db6:	862a                	mv	a2,a0
   18db8:	36c1                	addiw	a3,a3,-16
   18dba:	04ded963          	bge	t4,a3,18e0c <_vfiprintf_r+0x88c>
   18dbe:	0016059b          	addiw	a1,a2,1
   18dc2:	07c1                	addi	a5,a5,16
   18dc4:	01673023          	sd	s6,0(a4)
   18dc8:	01d73423          	sd	t4,8(a4)
   18dcc:	f8be                	sd	a5,112(sp)
   18dce:	0005851b          	sext.w	a0,a1
   18dd2:	d4ae                	sw	a1,104(sp)
   18dd4:	fca3dee3          	bge	t2,a0,18db0 <_vfiprintf_r+0x830>
   18dd8:	cba1                	beqz	a5,18e28 <_vfiprintf_r+0x8a8>
   18dda:	1090                	addi	a2,sp,96
   18ddc:	85ce                	mv	a1,s3
   18dde:	8556                	mv	a0,s5
   18de0:	f836                	sd	a3,48(sp)
   18de2:	f442                	sd	a6,40(sp)
   18de4:	f07a                	sd	t5,32(sp)
   18de6:	e416                	sd	t0,8(sp)
   18de8:	ee6ff0ef          	jal	ra,184ce <__sprint_r.part.0>
   18dec:	a00517e3          	bnez	a0,187fa <_vfiprintf_r+0x27a>
   18df0:	76c2                	ld	a3,48(sp)
   18df2:	5626                	lw	a2,104(sp)
   18df4:	4ec1                	li	t4,16
   18df6:	36c1                	addiw	a3,a3,-16
   18df8:	77c6                	ld	a5,112(sp)
   18dfa:	7822                	ld	a6,40(sp)
   18dfc:	7f02                	ld	t5,32(sp)
   18dfe:	62a2                	ld	t0,8(sp)
   18e00:	8722                	mv	a4,s0
   18e02:	0016059b          	addiw	a1,a2,1
   18e06:	439d                	li	t2,7
   18e08:	fadecbe3          	blt	t4,a3,18dbe <_vfiprintf_r+0x83e>
   18e0c:	97b6                	add	a5,a5,a3
   18e0e:	e714                	sd	a3,8(a4)
   18e10:	01673023          	sd	s6,0(a4)
   18e14:	f8be                	sd	a5,112(sp)
   18e16:	d4ae                	sw	a1,104(sp)
   18e18:	469d                	li	a3,7
   18e1a:	f4b6c1e3          	blt	a3,a1,18d5c <_vfiprintf_r+0x7dc>
   18e1e:	0741                	addi	a4,a4,16
   18e20:	0015851b          	addiw	a0,a1,1
   18e24:	862e                	mv	a2,a1
   18e26:	b211                	j	1872a <_vfiprintf_r+0x1aa>
   18e28:	4601                	li	a2,0
   18e2a:	4585                	li	a1,1
   18e2c:	8722                	mv	a4,s0
   18e2e:	b769                	j	18db8 <_vfiprintf_r+0x838>
   18e30:	d482                	sw	zero,104(sp)
   18e32:	004d7e13          	andi	t3,s10,4
   18e36:	080e0863          	beqz	t3,18ec6 <_vfiprintf_r+0x946>
   18e3a:	41748a3b          	subw	s4,s1,s7
   18e3e:	09405463          	blez	s4,18ec6 <_vfiprintf_r+0x946>
   18e42:	86a2                	mv	a3,s0
   18e44:	4741                	li	a4,16
   18e46:	5626                	lw	a2,104(sp)
   18e48:	33475663          	bge	a4,s4,19174 <_vfiprintf_r+0xbf4>
   18e4c:	4d41                	li	s10,16
   18e4e:	4c9d                	li	s9,7
   18e50:	a801                	j	18e60 <_vfiprintf_r+0x8e0>
   18e52:	0026071b          	addiw	a4,a2,2
   18e56:	06c1                	addi	a3,a3,16
   18e58:	862e                	mv	a2,a1
   18e5a:	3a41                	addiw	s4,s4,-16
   18e5c:	034d5d63          	bge	s10,s4,18e96 <_vfiprintf_r+0x916>
   18e60:	0016059b          	addiw	a1,a2,1
   18e64:	07c1                	addi	a5,a5,16
   18e66:	0166b023          	sd	s6,0(a3)
   18e6a:	01a6b423          	sd	s10,8(a3)
   18e6e:	f8be                	sd	a5,112(sp)
   18e70:	d4ae                	sw	a1,104(sp)
   18e72:	febcd0e3          	bge	s9,a1,18e52 <_vfiprintf_r+0x8d2>
   18e76:	c7a1                	beqz	a5,18ebe <_vfiprintf_r+0x93e>
   18e78:	1090                	addi	a2,sp,96
   18e7a:	85ce                	mv	a1,s3
   18e7c:	8556                	mv	a0,s5
   18e7e:	e50ff0ef          	jal	ra,184ce <__sprint_r.part.0>
   18e82:	96051ce3          	bnez	a0,187fa <_vfiprintf_r+0x27a>
   18e86:	5626                	lw	a2,104(sp)
   18e88:	3a41                	addiw	s4,s4,-16
   18e8a:	77c6                	ld	a5,112(sp)
   18e8c:	86a2                	mv	a3,s0
   18e8e:	0016071b          	addiw	a4,a2,1
   18e92:	fd4d47e3          	blt	s10,s4,18e60 <_vfiprintf_r+0x8e0>
   18e96:	97d2                	add	a5,a5,s4
   18e98:	0166b023          	sd	s6,0(a3)
   18e9c:	0146b423          	sd	s4,8(a3)
   18ea0:	f8be                	sd	a5,112(sp)
   18ea2:	d4ba                	sw	a4,104(sp)
   18ea4:	469d                	li	a3,7
   18ea6:	92e6d8e3          	bge	a3,a4,187d6 <_vfiprintf_r+0x256>
   18eaa:	cf91                	beqz	a5,18ec6 <_vfiprintf_r+0x946>
   18eac:	1090                	addi	a2,sp,96
   18eae:	85ce                	mv	a1,s3
   18eb0:	8556                	mv	a0,s5
   18eb2:	e1cff0ef          	jal	ra,184ce <__sprint_r.part.0>
   18eb6:	940512e3          	bnez	a0,187fa <_vfiprintf_r+0x27a>
   18eba:	77c6                	ld	a5,112(sp)
   18ebc:	ba29                	j	187d6 <_vfiprintf_r+0x256>
   18ebe:	4705                	li	a4,1
   18ec0:	4601                	li	a2,0
   18ec2:	86a2                	mv	a3,s0
   18ec4:	bf59                	j	18e5a <_vfiprintf_r+0x8da>
   18ec6:	87a6                	mv	a5,s1
   18ec8:	0174d363          	bge	s1,s7,18ece <_vfiprintf_r+0x94e>
   18ecc:	87de                	mv	a5,s7
   18ece:	6702                	ld	a4,0(sp)
   18ed0:	9fb9                	addw	a5,a5,a4
   18ed2:	e03e                	sd	a5,0(sp)
   18ed4:	ba11                	j	187e8 <_vfiprintf_r+0x268>
   18ed6:	18078b63          	beqz	a5,1906c <_vfiprintf_r+0xaec>
   18eda:	1090                	addi	a2,sp,96
   18edc:	85ce                	mv	a1,s3
   18ede:	8556                	mv	a0,s5
   18ee0:	deeff0ef          	jal	ra,184ce <__sprint_r.part.0>
   18ee4:	90051be3          	bnez	a0,187fa <_vfiprintf_r+0x27a>
   18ee8:	5526                	lw	a0,104(sp)
   18eea:	77c6                	ld	a5,112(sp)
   18eec:	1994                	addi	a3,sp,240
   18eee:	2505                	addiw	a0,a0,1
   18ef0:	8722                	mv	a4,s0
   18ef2:	b075                	j	1879e <_vfiprintf_r+0x21e>
   18ef4:	d482                	sw	zero,104(sp)
   18ef6:	8722                	mv	a4,s0
   18ef8:	f7cff06f          	j	18674 <_vfiprintf_r+0xf4>
   18efc:	0c029e63          	bnez	t0,18fd8 <_vfiprintf_r+0xa58>
   18f00:	4601                	li	a2,0
   18f02:	1994                	addi	a3,sp,240
   18f04:	4505                	li	a0,1
   18f06:	8722                	mv	a4,s0
   18f08:	b059                	j	1878e <_vfiprintf_r+0x20e>
   18f0a:	1994                	addi	a3,sp,240
   18f0c:	4505                	li	a0,1
   18f0e:	4601                	li	a2,0
   18f10:	8722                	mv	a4,s0
   18f12:	b8b5                	j	1878e <_vfiprintf_r+0x20e>
   18f14:	0dc10a13          	addi	s4,sp,220
   18f18:	4006fe93          	andi	t4,a3,1024
   18f1c:	4501                	li	a0,0
   18f1e:	85d2                	mv	a1,s4
   18f20:	47a9                	li	a5,10
   18f22:	4e25                	li	t3,9
   18f24:	0ff00d13          	li	s10,255
   18f28:	a039                	j	18f36 <_vfiprintf_r+0x9b6>
   18f2a:	02fbd633          	divu	a2,s7,a5
   18f2e:	cb7e7ce3          	bgeu	t3,s7,18be6 <_vfiprintf_r+0x666>
   18f32:	8bb2                	mv	s7,a2
   18f34:	85e6                	mv	a1,s9
   18f36:	fff58c93          	addi	s9,a1,-1
   18f3a:	2505                	addiw	a0,a0,1
   18f3c:	02fbf633          	remu	a2,s7,a5
   18f40:	0306061b          	addiw	a2,a2,48
   18f44:	fec58fa3          	sb	a2,-1(a1)
   18f48:	fe0e81e3          	beqz	t4,18f2a <_vfiprintf_r+0x9aa>
   18f4c:	7662                	ld	a2,56(sp)
   18f4e:	00064603          	lbu	a2,0(a2)
   18f52:	fca61ce3          	bne	a2,a0,18f2a <_vfiprintf_r+0x9aa>
   18f56:	fda60ae3          	beq	a2,s10,18f2a <_vfiprintf_r+0x9aa>
   18f5a:	c97e76e3          	bgeu	t3,s7,18be6 <_vfiprintf_r+0x666>
   18f5e:	67a6                	ld	a5,72(sp)
   18f60:	6586                	ld	a1,64(sp)
   18f62:	f876                	sd	t4,48(sp)
   18f64:	40fc8cb3          	sub	s9,s9,a5
   18f68:	863e                	mv	a2,a5
   18f6a:	8566                	mv	a0,s9
   18f6c:	f43a                	sd	a4,40(sp)
   18f6e:	f042                	sd	a6,32(sp)
   18f70:	e436                	sd	a3,8(sp)
   18f72:	9b5fd0ef          	jal	ra,16926 <strncpy>
   18f76:	7762                	ld	a4,56(sp)
   18f78:	47a9                	li	a5,10
   18f7a:	02fbd633          	divu	a2,s7,a5
   18f7e:	00174583          	lbu	a1,1(a4)
   18f82:	66a2                	ld	a3,8(sp)
   18f84:	7802                	ld	a6,32(sp)
   18f86:	00b035b3          	snez	a1,a1
   18f8a:	972e                	add	a4,a4,a1
   18f8c:	fc3a                	sd	a4,56(sp)
   18f8e:	7ec2                	ld	t4,48(sp)
   18f90:	7722                	ld	a4,40(sp)
   18f92:	4501                	li	a0,0
   18f94:	4e25                	li	t3,9
   18f96:	bf71                	j	18f32 <_vfiprintf_r+0x9b2>
   18f98:	1090                	addi	a2,sp,96
   18f9a:	85ce                	mv	a1,s3
   18f9c:	8556                	mv	a0,s5
   18f9e:	f442                	sd	a6,40(sp)
   18fa0:	f07a                	sd	t5,32(sp)
   18fa2:	e416                	sd	t0,8(sp)
   18fa4:	d2aff0ef          	jal	ra,184ce <__sprint_r.part.0>
   18fa8:	840519e3          	bnez	a0,187fa <_vfiprintf_r+0x27a>
   18fac:	5626                	lw	a2,104(sp)
   18fae:	77c6                	ld	a5,112(sp)
   18fb0:	7822                	ld	a6,40(sp)
   18fb2:	7f02                	ld	t5,32(sp)
   18fb4:	62a2                	ld	t0,8(sp)
   18fb6:	8722                	mv	a4,s0
   18fb8:	0016051b          	addiw	a0,a2,1
   18fbc:	f6eff06f          	j	1872a <_vfiprintf_r+0x1aa>
   18fc0:	0013851b          	addiw	a0,t2,1
   18fc4:	01058693          	addi	a3,a1,16
   18fc8:	861e                	mv	a2,t2
   18fca:	872e                	mv	a4,a1
   18fcc:	fcaff06f          	j	18796 <_vfiprintf_r+0x216>
   18fd0:	000dc783          	lbu	a5,0(s11)
   18fd4:	ec8ff06f          	j	1869c <_vfiprintf_r+0x11c>
   18fd8:	08bc                	addi	a5,sp,88
   18fda:	f1be                	sd	a5,224(sp)
   18fdc:	4789                	li	a5,2
   18fde:	f5be                	sd	a5,232(sp)
   18fe0:	1998                	addi	a4,sp,240
   18fe2:	4605                	li	a2,1
   18fe4:	bb61                	j	18d7c <_vfiprintf_r+0x7fc>
   18fe6:	8c32                	mv	s8,a2
   18fe8:	b35d                	j	18d8e <_vfiprintf_r+0x80e>
   18fea:	86ea                	mv	a3,s10
   18fec:	b4d9                	j	18ab2 <_vfiprintf_r+0x532>
   18fee:	66f5                	lui	a3,0x1d
   18ff0:	88868693          	addi	a3,a3,-1912 # 1c888 <__clzdi2+0x80>
   18ff4:	e836                	sd	a3,16(sp)
   18ff6:	020d7693          	andi	a3,s10,32
   18ffa:	008c0613          	addi	a2,s8,8
   18ffe:	eab1                	bnez	a3,19052 <_vfiprintf_r+0xad2>
   19000:	010d7693          	andi	a3,s10,16
   19004:	e6b9                	bnez	a3,19052 <_vfiprintf_r+0xad2>
   19006:	040d7693          	andi	a3,s10,64
   1900a:	000c2b83          	lw	s7,0(s8)
   1900e:	c6ed                	beqz	a3,190f8 <_vfiprintf_r+0xb78>
   19010:	1bc2                	slli	s7,s7,0x30
   19012:	030bdb93          	srli	s7,s7,0x30
   19016:	001d7693          	andi	a3,s10,1
   1901a:	ce89                	beqz	a3,19034 <_vfiprintf_r+0xab4>
   1901c:	000b8c63          	beqz	s7,19034 <_vfiprintf_r+0xab4>
   19020:	002d6e13          	ori	t3,s10,2
   19024:	03000693          	li	a3,48
   19028:	04d10c23          	sb	a3,88(sp)
   1902c:	04f10ca3          	sb	a5,89(sp)
   19030:	000e0d1b          	sext.w	s10,t3
   19034:	bffd7693          	andi	a3,s10,-1025
   19038:	2681                	sext.w	a3,a3
   1903a:	8c32                	mv	s8,a2
   1903c:	4789                	li	a5,2
   1903e:	b865                	j	188f6 <_vfiprintf_r+0x376>
   19040:	66f5                	lui	a3,0x1d
   19042:	8a068693          	addi	a3,a3,-1888 # 1c8a0 <__clzdi2+0x98>
   19046:	e836                	sd	a3,16(sp)
   19048:	020d7693          	andi	a3,s10,32
   1904c:	008c0613          	addi	a2,s8,8
   19050:	dac5                	beqz	a3,19000 <_vfiprintf_r+0xa80>
   19052:	000c3b83          	ld	s7,0(s8)
   19056:	b7c1                	j	19016 <_vfiprintf_r+0xa96>
   19058:	8566                	mv	a0,s9
   1905a:	e43a                	sd	a4,8(sp)
   1905c:	83bfd0ef          	jal	ra,16896 <strlen>
   19060:	6722                	ld	a4,8(sp)
   19062:	00050a1b          	sext.w	s4,a0
   19066:	4801                	li	a6,0
   19068:	80dff06f          	j	18874 <_vfiprintf_r+0x2f4>
   1906c:	4705                	li	a4,1
   1906e:	87d2                	mv	a5,s4
   19070:	f1e6                	sd	s9,224(sp)
   19072:	f5d2                	sd	s4,232(sp)
   19074:	f8d2                	sd	s4,112(sp)
   19076:	d4ba                	sw	a4,104(sp)
   19078:	1994                	addi	a3,sp,240
   1907a:	f4cff06f          	j	187c6 <_vfiprintf_r+0x246>
   1907e:	4685                	li	a3,1
   19080:	0ed78d63          	beq	a5,a3,1917a <_vfiprintf_r+0xbfa>
   19084:	4689                	li	a3,2
   19086:	b2d78fe3          	beq	a5,a3,18bc4 <_vfiprintf_r+0x644>
   1908a:	86ea                	mv	a3,s10
   1908c:	b219                	j	18992 <_vfiprintf_r+0x412>
   1908e:	200d6e13          	ori	t3,s10,512
   19092:	001dc783          	lbu	a5,1(s11)
   19096:	000e0d1b          	sext.w	s10,t3
   1909a:	0d85                	addi	s11,s11,1
   1909c:	e00ff06f          	j	1869c <_vfiprintf_r+0x11c>
   190a0:	020d6e13          	ori	t3,s10,32
   190a4:	001dc783          	lbu	a5,1(s11)
   190a8:	000e0d1b          	sext.w	s10,t3
   190ac:	0d85                	addi	s11,s11,1
   190ae:	deeff06f          	j	1869c <_vfiprintf_r+0x11c>
   190b2:	4799                	li	a5,6
   190b4:	00080a1b          	sext.w	s4,a6
   190b8:	0507ee63          	bltu	a5,a6,19114 <_vfiprintf_r+0xb94>
   190bc:	6375                	lui	t1,0x1d
   190be:	8bd2                	mv	s7,s4
   190c0:	8b830c93          	addi	s9,t1,-1864 # 1c8b8 <__clzdi2+0xb0>
   190c4:	e40ff06f          	j	18704 <_vfiprintf_r+0x184>
   190c8:	200d7793          	andi	a5,s10,512
   190cc:	c3c1                	beqz	a5,1914c <_vfiprintf_r+0xbcc>
   190ce:	000c0b83          	lb	s7,0(s8)
   190d2:	87de                	mv	a5,s7
   190d4:	f7aff06f          	j	1884e <_vfiprintf_r+0x2ce>
   190d8:	200d7793          	andi	a5,s10,512
   190dc:	c3bd                	beqz	a5,19142 <_vfiprintf_r+0xbc2>
   190de:	0ffbfb93          	andi	s7,s7,255
   190e2:	80bff06f          	j	188ec <_vfiprintf_r+0x36c>
   190e6:	2006f793          	andi	a5,a3,512
   190ea:	c7a9                	beqz	a5,19134 <_vfiprintf_r+0xbb4>
   190ec:	0ffbfb93          	andi	s7,s7,255
   190f0:	8c32                	mv	s8,a2
   190f2:	4785                	li	a5,1
   190f4:	803ff06f          	j	188f6 <_vfiprintf_r+0x376>
   190f8:	200d7693          	andi	a3,s10,512
   190fc:	cea9                	beqz	a3,19156 <_vfiprintf_r+0xbd6>
   190fe:	0ffbfb93          	andi	s7,s7,255
   19102:	bf11                	j	19016 <_vfiprintf_r+0xa96>
   19104:	8636                	mv	a2,a3
   19106:	b6f5                	j	18cf2 <_vfiprintf_r+0x772>
   19108:	1994                	addi	a3,sp,240
   1910a:	4505                	li	a0,1
   1910c:	4601                	li	a2,0
   1910e:	8722                	mv	a4,s0
   19110:	e86ff06f          	j	18796 <_vfiprintf_r+0x216>
   19114:	4a19                	li	s4,6
   19116:	b75d                	j	190bc <_vfiprintf_r+0xb3c>
   19118:	05710793          	addi	a5,sp,87
   1911c:	f1be                	sd	a5,224(sp)
   1911e:	4785                	li	a5,1
   19120:	f5be                	sd	a5,232(sp)
   19122:	1994                	addi	a3,sp,240
   19124:	4505                	li	a0,1
   19126:	e24ff06f          	j	1874a <_vfiprintf_r+0x1ca>
   1912a:	6782                	ld	a5,0(sp)
   1912c:	00f69023          	sh	a5,0(a3)
   19130:	cf0ff06f          	j	18620 <_vfiprintf_r+0xa0>
   19134:	1b82                	slli	s7,s7,0x20
   19136:	020bdb93          	srli	s7,s7,0x20
   1913a:	8c32                	mv	s8,a2
   1913c:	4785                	li	a5,1
   1913e:	fb8ff06f          	j	188f6 <_vfiprintf_r+0x376>
   19142:	1b82                	slli	s7,s7,0x20
   19144:	020bdb93          	srli	s7,s7,0x20
   19148:	fa4ff06f          	j	188ec <_vfiprintf_r+0x36c>
   1914c:	000c2b83          	lw	s7,0(s8)
   19150:	87de                	mv	a5,s7
   19152:	efcff06f          	j	1884e <_vfiprintf_r+0x2ce>
   19156:	1b82                	slli	s7,s7,0x20
   19158:	020bdb93          	srli	s7,s7,0x20
   1915c:	bd6d                	j	19016 <_vfiprintf_r+0xa96>
   1915e:	1090                	addi	a2,sp,96
   19160:	85ce                	mv	a1,s3
   19162:	8556                	mv	a0,s5
   19164:	b6aff0ef          	jal	ra,184ce <__sprint_r.part.0>
   19168:	e92ff06f          	j	187fa <_vfiprintf_r+0x27a>
   1916c:	8a42                	mv	s4,a6
   1916e:	4801                	li	a6,0
   19170:	f04ff06f          	j	18874 <_vfiprintf_r+0x2f4>
   19174:	0016071b          	addiw	a4,a2,1
   19178:	bb39                	j	18e96 <_vfiprintf_r+0x916>
   1917a:	86ea                	mv	a3,s10
   1917c:	b921                	j	18d94 <_vfiprintf_r+0x814>
   1917e:	57fd                	li	a5,-1
   19180:	e03e                	sd	a5,0(sp)
   19182:	e84ff06f          	j	18806 <_vfiprintf_r+0x286>
   19186:	85b6                	mv	a1,a3
   19188:	83aa                	mv	t2,a0
   1918a:	b4f9                	j	18c58 <_vfiprintf_r+0x6d8>
   1918c:	c29c                	sw	a5,0(a3)
   1918e:	c92ff06f          	j	18620 <_vfiprintf_r+0xa0>
   19192:	000c2783          	lw	a5,0(s8)
   19196:	0c21                	addi	s8,s8,8
   19198:	0007881b          	sext.w	a6,a5
   1919c:	0007d363          	bgez	a5,191a2 <_vfiprintf_r+0xc22>
   191a0:	587d                	li	a6,-1
   191a2:	001dc783          	lbu	a5,1(s11)
   191a6:	8db6                	mv	s11,a3
   191a8:	cf4ff06f          	j	1869c <_vfiprintf_r+0x11c>

00000000000191ac <vfiprintf>:
   191ac:	87aa                	mv	a5,a0
   191ae:	7501b503          	ld	a0,1872(gp) # 1f868 <_impure_ptr>
   191b2:	86b2                	mv	a3,a2
   191b4:	862e                	mv	a2,a1
   191b6:	85be                	mv	a1,a5
   191b8:	bc8ff06f          	j	18580 <_vfiprintf_r>

00000000000191bc <__sbprintf>:
   191bc:	0105d783          	lhu	a5,16(a1)
   191c0:	0ac5ae03          	lw	t3,172(a1)
   191c4:	0125d303          	lhu	t1,18(a1)
   191c8:	0305b883          	ld	a7,48(a1)
   191cc:	0405b803          	ld	a6,64(a1)
   191d0:	b3010113          	addi	sp,sp,-1232
   191d4:	9bf5                	andi	a5,a5,-3
   191d6:	40000713          	li	a4,1024
   191da:	4c813023          	sd	s0,1216(sp)
   191de:	00f11823          	sh	a5,16(sp)
   191e2:	842e                	mv	s0,a1
   191e4:	191c                	addi	a5,sp,176
   191e6:	858a                	mv	a1,sp
   191e8:	4a913c23          	sd	s1,1208(sp)
   191ec:	4b213823          	sd	s2,1200(sp)
   191f0:	4c113423          	sd	ra,1224(sp)
   191f4:	892a                	mv	s2,a0
   191f6:	d772                	sw	t3,172(sp)
   191f8:	00611923          	sh	t1,18(sp)
   191fc:	f846                	sd	a7,48(sp)
   191fe:	e0c2                	sd	a6,64(sp)
   19200:	e03e                	sd	a5,0(sp)
   19202:	ec3e                	sd	a5,24(sp)
   19204:	c63a                	sw	a4,12(sp)
   19206:	d03a                	sw	a4,32(sp)
   19208:	d402                	sw	zero,40(sp)
   1920a:	b76ff0ef          	jal	ra,18580 <_vfiprintf_r>
   1920e:	84aa                	mv	s1,a0
   19210:	02055963          	bgez	a0,19242 <__sbprintf+0x86>
   19214:	01015783          	lhu	a5,16(sp)
   19218:	0407f793          	andi	a5,a5,64
   1921c:	c799                	beqz	a5,1922a <__sbprintf+0x6e>
   1921e:	01045783          	lhu	a5,16(s0)
   19222:	0407e793          	ori	a5,a5,64
   19226:	00f41823          	sh	a5,16(s0)
   1922a:	4c813083          	ld	ra,1224(sp)
   1922e:	4c013403          	ld	s0,1216(sp)
   19232:	4b013903          	ld	s2,1200(sp)
   19236:	8526                	mv	a0,s1
   19238:	4b813483          	ld	s1,1208(sp)
   1923c:	4d010113          	addi	sp,sp,1232
   19240:	8082                	ret
   19242:	858a                	mv	a1,sp
   19244:	854a                	mv	a0,s2
   19246:	a45f90ef          	jal	ra,12c8a <_fflush_r>
   1924a:	d569                	beqz	a0,19214 <__sbprintf+0x58>
   1924c:	54fd                	li	s1,-1
   1924e:	b7d9                	j	19214 <__sbprintf+0x58>

0000000000019250 <_wctomb_r>:
   19250:	6481b783          	ld	a5,1608(gp) # 1f760 <__global_locale+0xe0>
   19254:	8782                	jr	a5

0000000000019256 <__ascii_wctomb>:
   19256:	0006079b          	sext.w	a5,a2
   1925a:	cd91                	beqz	a1,19276 <__ascii_wctomb+0x20>
   1925c:	0ff00713          	li	a4,255
   19260:	00f76663          	bltu	a4,a5,1926c <__ascii_wctomb+0x16>
   19264:	00c58023          	sb	a2,0(a1)
   19268:	4505                	li	a0,1
   1926a:	8082                	ret
   1926c:	08a00793          	li	a5,138
   19270:	c11c                	sw	a5,0(a0)
   19272:	557d                	li	a0,-1
   19274:	8082                	ret
   19276:	4501                	li	a0,0
   19278:	8082                	ret

000000000001927a <_write_r>:
   1927a:	1101                	addi	sp,sp,-32
   1927c:	872e                	mv	a4,a1
   1927e:	e822                	sd	s0,16(sp)
   19280:	e426                	sd	s1,8(sp)
   19282:	85b2                	mv	a1,a2
   19284:	842a                	mv	s0,a0
   19286:	8636                	mv	a2,a3
   19288:	853a                	mv	a0,a4
   1928a:	ec06                	sd	ra,24(sp)
   1928c:	7801a823          	sw	zero,1936(gp) # 1f8a8 <errno>
   19290:	0fe020ef          	jal	ra,1b38e <_write>
   19294:	57fd                	li	a5,-1
   19296:	00f50763          	beq	a0,a5,192a4 <_write_r+0x2a>
   1929a:	60e2                	ld	ra,24(sp)
   1929c:	6442                	ld	s0,16(sp)
   1929e:	64a2                	ld	s1,8(sp)
   192a0:	6105                	addi	sp,sp,32
   192a2:	8082                	ret
   192a4:	7901a783          	lw	a5,1936(gp) # 1f8a8 <errno>
   192a8:	dbed                	beqz	a5,1929a <_write_r+0x20>
   192aa:	60e2                	ld	ra,24(sp)
   192ac:	c01c                	sw	a5,0(s0)
   192ae:	6442                	ld	s0,16(sp)
   192b0:	64a2                	ld	s1,8(sp)
   192b2:	6105                	addi	sp,sp,32
   192b4:	8082                	ret

00000000000192b6 <__assert_func>:
   192b6:	7501b703          	ld	a4,1872(gp) # 1f868 <_impure_ptr>
   192ba:	1141                	addi	sp,sp,-16
   192bc:	87b6                	mv	a5,a3
   192be:	8832                	mv	a6,a2
   192c0:	e406                	sd	ra,8(sp)
   192c2:	01873883          	ld	a7,24(a4)
   192c6:	86aa                	mv	a3,a0
   192c8:	872e                	mv	a4,a1
   192ca:	863e                	mv	a2,a5
   192cc:	00080d63          	beqz	a6,192e6 <__assert_func+0x30>
   192d0:	67f5                	lui	a5,0x1d
   192d2:	27878793          	addi	a5,a5,632 # 1d278 <zeroes.0+0x10>
   192d6:	65f5                	lui	a1,0x1d
   192d8:	28858593          	addi	a1,a1,648 # 1d288 <zeroes.0+0x20>
   192dc:	8546                	mv	a0,a7
   192de:	234000ef          	jal	ra,19512 <fiprintf>
   192e2:	321010ef          	jal	ra,1ae02 <abort>
   192e6:	6875                	lui	a6,0x1d
   192e8:	89880793          	addi	a5,a6,-1896 # 1c898 <__clzdi2+0x90>
   192ec:	89880813          	addi	a6,a6,-1896
   192f0:	b7dd                	j	192d6 <__assert_func+0x20>

00000000000192f2 <__assert>:
   192f2:	1141                	addi	sp,sp,-16
   192f4:	86b2                	mv	a3,a2
   192f6:	4601                	li	a2,0
   192f8:	e406                	sd	ra,8(sp)
   192fa:	fbdff0ef          	jal	ra,192b6 <__assert_func>

00000000000192fe <atexit>:
   192fe:	85aa                	mv	a1,a0
   19300:	4681                	li	a3,0
   19302:	4601                	li	a2,0
   19304:	4501                	li	a0,0
   19306:	30d0106f          	j	1ae12 <__register_exitproc>

000000000001930a <_calloc_r>:
   1930a:	02c5b7b3          	mulhu	a5,a1,a2
   1930e:	1141                	addi	sp,sp,-16
   19310:	e406                	sd	ra,8(sp)
   19312:	e022                	sd	s0,0(sp)
   19314:	02c585b3          	mul	a1,a1,a2
   19318:	efb5                	bnez	a5,19394 <_calloc_r+0x8a>
   1931a:	ab0f70ef          	jal	ra,105ca <_malloc_r>
   1931e:	842a                	mv	s0,a0
   19320:	c521                	beqz	a0,19368 <_calloc_r+0x5e>
   19322:	ff853603          	ld	a2,-8(a0)
   19326:	04800713          	li	a4,72
   1932a:	9a71                	andi	a2,a2,-4
   1932c:	1661                	addi	a2,a2,-8
   1932e:	04c76263          	bltu	a4,a2,19372 <_calloc_r+0x68>
   19332:	02700693          	li	a3,39
   19336:	87aa                	mv	a5,a0
   19338:	02c6f263          	bgeu	a3,a2,1935c <_calloc_r+0x52>
   1933c:	00053023          	sd	zero,0(a0)
   19340:	00053423          	sd	zero,8(a0)
   19344:	03700793          	li	a5,55
   19348:	02c7fd63          	bgeu	a5,a2,19382 <_calloc_r+0x78>
   1934c:	00053823          	sd	zero,16(a0)
   19350:	00053c23          	sd	zero,24(a0)
   19354:	02050793          	addi	a5,a0,32
   19358:	04e60863          	beq	a2,a4,193a8 <_calloc_r+0x9e>
   1935c:	0007b023          	sd	zero,0(a5)
   19360:	0007b423          	sd	zero,8(a5)
   19364:	0007b823          	sd	zero,16(a5)
   19368:	60a2                	ld	ra,8(sp)
   1936a:	8522                	mv	a0,s0
   1936c:	6402                	ld	s0,0(sp)
   1936e:	0141                	addi	sp,sp,16
   19370:	8082                	ret
   19372:	4581                	li	a1,0
   19374:	879f70ef          	jal	ra,10bec <memset>
   19378:	60a2                	ld	ra,8(sp)
   1937a:	8522                	mv	a0,s0
   1937c:	6402                	ld	s0,0(sp)
   1937e:	0141                	addi	sp,sp,16
   19380:	8082                	ret
   19382:	01050793          	addi	a5,a0,16
   19386:	0007b023          	sd	zero,0(a5)
   1938a:	0007b423          	sd	zero,8(a5)
   1938e:	0007b823          	sd	zero,16(a5)
   19392:	bfd9                	j	19368 <_calloc_r+0x5e>
   19394:	058000ef          	jal	ra,193ec <__errno>
   19398:	4401                	li	s0,0
   1939a:	47b1                	li	a5,12
   1939c:	60a2                	ld	ra,8(sp)
   1939e:	c11c                	sw	a5,0(a0)
   193a0:	8522                	mv	a0,s0
   193a2:	6402                	ld	s0,0(sp)
   193a4:	0141                	addi	sp,sp,16
   193a6:	8082                	ret
   193a8:	02053023          	sd	zero,32(a0)
   193ac:	03050793          	addi	a5,a0,48
   193b0:	02053423          	sd	zero,40(a0)
   193b4:	b765                	j	1935c <_calloc_r+0x52>

00000000000193b6 <_close_r>:
   193b6:	1101                	addi	sp,sp,-32
   193b8:	e822                	sd	s0,16(sp)
   193ba:	e426                	sd	s1,8(sp)
   193bc:	842a                	mv	s0,a0
   193be:	852e                	mv	a0,a1
   193c0:	ec06                	sd	ra,24(sp)
   193c2:	7801a823          	sw	zero,1936(gp) # 1f8a8 <errno>
   193c6:	651010ef          	jal	ra,1b216 <_close>
   193ca:	57fd                	li	a5,-1
   193cc:	00f50763          	beq	a0,a5,193da <_close_r+0x24>
   193d0:	60e2                	ld	ra,24(sp)
   193d2:	6442                	ld	s0,16(sp)
   193d4:	64a2                	ld	s1,8(sp)
   193d6:	6105                	addi	sp,sp,32
   193d8:	8082                	ret
   193da:	7901a783          	lw	a5,1936(gp) # 1f8a8 <errno>
   193de:	dbed                	beqz	a5,193d0 <_close_r+0x1a>
   193e0:	60e2                	ld	ra,24(sp)
   193e2:	c01c                	sw	a5,0(s0)
   193e4:	6442                	ld	s0,16(sp)
   193e6:	64a2                	ld	s1,8(sp)
   193e8:	6105                	addi	sp,sp,32
   193ea:	8082                	ret

00000000000193ec <__errno>:
   193ec:	7501b503          	ld	a0,1872(gp) # 1f868 <_impure_ptr>
   193f0:	8082                	ret

00000000000193f2 <_fclose_r.part.0>:
   193f2:	1101                	addi	sp,sp,-32
   193f4:	e822                	sd	s0,16(sp)
   193f6:	e426                	sd	s1,8(sp)
   193f8:	e04a                	sd	s2,0(sp)
   193fa:	842e                	mv	s0,a1
   193fc:	ec06                	sd	ra,24(sp)
   193fe:	84aa                	mv	s1,a0
   19400:	ef8f90ef          	jal	ra,12af8 <__sflush_r>
   19404:	683c                	ld	a5,80(s0)
   19406:	892a                	mv	s2,a0
   19408:	c791                	beqz	a5,19414 <_fclose_r.part.0+0x22>
   1940a:	780c                	ld	a1,48(s0)
   1940c:	8526                	mv	a0,s1
   1940e:	9782                	jalr	a5
   19410:	04054663          	bltz	a0,1945c <_fclose_r.part.0+0x6a>
   19414:	01045783          	lhu	a5,16(s0)
   19418:	0807f793          	andi	a5,a5,128
   1941c:	e7b1                	bnez	a5,19468 <_fclose_r.part.0+0x76>
   1941e:	6c2c                	ld	a1,88(s0)
   19420:	c991                	beqz	a1,19434 <_fclose_r.part.0+0x42>
   19422:	07440793          	addi	a5,s0,116
   19426:	00f58563          	beq	a1,a5,19430 <_fclose_r.part.0+0x3e>
   1942a:	8526                	mv	a0,s1
   1942c:	c6df90ef          	jal	ra,13098 <_free_r>
   19430:	04043c23          	sd	zero,88(s0)
   19434:	7c2c                	ld	a1,120(s0)
   19436:	c591                	beqz	a1,19442 <_fclose_r.part.0+0x50>
   19438:	8526                	mv	a0,s1
   1943a:	c5ff90ef          	jal	ra,13098 <_free_r>
   1943e:	06043c23          	sd	zero,120(s0)
   19442:	b2df90ef          	jal	ra,12f6e <__sfp_lock_acquire>
   19446:	00041823          	sh	zero,16(s0)
   1944a:	b27f90ef          	jal	ra,12f70 <__sfp_lock_release>
   1944e:	60e2                	ld	ra,24(sp)
   19450:	6442                	ld	s0,16(sp)
   19452:	64a2                	ld	s1,8(sp)
   19454:	854a                	mv	a0,s2
   19456:	6902                	ld	s2,0(sp)
   19458:	6105                	addi	sp,sp,32
   1945a:	8082                	ret
   1945c:	01045783          	lhu	a5,16(s0)
   19460:	597d                	li	s2,-1
   19462:	0807f793          	andi	a5,a5,128
   19466:	dfc5                	beqz	a5,1941e <_fclose_r.part.0+0x2c>
   19468:	6c0c                	ld	a1,24(s0)
   1946a:	8526                	mv	a0,s1
   1946c:	c2df90ef          	jal	ra,13098 <_free_r>
   19470:	b77d                	j	1941e <_fclose_r.part.0+0x2c>

0000000000019472 <_fclose_r>:
   19472:	cd8d                	beqz	a1,194ac <_fclose_r+0x3a>
   19474:	1101                	addi	sp,sp,-32
   19476:	e822                	sd	s0,16(sp)
   19478:	ec06                	sd	ra,24(sp)
   1947a:	842a                	mv	s0,a0
   1947c:	c119                	beqz	a0,19482 <_fclose_r+0x10>
   1947e:	493c                	lw	a5,80(a0)
   19480:	cf91                	beqz	a5,1949c <_fclose_r+0x2a>
   19482:	01059783          	lh	a5,16(a1)
   19486:	e791                	bnez	a5,19492 <_fclose_r+0x20>
   19488:	60e2                	ld	ra,24(sp)
   1948a:	6442                	ld	s0,16(sp)
   1948c:	4501                	li	a0,0
   1948e:	6105                	addi	sp,sp,32
   19490:	8082                	ret
   19492:	8522                	mv	a0,s0
   19494:	6442                	ld	s0,16(sp)
   19496:	60e2                	ld	ra,24(sp)
   19498:	6105                	addi	sp,sp,32
   1949a:	bfa1                	j	193f2 <_fclose_r.part.0>
   1949c:	e42e                	sd	a1,8(sp)
   1949e:	ac9f90ef          	jal	ra,12f66 <__sinit>
   194a2:	65a2                	ld	a1,8(sp)
   194a4:	01059783          	lh	a5,16(a1)
   194a8:	d3e5                	beqz	a5,19488 <_fclose_r+0x16>
   194aa:	b7e5                	j	19492 <_fclose_r+0x20>
   194ac:	4501                	li	a0,0
   194ae:	8082                	ret

00000000000194b0 <fclose>:
   194b0:	cd1d                	beqz	a0,194ee <fclose+0x3e>
   194b2:	1101                	addi	sp,sp,-32
   194b4:	e822                	sd	s0,16(sp)
   194b6:	842a                	mv	s0,a0
   194b8:	7501b503          	ld	a0,1872(gp) # 1f868 <_impure_ptr>
   194bc:	ec06                	sd	ra,24(sp)
   194be:	c119                	beqz	a0,194c4 <fclose+0x14>
   194c0:	493c                	lw	a5,80(a0)
   194c2:	cf91                	beqz	a5,194de <fclose+0x2e>
   194c4:	01041783          	lh	a5,16(s0)
   194c8:	e791                	bnez	a5,194d4 <fclose+0x24>
   194ca:	60e2                	ld	ra,24(sp)
   194cc:	6442                	ld	s0,16(sp)
   194ce:	4501                	li	a0,0
   194d0:	6105                	addi	sp,sp,32
   194d2:	8082                	ret
   194d4:	85a2                	mv	a1,s0
   194d6:	6442                	ld	s0,16(sp)
   194d8:	60e2                	ld	ra,24(sp)
   194da:	6105                	addi	sp,sp,32
   194dc:	bf19                	j	193f2 <_fclose_r.part.0>
   194de:	e42a                	sd	a0,8(sp)
   194e0:	a87f90ef          	jal	ra,12f66 <__sinit>
   194e4:	01041783          	lh	a5,16(s0)
   194e8:	6522                	ld	a0,8(sp)
   194ea:	d3e5                	beqz	a5,194ca <fclose+0x1a>
   194ec:	b7e5                	j	194d4 <fclose+0x24>
   194ee:	4501                	li	a0,0
   194f0:	8082                	ret

00000000000194f2 <_fiprintf_r>:
   194f2:	715d                	addi	sp,sp,-80
   194f4:	02810313          	addi	t1,sp,40
   194f8:	f436                	sd	a3,40(sp)
   194fa:	869a                	mv	a3,t1
   194fc:	ec06                	sd	ra,24(sp)
   194fe:	f83a                	sd	a4,48(sp)
   19500:	fc3e                	sd	a5,56(sp)
   19502:	e0c2                	sd	a6,64(sp)
   19504:	e4c6                	sd	a7,72(sp)
   19506:	e41a                	sd	t1,8(sp)
   19508:	878ff0ef          	jal	ra,18580 <_vfiprintf_r>
   1950c:	60e2                	ld	ra,24(sp)
   1950e:	6161                	addi	sp,sp,80
   19510:	8082                	ret

0000000000019512 <fiprintf>:
   19512:	8e2a                	mv	t3,a0
   19514:	715d                	addi	sp,sp,-80
   19516:	7501b503          	ld	a0,1872(gp) # 1f868 <_impure_ptr>
   1951a:	02010313          	addi	t1,sp,32
   1951e:	f032                	sd	a2,32(sp)
   19520:	f436                	sd	a3,40(sp)
   19522:	862e                	mv	a2,a1
   19524:	869a                	mv	a3,t1
   19526:	85f2                	mv	a1,t3
   19528:	ec06                	sd	ra,24(sp)
   1952a:	f83a                	sd	a4,48(sp)
   1952c:	fc3e                	sd	a5,56(sp)
   1952e:	e0c2                	sd	a6,64(sp)
   19530:	e4c6                	sd	a7,72(sp)
   19532:	e41a                	sd	t1,8(sp)
   19534:	84cff0ef          	jal	ra,18580 <_vfiprintf_r>
   19538:	60e2                	ld	ra,24(sp)
   1953a:	6161                	addi	sp,sp,80
   1953c:	8082                	ret

000000000001953e <__fputwc>:
   1953e:	715d                	addi	sp,sp,-80
   19540:	e0a2                	sd	s0,64(sp)
   19542:	f44e                	sd	s3,40(sp)
   19544:	e85a                	sd	s6,16(sp)
   19546:	e486                	sd	ra,72(sp)
   19548:	fc26                	sd	s1,56(sp)
   1954a:	f84a                	sd	s2,48(sp)
   1954c:	f052                	sd	s4,32(sp)
   1954e:	ec56                	sd	s5,24(sp)
   19550:	8b2a                	mv	s6,a0
   19552:	89ae                	mv	s3,a1
   19554:	8432                	mv	s0,a2
   19556:	f79fb0ef          	jal	ra,154ce <__locale_mb_cur_max>
   1955a:	4785                	li	a5,1
   1955c:	00f51e63          	bne	a0,a5,19578 <__fputwc+0x3a>
   19560:	fff9879b          	addiw	a5,s3,-1
   19564:	0fe00713          	li	a4,254
   19568:	00f76863          	bltu	a4,a5,19578 <__fputwc+0x3a>
   1956c:	0ff9f713          	andi	a4,s3,255
   19570:	00e10423          	sb	a4,8(sp)
   19574:	4905                	li	s2,1
   19576:	a839                	j	19594 <__fputwc+0x56>
   19578:	0a440693          	addi	a3,s0,164
   1957c:	864e                	mv	a2,s3
   1957e:	002c                	addi	a1,sp,8
   19580:	855a                	mv	a0,s6
   19582:	7ea010ef          	jal	ra,1ad6c <_wcrtomb_r>
   19586:	57fd                	li	a5,-1
   19588:	892a                	mv	s2,a0
   1958a:	06f50563          	beq	a0,a5,195f4 <__fputwc+0xb6>
   1958e:	c125                	beqz	a0,195ee <__fputwc+0xb0>
   19590:	00814703          	lbu	a4,8(sp)
   19594:	4481                	li	s1,0
   19596:	5a7d                	li	s4,-1
   19598:	4aa9                	li	s5,10
   1959a:	a831                	j	195b6 <__fputwc+0x78>
   1959c:	601c                	ld	a5,0(s0)
   1959e:	00178693          	addi	a3,a5,1
   195a2:	e014                	sd	a3,0(s0)
   195a4:	00e78023          	sb	a4,0(a5)
   195a8:	0485                	addi	s1,s1,1
   195aa:	003c                	addi	a5,sp,8
   195ac:	97a6                	add	a5,a5,s1
   195ae:	0524f063          	bgeu	s1,s2,195ee <__fputwc+0xb0>
   195b2:	0007c703          	lbu	a4,0(a5)
   195b6:	445c                	lw	a5,12(s0)
   195b8:	37fd                	addiw	a5,a5,-1
   195ba:	c45c                	sw	a5,12(s0)
   195bc:	fe07d0e3          	bgez	a5,1959c <__fputwc+0x5e>
   195c0:	5414                	lw	a3,40(s0)
   195c2:	85ba                	mv	a1,a4
   195c4:	8622                	mv	a2,s0
   195c6:	855a                	mv	a0,s6
   195c8:	00d7c463          	blt	a5,a3,195d0 <__fputwc+0x92>
   195cc:	fd5718e3          	bne	a4,s5,1959c <__fputwc+0x5e>
   195d0:	698010ef          	jal	ra,1ac68 <__swbuf_r>
   195d4:	fd451ae3          	bne	a0,s4,195a8 <__fputwc+0x6a>
   195d8:	557d                	li	a0,-1
   195da:	60a6                	ld	ra,72(sp)
   195dc:	6406                	ld	s0,64(sp)
   195de:	74e2                	ld	s1,56(sp)
   195e0:	7942                	ld	s2,48(sp)
   195e2:	79a2                	ld	s3,40(sp)
   195e4:	7a02                	ld	s4,32(sp)
   195e6:	6ae2                	ld	s5,24(sp)
   195e8:	6b42                	ld	s6,16(sp)
   195ea:	6161                	addi	sp,sp,80
   195ec:	8082                	ret
   195ee:	0009851b          	sext.w	a0,s3
   195f2:	b7e5                	j	195da <__fputwc+0x9c>
   195f4:	01045783          	lhu	a5,16(s0)
   195f8:	557d                	li	a0,-1
   195fa:	0407e793          	ori	a5,a5,64
   195fe:	00f41823          	sh	a5,16(s0)
   19602:	bfe1                	j	195da <__fputwc+0x9c>

0000000000019604 <_fputwc_r>:
   19604:	01061783          	lh	a5,16(a2)
   19608:	03279713          	slli	a4,a5,0x32
   1960c:	00074c63          	bltz	a4,19624 <_fputwc_r+0x20>
   19610:	0ac62703          	lw	a4,172(a2)
   19614:	6689                	lui	a3,0x2
   19616:	8fd5                	or	a5,a5,a3
   19618:	6689                	lui	a3,0x2
   1961a:	8f55                	or	a4,a4,a3
   1961c:	00f61823          	sh	a5,16(a2)
   19620:	0ae62623          	sw	a4,172(a2)
   19624:	bf29                	j	1953e <__fputwc>

0000000000019626 <fputwc>:
   19626:	1101                	addi	sp,sp,-32
   19628:	e822                	sd	s0,16(sp)
   1962a:	7501b403          	ld	s0,1872(gp) # 1f868 <_impure_ptr>
   1962e:	ec06                	sd	ra,24(sp)
   19630:	862e                	mv	a2,a1
   19632:	85aa                	mv	a1,a0
   19634:	c019                	beqz	s0,1963a <fputwc+0x14>
   19636:	483c                	lw	a5,80(s0)
   19638:	c795                	beqz	a5,19664 <fputwc+0x3e>
   1963a:	01061783          	lh	a5,16(a2)
   1963e:	03279713          	slli	a4,a5,0x32
   19642:	00074c63          	bltz	a4,1965a <fputwc+0x34>
   19646:	0ac62703          	lw	a4,172(a2)
   1964a:	6689                	lui	a3,0x2
   1964c:	8fd5                	or	a5,a5,a3
   1964e:	6689                	lui	a3,0x2
   19650:	8f55                	or	a4,a4,a3
   19652:	00f61823          	sh	a5,16(a2)
   19656:	0ae62623          	sw	a4,172(a2)
   1965a:	8522                	mv	a0,s0
   1965c:	6442                	ld	s0,16(sp)
   1965e:	60e2                	ld	ra,24(sp)
   19660:	6105                	addi	sp,sp,32
   19662:	bdf1                	j	1953e <__fputwc>
   19664:	e02a                	sd	a0,0(sp)
   19666:	8522                	mv	a0,s0
   19668:	e432                	sd	a2,8(sp)
   1966a:	8fdf90ef          	jal	ra,12f66 <__sinit>
   1966e:	6622                	ld	a2,8(sp)
   19670:	6582                	ld	a1,0(sp)
   19672:	b7e1                	j	1963a <fputwc+0x14>

0000000000019674 <_fstat_r>:
   19674:	1101                	addi	sp,sp,-32
   19676:	872e                	mv	a4,a1
   19678:	e822                	sd	s0,16(sp)
   1967a:	e426                	sd	s1,8(sp)
   1967c:	842a                	mv	s0,a0
   1967e:	85b2                	mv	a1,a2
   19680:	853a                	mv	a0,a4
   19682:	ec06                	sd	ra,24(sp)
   19684:	7801a823          	sw	zero,1936(gp) # 1f8a8 <errno>
   19688:	3dd010ef          	jal	ra,1b264 <_fstat>
   1968c:	57fd                	li	a5,-1
   1968e:	00f50763          	beq	a0,a5,1969c <_fstat_r+0x28>
   19692:	60e2                	ld	ra,24(sp)
   19694:	6442                	ld	s0,16(sp)
   19696:	64a2                	ld	s1,8(sp)
   19698:	6105                	addi	sp,sp,32
   1969a:	8082                	ret
   1969c:	7901a783          	lw	a5,1936(gp) # 1f8a8 <errno>
   196a0:	dbed                	beqz	a5,19692 <_fstat_r+0x1e>
   196a2:	60e2                	ld	ra,24(sp)
   196a4:	c01c                	sw	a5,0(s0)
   196a6:	6442                	ld	s0,16(sp)
   196a8:	64a2                	ld	s1,8(sp)
   196aa:	6105                	addi	sp,sp,32
   196ac:	8082                	ret

00000000000196ae <__sfvwrite_r>:
   196ae:	6a1c                	ld	a5,16(a2)
   196b0:	1a078c63          	beqz	a5,19868 <__sfvwrite_r+0x1ba>
   196b4:	0105d783          	lhu	a5,16(a1)
   196b8:	711d                	addi	sp,sp,-96
   196ba:	e8a2                	sd	s0,80(sp)
   196bc:	f852                	sd	s4,48(sp)
   196be:	f456                	sd	s5,40(sp)
   196c0:	ec86                	sd	ra,88(sp)
   196c2:	e4a6                	sd	s1,72(sp)
   196c4:	e0ca                	sd	s2,64(sp)
   196c6:	fc4e                	sd	s3,56(sp)
   196c8:	f05a                	sd	s6,32(sp)
   196ca:	ec5e                	sd	s7,24(sp)
   196cc:	e862                	sd	s8,16(sp)
   196ce:	e466                	sd	s9,8(sp)
   196d0:	e06a                	sd	s10,0(sp)
   196d2:	0087f713          	andi	a4,a5,8
   196d6:	8a32                	mv	s4,a2
   196d8:	8aaa                	mv	s5,a0
   196da:	842e                	mv	s0,a1
   196dc:	c325                	beqz	a4,1973c <__sfvwrite_r+0x8e>
   196de:	6d98                	ld	a4,24(a1)
   196e0:	cf31                	beqz	a4,1973c <__sfvwrite_r+0x8e>
   196e2:	0027f713          	andi	a4,a5,2
   196e6:	000a3903          	ld	s2,0(s4)
   196ea:	c735                	beqz	a4,19756 <__sfvwrite_r+0xa8>
   196ec:	603c                	ld	a5,64(s0)
   196ee:	780c                	ld	a1,48(s0)
   196f0:	80000b37          	lui	s6,0x80000
   196f4:	4981                	li	s3,0
   196f6:	4481                	li	s1,0
   196f8:	c00b4b13          	xori	s6,s6,-1024
   196fc:	864e                	mv	a2,s3
   196fe:	8556                	mv	a0,s5
   19700:	c885                	beqz	s1,19730 <__sfvwrite_r+0x82>
   19702:	86a6                	mv	a3,s1
   19704:	009b7363          	bgeu	s6,s1,1970a <__sfvwrite_r+0x5c>
   19708:	86da                	mv	a3,s6
   1970a:	2681                	sext.w	a3,a3
   1970c:	9782                	jalr	a5
   1970e:	14a05563          	blez	a0,19858 <__sfvwrite_r+0x1aa>
   19712:	010a3783          	ld	a5,16(s4)
   19716:	99aa                	add	s3,s3,a0
   19718:	8c89                	sub	s1,s1,a0
   1971a:	40a78533          	sub	a0,a5,a0
   1971e:	00aa3823          	sd	a0,16(s4)
   19722:	10050763          	beqz	a0,19830 <__sfvwrite_r+0x182>
   19726:	603c                	ld	a5,64(s0)
   19728:	780c                	ld	a1,48(s0)
   1972a:	864e                	mv	a2,s3
   1972c:	8556                	mv	a0,s5
   1972e:	f8f1                	bnez	s1,19702 <__sfvwrite_r+0x54>
   19730:	00093983          	ld	s3,0(s2)
   19734:	00893483          	ld	s1,8(s2)
   19738:	0941                	addi	s2,s2,16
   1973a:	b7c9                	j	196fc <__sfvwrite_r+0x4e>
   1973c:	85a2                	mv	a1,s0
   1973e:	8556                	mv	a0,s5
   19740:	9fef90ef          	jal	ra,1293e <__swsetup_r>
   19744:	28051863          	bnez	a0,199d4 <__sfvwrite_r+0x326>
   19748:	01045783          	lhu	a5,16(s0)
   1974c:	000a3903          	ld	s2,0(s4)
   19750:	0027f713          	andi	a4,a5,2
   19754:	ff41                	bnez	a4,196ec <__sfvwrite_r+0x3e>
   19756:	0017f713          	andi	a4,a5,1
   1975a:	eb35                	bnez	a4,197ce <__sfvwrite_r+0x120>
   1975c:	4444                	lw	s1,12(s0)
   1975e:	6008                	ld	a0,0(s0)
   19760:	80000b37          	lui	s6,0x80000
   19764:	ffeb4b93          	xori	s7,s6,-2
   19768:	4c01                	li	s8,0
   1976a:	4981                	li	s3,0
   1976c:	fffb4b13          	not	s6,s6
   19770:	8ca6                	mv	s9,s1
   19772:	04098863          	beqz	s3,197c2 <__sfvwrite_r+0x114>
   19776:	2007f713          	andi	a4,a5,512
   1977a:	12070a63          	beqz	a4,198ae <__sfvwrite_r+0x200>
   1977e:	8d26                	mv	s10,s1
   19780:	1899f763          	bgeu	s3,s1,1990e <__sfvwrite_r+0x260>
   19784:	8cce                	mv	s9,s3
   19786:	8d4e                	mv	s10,s3
   19788:	866a                	mv	a2,s10
   1978a:	85e2                	mv	a1,s8
   1978c:	3a6000ef          	jal	ra,19b32 <memmove>
   19790:	4458                	lw	a4,12(s0)
   19792:	601c                	ld	a5,0(s0)
   19794:	84ce                	mv	s1,s3
   19796:	41970cbb          	subw	s9,a4,s9
   1979a:	97ea                	add	a5,a5,s10
   1979c:	01942623          	sw	s9,12(s0)
   197a0:	e01c                	sd	a5,0(s0)
   197a2:	4981                	li	s3,0
   197a4:	010a3603          	ld	a2,16(s4)
   197a8:	9c26                	add	s8,s8,s1
   197aa:	409604b3          	sub	s1,a2,s1
   197ae:	009a3823          	sd	s1,16(s4)
   197b2:	ccbd                	beqz	s1,19830 <__sfvwrite_r+0x182>
   197b4:	4444                	lw	s1,12(s0)
   197b6:	6008                	ld	a0,0(s0)
   197b8:	01045783          	lhu	a5,16(s0)
   197bc:	8ca6                	mv	s9,s1
   197be:	fa099ce3          	bnez	s3,19776 <__sfvwrite_r+0xc8>
   197c2:	00093c03          	ld	s8,0(s2)
   197c6:	00893983          	ld	s3,8(s2)
   197ca:	0941                	addi	s2,s2,16
   197cc:	b755                	j	19770 <__sfvwrite_r+0xc2>
   197ce:	4981                	li	s3,0
   197d0:	4501                	li	a0,0
   197d2:	4c81                	li	s9,0
   197d4:	4c01                	li	s8,0
   197d6:	080c0b63          	beqz	s8,1986c <__sfvwrite_r+0x1be>
   197da:	c145                	beqz	a0,1987a <__sfvwrite_r+0x1cc>
   197dc:	8bce                	mv	s7,s3
   197de:	013c7363          	bgeu	s8,s3,197e4 <__sfvwrite_r+0x136>
   197e2:	8be2                	mv	s7,s8
   197e4:	6008                	ld	a0,0(s0)
   197e6:	6c1c                	ld	a5,24(s0)
   197e8:	5014                	lw	a3,32(s0)
   197ea:	84de                	mv	s1,s7
   197ec:	00a7f763          	bgeu	a5,a0,197fa <__sfvwrite_r+0x14c>
   197f0:	445c                	lw	a5,12(s0)
   197f2:	00d78b3b          	addw	s6,a5,a3
   197f6:	097b4d63          	blt	s6,s7,19890 <__sfvwrite_r+0x1e2>
   197fa:	18dbc463          	blt	s7,a3,19982 <__sfvwrite_r+0x2d4>
   197fe:	603c                	ld	a5,64(s0)
   19800:	780c                	ld	a1,48(s0)
   19802:	8666                	mv	a2,s9
   19804:	8556                	mv	a0,s5
   19806:	9782                	jalr	a5
   19808:	84aa                	mv	s1,a0
   1980a:	04a05763          	blez	a0,19858 <__sfvwrite_r+0x1aa>
   1980e:	0005079b          	sext.w	a5,a0
   19812:	40f989bb          	subw	s3,s3,a5
   19816:	4505                	li	a0,1
   19818:	02098b63          	beqz	s3,1984e <__sfvwrite_r+0x1a0>
   1981c:	010a3783          	ld	a5,16(s4)
   19820:	9ca6                	add	s9,s9,s1
   19822:	409c0c33          	sub	s8,s8,s1
   19826:	409784b3          	sub	s1,a5,s1
   1982a:	009a3823          	sd	s1,16(s4)
   1982e:	f4c5                	bnez	s1,197d6 <__sfvwrite_r+0x128>
   19830:	4501                	li	a0,0
   19832:	60e6                	ld	ra,88(sp)
   19834:	6446                	ld	s0,80(sp)
   19836:	64a6                	ld	s1,72(sp)
   19838:	6906                	ld	s2,64(sp)
   1983a:	79e2                	ld	s3,56(sp)
   1983c:	7a42                	ld	s4,48(sp)
   1983e:	7aa2                	ld	s5,40(sp)
   19840:	7b02                	ld	s6,32(sp)
   19842:	6be2                	ld	s7,24(sp)
   19844:	6c42                	ld	s8,16(sp)
   19846:	6ca2                	ld	s9,8(sp)
   19848:	6d02                	ld	s10,0(sp)
   1984a:	6125                	addi	sp,sp,96
   1984c:	8082                	ret
   1984e:	85a2                	mv	a1,s0
   19850:	8556                	mv	a0,s5
   19852:	c38f90ef          	jal	ra,12c8a <_fflush_r>
   19856:	d179                	beqz	a0,1981c <__sfvwrite_r+0x16e>
   19858:	01041783          	lh	a5,16(s0)
   1985c:	0407e793          	ori	a5,a5,64
   19860:	00f41823          	sh	a5,16(s0)
   19864:	557d                	li	a0,-1
   19866:	b7f1                	j	19832 <__sfvwrite_r+0x184>
   19868:	4501                	li	a0,0
   1986a:	8082                	ret
   1986c:	00893c03          	ld	s8,8(s2)
   19870:	00093c83          	ld	s9,0(s2)
   19874:	0941                	addi	s2,s2,16
   19876:	fe0c0be3          	beqz	s8,1986c <__sfvwrite_r+0x1be>
   1987a:	8662                	mv	a2,s8
   1987c:	45a9                	li	a1,10
   1987e:	8566                	mv	a0,s9
   19880:	e7dfb0ef          	jal	ra,156fc <memchr>
   19884:	12050f63          	beqz	a0,199c2 <__sfvwrite_r+0x314>
   19888:	0505                	addi	a0,a0,1
   1988a:	419509bb          	subw	s3,a0,s9
   1988e:	b7b9                	j	197dc <__sfvwrite_r+0x12e>
   19890:	85e6                	mv	a1,s9
   19892:	865a                	mv	a2,s6
   19894:	29e000ef          	jal	ra,19b32 <memmove>
   19898:	601c                	ld	a5,0(s0)
   1989a:	85a2                	mv	a1,s0
   1989c:	8556                	mv	a0,s5
   1989e:	97da                	add	a5,a5,s6
   198a0:	e01c                	sd	a5,0(s0)
   198a2:	be8f90ef          	jal	ra,12c8a <_fflush_r>
   198a6:	f94d                	bnez	a0,19858 <__sfvwrite_r+0x1aa>
   198a8:	87da                	mv	a5,s6
   198aa:	84da                	mv	s1,s6
   198ac:	b79d                	j	19812 <__sfvwrite_r+0x164>
   198ae:	6c1c                	ld	a5,24(s0)
   198b0:	02a7e863          	bltu	a5,a0,198e0 <__sfvwrite_r+0x232>
   198b4:	501c                	lw	a5,32(s0)
   198b6:	02f9e563          	bltu	s3,a5,198e0 <__sfvwrite_r+0x232>
   198ba:	86ce                	mv	a3,s3
   198bc:	013bf363          	bgeu	s7,s3,198c2 <__sfvwrite_r+0x214>
   198c0:	86da                	mv	a3,s6
   198c2:	02f6c6bb          	divw	a3,a3,a5
   198c6:	6038                	ld	a4,64(s0)
   198c8:	780c                	ld	a1,48(s0)
   198ca:	8662                	mv	a2,s8
   198cc:	8556                	mv	a0,s5
   198ce:	02f686bb          	mulw	a3,a3,a5
   198d2:	9702                	jalr	a4
   198d4:	84aa                	mv	s1,a0
   198d6:	f8a051e3          	blez	a0,19858 <__sfvwrite_r+0x1aa>
   198da:	409989b3          	sub	s3,s3,s1
   198de:	b5d9                	j	197a4 <__sfvwrite_r+0xf6>
   198e0:	0099f363          	bgeu	s3,s1,198e6 <__sfvwrite_r+0x238>
   198e4:	84ce                	mv	s1,s3
   198e6:	8626                	mv	a2,s1
   198e8:	85e2                	mv	a1,s8
   198ea:	248000ef          	jal	ra,19b32 <memmove>
   198ee:	445c                	lw	a5,12(s0)
   198f0:	6018                	ld	a4,0(s0)
   198f2:	409786bb          	subw	a3,a5,s1
   198f6:	9726                	add	a4,a4,s1
   198f8:	c454                	sw	a3,12(s0)
   198fa:	e018                	sd	a4,0(s0)
   198fc:	fef9                	bnez	a3,198da <__sfvwrite_r+0x22c>
   198fe:	85a2                	mv	a1,s0
   19900:	8556                	mv	a0,s5
   19902:	b88f90ef          	jal	ra,12c8a <_fflush_r>
   19906:	f929                	bnez	a0,19858 <__sfvwrite_r+0x1aa>
   19908:	409989b3          	sub	s3,s3,s1
   1990c:	bd61                	j	197a4 <__sfvwrite_r+0xf6>
   1990e:	4807f713          	andi	a4,a5,1152
   19912:	e6070be3          	beqz	a4,19788 <__sfvwrite_r+0xda>
   19916:	5004                	lw	s1,32(s0)
   19918:	6c0c                	ld	a1,24(s0)
   1991a:	00198713          	addi	a4,s3,1
   1991e:	0014969b          	slliw	a3,s1,0x1
   19922:	9ea5                	addw	a3,a3,s1
   19924:	8d0d                	sub	a0,a0,a1
   19926:	01f6d49b          	srliw	s1,a3,0x1f
   1992a:	00050d1b          	sext.w	s10,a0
   1992e:	9cb5                	addw	s1,s1,a3
   19930:	4014d49b          	sraiw	s1,s1,0x1
   19934:	976a                	add	a4,a4,s10
   19936:	00e4f563          	bgeu	s1,a4,19940 <__sfvwrite_r+0x292>
   1993a:	0019849b          	addiw	s1,s3,1
   1993e:	9ca9                	addw	s1,s1,a0
   19940:	4007f793          	andi	a5,a5,1024
   19944:	cfa9                	beqz	a5,1999e <__sfvwrite_r+0x2f0>
   19946:	85a6                	mv	a1,s1
   19948:	8556                	mv	a0,s5
   1994a:	c81f60ef          	jal	ra,105ca <_malloc_r>
   1994e:	8caa                	mv	s9,a0
   19950:	cd25                	beqz	a0,199c8 <__sfvwrite_r+0x31a>
   19952:	6c0c                	ld	a1,24(s0)
   19954:	866a                	mv	a2,s10
   19956:	0f4000ef          	jal	ra,19a4a <memcpy>
   1995a:	01045783          	lhu	a5,16(s0)
   1995e:	b7f7f793          	andi	a5,a5,-1153
   19962:	0807e793          	ori	a5,a5,128
   19966:	00f41823          	sh	a5,16(s0)
   1996a:	01ac8533          	add	a0,s9,s10
   1996e:	41a487bb          	subw	a5,s1,s10
   19972:	01943c23          	sd	s9,24(s0)
   19976:	e008                	sd	a0,0(s0)
   19978:	d004                	sw	s1,32(s0)
   1997a:	8cce                	mv	s9,s3
   1997c:	c45c                	sw	a5,12(s0)
   1997e:	8d4e                	mv	s10,s3
   19980:	b521                	j	19788 <__sfvwrite_r+0xda>
   19982:	865e                	mv	a2,s7
   19984:	85e6                	mv	a1,s9
   19986:	1ac000ef          	jal	ra,19b32 <memmove>
   1998a:	4454                	lw	a3,12(s0)
   1998c:	6018                	ld	a4,0(s0)
   1998e:	000b879b          	sext.w	a5,s7
   19992:	417686bb          	subw	a3,a3,s7
   19996:	975e                	add	a4,a4,s7
   19998:	c454                	sw	a3,12(s0)
   1999a:	e018                	sd	a4,0(s0)
   1999c:	bd9d                	j	19812 <__sfvwrite_r+0x164>
   1999e:	8626                	mv	a2,s1
   199a0:	8556                	mv	a0,s5
   199a2:	2a2000ef          	jal	ra,19c44 <_realloc_r>
   199a6:	8caa                	mv	s9,a0
   199a8:	f169                	bnez	a0,1996a <__sfvwrite_r+0x2bc>
   199aa:	6c0c                	ld	a1,24(s0)
   199ac:	8556                	mv	a0,s5
   199ae:	eeaf90ef          	jal	ra,13098 <_free_r>
   199b2:	01041783          	lh	a5,16(s0)
   199b6:	4731                	li	a4,12
   199b8:	00eaa023          	sw	a4,0(s5)
   199bc:	f7f7f793          	andi	a5,a5,-129
   199c0:	bd71                	j	1985c <__sfvwrite_r+0x1ae>
   199c2:	001c099b          	addiw	s3,s8,1
   199c6:	bd19                	j	197dc <__sfvwrite_r+0x12e>
   199c8:	4731                	li	a4,12
   199ca:	01041783          	lh	a5,16(s0)
   199ce:	00eaa023          	sw	a4,0(s5)
   199d2:	b569                	j	1985c <__sfvwrite_r+0x1ae>
   199d4:	557d                	li	a0,-1
   199d6:	bdb1                	j	19832 <__sfvwrite_r+0x184>

00000000000199d8 <_isatty_r>:
   199d8:	1101                	addi	sp,sp,-32
   199da:	e822                	sd	s0,16(sp)
   199dc:	e426                	sd	s1,8(sp)
   199de:	842a                	mv	s0,a0
   199e0:	852e                	mv	a0,a1
   199e2:	ec06                	sd	ra,24(sp)
   199e4:	7801a823          	sw	zero,1936(gp) # 1f8a8 <errno>
   199e8:	0c1010ef          	jal	ra,1b2a8 <_isatty>
   199ec:	57fd                	li	a5,-1
   199ee:	00f50763          	beq	a0,a5,199fc <_isatty_r+0x24>
   199f2:	60e2                	ld	ra,24(sp)
   199f4:	6442                	ld	s0,16(sp)
   199f6:	64a2                	ld	s1,8(sp)
   199f8:	6105                	addi	sp,sp,32
   199fa:	8082                	ret
   199fc:	7901a783          	lw	a5,1936(gp) # 1f8a8 <errno>
   19a00:	dbed                	beqz	a5,199f2 <_isatty_r+0x1a>
   19a02:	60e2                	ld	ra,24(sp)
   19a04:	c01c                	sw	a5,0(s0)
   19a06:	6442                	ld	s0,16(sp)
   19a08:	64a2                	ld	s1,8(sp)
   19a0a:	6105                	addi	sp,sp,32
   19a0c:	8082                	ret

0000000000019a0e <_lseek_r>:
   19a0e:	1101                	addi	sp,sp,-32
   19a10:	872e                	mv	a4,a1
   19a12:	e822                	sd	s0,16(sp)
   19a14:	e426                	sd	s1,8(sp)
   19a16:	85b2                	mv	a1,a2
   19a18:	842a                	mv	s0,a0
   19a1a:	8636                	mv	a2,a3
   19a1c:	853a                	mv	a0,a4
   19a1e:	ec06                	sd	ra,24(sp)
   19a20:	7801a823          	sw	zero,1936(gp) # 1f8a8 <errno>
   19a24:	0bf010ef          	jal	ra,1b2e2 <_lseek>
   19a28:	57fd                	li	a5,-1
   19a2a:	00f50763          	beq	a0,a5,19a38 <_lseek_r+0x2a>
   19a2e:	60e2                	ld	ra,24(sp)
   19a30:	6442                	ld	s0,16(sp)
   19a32:	64a2                	ld	s1,8(sp)
   19a34:	6105                	addi	sp,sp,32
   19a36:	8082                	ret
   19a38:	7901a783          	lw	a5,1936(gp) # 1f8a8 <errno>
   19a3c:	dbed                	beqz	a5,19a2e <_lseek_r+0x20>
   19a3e:	60e2                	ld	ra,24(sp)
   19a40:	c01c                	sw	a5,0(s0)
   19a42:	6442                	ld	s0,16(sp)
   19a44:	64a2                	ld	s1,8(sp)
   19a46:	6105                	addi	sp,sp,32
   19a48:	8082                	ret

0000000000019a4a <memcpy>:
   19a4a:	00a5c7b3          	xor	a5,a1,a0
   19a4e:	8b9d                	andi	a5,a5,7
   19a50:	00c508b3          	add	a7,a0,a2
   19a54:	eba1                	bnez	a5,19aa4 <memcpy+0x5a>
   19a56:	479d                	li	a5,7
   19a58:	04c7f663          	bgeu	a5,a2,19aa4 <memcpy+0x5a>
   19a5c:	00757793          	andi	a5,a0,7
   19a60:	872a                	mv	a4,a0
   19a62:	e7cd                	bnez	a5,19b0c <memcpy+0xc2>
   19a64:	ff88f613          	andi	a2,a7,-8
   19a68:	40e606b3          	sub	a3,a2,a4
   19a6c:	04000793          	li	a5,64
   19a70:	04000393          	li	t2,64
   19a74:	04d7c463          	blt	a5,a3,19abc <memcpy+0x72>
   19a78:	86ae                	mv	a3,a1
   19a7a:	87ba                	mv	a5,a4
   19a7c:	02c77163          	bgeu	a4,a2,19a9e <memcpy+0x54>
   19a80:	0006b803          	ld	a6,0(a3) # 2000 <register_fini-0xe0e8>
   19a84:	07a1                	addi	a5,a5,8
   19a86:	06a1                	addi	a3,a3,8
   19a88:	ff07bc23          	sd	a6,-8(a5)
   19a8c:	fec7eae3          	bltu	a5,a2,19a80 <memcpy+0x36>
   19a90:	fff60793          	addi	a5,a2,-1
   19a94:	8f99                	sub	a5,a5,a4
   19a96:	9be1                	andi	a5,a5,-8
   19a98:	07a1                	addi	a5,a5,8
   19a9a:	973e                	add	a4,a4,a5
   19a9c:	95be                	add	a1,a1,a5
   19a9e:	01176663          	bltu	a4,a7,19aaa <memcpy+0x60>
   19aa2:	8082                	ret
   19aa4:	872a                	mv	a4,a0
   19aa6:	ff157ee3          	bgeu	a0,a7,19aa2 <memcpy+0x58>
   19aaa:	0005c783          	lbu	a5,0(a1)
   19aae:	0705                	addi	a4,a4,1
   19ab0:	0585                	addi	a1,a1,1
   19ab2:	fef70fa3          	sb	a5,-1(a4)
   19ab6:	ff176ae3          	bltu	a4,a7,19aaa <memcpy+0x60>
   19aba:	8082                	ret
   19abc:	6594                	ld	a3,8(a1)
   19abe:	7d9c                	ld	a5,56(a1)
   19ac0:	0005b283          	ld	t0,0(a1)
   19ac4:	0105bf03          	ld	t5,16(a1)
   19ac8:	0185be83          	ld	t4,24(a1)
   19acc:	0205be03          	ld	t3,32(a1)
   19ad0:	0285b303          	ld	t1,40(a1)
   19ad4:	0305b803          	ld	a6,48(a1)
   19ad8:	e714                	sd	a3,8(a4)
   19ada:	61b4                	ld	a3,64(a1)
   19adc:	00573023          	sd	t0,0(a4)
   19ae0:	01e73823          	sd	t5,16(a4)
   19ae4:	01d73c23          	sd	t4,24(a4)
   19ae8:	03c73023          	sd	t3,32(a4)
   19aec:	02673423          	sd	t1,40(a4)
   19af0:	03073823          	sd	a6,48(a4)
   19af4:	ff1c                	sd	a5,56(a4)
   19af6:	04870713          	addi	a4,a4,72
   19afa:	40e607b3          	sub	a5,a2,a4
   19afe:	fed73c23          	sd	a3,-8(a4)
   19b02:	04858593          	addi	a1,a1,72
   19b06:	faf3cbe3          	blt	t2,a5,19abc <memcpy+0x72>
   19b0a:	b7bd                	j	19a78 <memcpy+0x2e>
   19b0c:	0005c683          	lbu	a3,0(a1)
   19b10:	0705                	addi	a4,a4,1
   19b12:	00777793          	andi	a5,a4,7
   19b16:	fed70fa3          	sb	a3,-1(a4)
   19b1a:	0585                	addi	a1,a1,1
   19b1c:	d7a1                	beqz	a5,19a64 <memcpy+0x1a>
   19b1e:	0005c683          	lbu	a3,0(a1)
   19b22:	0705                	addi	a4,a4,1
   19b24:	00777793          	andi	a5,a4,7
   19b28:	fed70fa3          	sb	a3,-1(a4)
   19b2c:	0585                	addi	a1,a1,1
   19b2e:	fff9                	bnez	a5,19b0c <memcpy+0xc2>
   19b30:	bf15                	j	19a64 <memcpy+0x1a>

0000000000019b32 <memmove>:
   19b32:	02a5f263          	bgeu	a1,a0,19b56 <memmove+0x24>
   19b36:	00c587b3          	add	a5,a1,a2
   19b3a:	00f57e63          	bgeu	a0,a5,19b56 <memmove+0x24>
   19b3e:	00c50733          	add	a4,a0,a2
   19b42:	ca5d                	beqz	a2,19bf8 <memmove+0xc6>
   19b44:	fff7c683          	lbu	a3,-1(a5)
   19b48:	17fd                	addi	a5,a5,-1
   19b4a:	177d                	addi	a4,a4,-1
   19b4c:	00d70023          	sb	a3,0(a4)
   19b50:	fef59ae3          	bne	a1,a5,19b44 <memmove+0x12>
   19b54:	8082                	ret
   19b56:	47fd                	li	a5,31
   19b58:	02c7e163          	bltu	a5,a2,19b7a <memmove+0x48>
   19b5c:	87aa                	mv	a5,a0
   19b5e:	fff60693          	addi	a3,a2,-1
   19b62:	c245                	beqz	a2,19c02 <memmove+0xd0>
   19b64:	0685                	addi	a3,a3,1
   19b66:	96be                	add	a3,a3,a5
   19b68:	0005c703          	lbu	a4,0(a1)
   19b6c:	0785                	addi	a5,a5,1
   19b6e:	0585                	addi	a1,a1,1
   19b70:	fee78fa3          	sb	a4,-1(a5)
   19b74:	fed79ae3          	bne	a5,a3,19b68 <memmove+0x36>
   19b78:	8082                	ret
   19b7a:	00a5e7b3          	or	a5,a1,a0
   19b7e:	8b9d                	andi	a5,a5,7
   19b80:	efad                	bnez	a5,19bfa <memmove+0xc8>
   19b82:	fe060893          	addi	a7,a2,-32
   19b86:	fe08f893          	andi	a7,a7,-32
   19b8a:	02088893          	addi	a7,a7,32
   19b8e:	01150833          	add	a6,a0,a7
   19b92:	872e                	mv	a4,a1
   19b94:	87aa                	mv	a5,a0
   19b96:	6314                	ld	a3,0(a4)
   19b98:	02070713          	addi	a4,a4,32
   19b9c:	02078793          	addi	a5,a5,32
   19ba0:	fed7b023          	sd	a3,-32(a5)
   19ba4:	fe873683          	ld	a3,-24(a4)
   19ba8:	fed7b423          	sd	a3,-24(a5)
   19bac:	ff073683          	ld	a3,-16(a4)
   19bb0:	fed7b823          	sd	a3,-16(a5)
   19bb4:	ff873683          	ld	a3,-8(a4)
   19bb8:	fed7bc23          	sd	a3,-8(a5)
   19bbc:	fcf81de3          	bne	a6,a5,19b96 <memmove+0x64>
   19bc0:	01867713          	andi	a4,a2,24
   19bc4:	95c6                	add	a1,a1,a7
   19bc6:	01f67813          	andi	a6,a2,31
   19bca:	cf0d                	beqz	a4,19c04 <memmove+0xd2>
   19bcc:	872e                	mv	a4,a1
   19bce:	88be                	mv	a7,a5
   19bd0:	4e1d                	li	t3,7
   19bd2:	00073303          	ld	t1,0(a4)
   19bd6:	0721                	addi	a4,a4,8
   19bd8:	40e806b3          	sub	a3,a6,a4
   19bdc:	0068b023          	sd	t1,0(a7)
   19be0:	96ae                	add	a3,a3,a1
   19be2:	08a1                	addi	a7,a7,8
   19be4:	fede67e3          	bltu	t3,a3,19bd2 <memmove+0xa0>
   19be8:	ff880713          	addi	a4,a6,-8
   19bec:	9b61                	andi	a4,a4,-8
   19bee:	0721                	addi	a4,a4,8
   19bf0:	8a1d                	andi	a2,a2,7
   19bf2:	97ba                	add	a5,a5,a4
   19bf4:	95ba                	add	a1,a1,a4
   19bf6:	b7a5                	j	19b5e <memmove+0x2c>
   19bf8:	8082                	ret
   19bfa:	fff60693          	addi	a3,a2,-1
   19bfe:	87aa                	mv	a5,a0
   19c00:	b795                	j	19b64 <memmove+0x32>
   19c02:	8082                	ret
   19c04:	8642                	mv	a2,a6
   19c06:	bfa1                	j	19b5e <memmove+0x2c>

0000000000019c08 <_read_r>:
   19c08:	1101                	addi	sp,sp,-32
   19c0a:	872e                	mv	a4,a1
   19c0c:	e822                	sd	s0,16(sp)
   19c0e:	e426                	sd	s1,8(sp)
   19c10:	85b2                	mv	a1,a2
   19c12:	842a                	mv	s0,a0
   19c14:	8636                	mv	a2,a3
   19c16:	853a                	mv	a0,a4
   19c18:	ec06                	sd	ra,24(sp)
   19c1a:	7801a823          	sw	zero,1936(gp) # 1f8a8 <errno>
   19c1e:	6f0010ef          	jal	ra,1b30e <_read>
   19c22:	57fd                	li	a5,-1
   19c24:	00f50763          	beq	a0,a5,19c32 <_read_r+0x2a>
   19c28:	60e2                	ld	ra,24(sp)
   19c2a:	6442                	ld	s0,16(sp)
   19c2c:	64a2                	ld	s1,8(sp)
   19c2e:	6105                	addi	sp,sp,32
   19c30:	8082                	ret
   19c32:	7901a783          	lw	a5,1936(gp) # 1f8a8 <errno>
   19c36:	dbed                	beqz	a5,19c28 <_read_r+0x20>
   19c38:	60e2                	ld	ra,24(sp)
   19c3a:	c01c                	sw	a5,0(s0)
   19c3c:	6442                	ld	s0,16(sp)
   19c3e:	64a2                	ld	s1,8(sp)
   19c40:	6105                	addi	sp,sp,32
   19c42:	8082                	ret

0000000000019c44 <_realloc_r>:
   19c44:	715d                	addi	sp,sp,-80
   19c46:	f84a                	sd	s2,48(sp)
   19c48:	e486                	sd	ra,72(sp)
   19c4a:	e0a2                	sd	s0,64(sp)
   19c4c:	fc26                	sd	s1,56(sp)
   19c4e:	f44e                	sd	s3,40(sp)
   19c50:	f052                	sd	s4,32(sp)
   19c52:	ec56                	sd	s5,24(sp)
   19c54:	e85a                	sd	s6,16(sp)
   19c56:	e45e                	sd	s7,8(sp)
   19c58:	e062                	sd	s8,0(sp)
   19c5a:	8932                	mv	s2,a2
   19c5c:	14058d63          	beqz	a1,19db6 <_realloc_r+0x172>
   19c60:	842e                	mv	s0,a1
   19c62:	8a2a                	mv	s4,a0
   19c64:	832f70ef          	jal	ra,10c96 <__malloc_lock>
   19c68:	ff843703          	ld	a4,-8(s0)
   19c6c:	01790493          	addi	s1,s2,23
   19c70:	02e00793          	li	a5,46
   19c74:	ff040a93          	addi	s5,s0,-16
   19c78:	ffc77993          	andi	s3,a4,-4
   19c7c:	0a97fe63          	bgeu	a5,s1,19d38 <_realloc_r+0xf4>
   19c80:	800007b7          	lui	a5,0x80000
   19c84:	98c1                	andi	s1,s1,-16
   19c86:	fff7c793          	not	a5,a5
   19c8a:	0a97eb63          	bltu	a5,s1,19d40 <_realloc_r+0xfc>
   19c8e:	0b24e963          	bltu	s1,s2,19d40 <_realloc_r+0xfc>
   19c92:	013a8b33          	add	s6,s5,s3
   19c96:	0c99df63          	bge	s3,s1,19d74 <_realloc_r+0x130>
   19c9a:	0001f7b7          	lui	a5,0x1f
   19c9e:	e7078b93          	addi	s7,a5,-400 # 1ee70 <__malloc_av_>
   19ca2:	010bb683          	ld	a3,16(s7)
   19ca6:	008b3783          	ld	a5,8(s6) # ffffffff80000008 <__BSS_END__+0xffffffff7ffe06f0>
   19caa:	15668763          	beq	a3,s6,19df8 <_realloc_r+0x1b4>
   19cae:	ffe7f693          	andi	a3,a5,-2
   19cb2:	96da                	add	a3,a3,s6
   19cb4:	6694                	ld	a3,8(a3)
   19cb6:	8a85                	andi	a3,a3,1
   19cb8:	e6ed                	bnez	a3,19da2 <_realloc_r+0x15e>
   19cba:	9bf1                	andi	a5,a5,-4
   19cbc:	00f986b3          	add	a3,s3,a5
   19cc0:	0a96d163          	bge	a3,s1,19d62 <_realloc_r+0x11e>
   19cc4:	8b05                	andi	a4,a4,1
   19cc6:	e30d                	bnez	a4,19ce8 <_realloc_r+0xa4>
   19cc8:	ff043c03          	ld	s8,-16(s0)
   19ccc:	418a8c33          	sub	s8,s5,s8
   19cd0:	008c3703          	ld	a4,8(s8)
   19cd4:	9b71                	andi	a4,a4,-4
   19cd6:	97ba                	add	a5,a5,a4
   19cd8:	01378bb3          	add	s7,a5,s3
   19cdc:	269bd463          	bge	s7,s1,19f44 <_realloc_r+0x300>
   19ce0:	00e98bb3          	add	s7,s3,a4
   19ce4:	209bd063          	bge	s7,s1,19ee4 <_realloc_r+0x2a0>
   19ce8:	85ca                	mv	a1,s2
   19cea:	8552                	mv	a0,s4
   19cec:	8dff60ef          	jal	ra,105ca <_malloc_r>
   19cf0:	892a                	mv	s2,a0
   19cf2:	cd1d                	beqz	a0,19d30 <_realloc_r+0xec>
   19cf4:	ff843783          	ld	a5,-8(s0)
   19cf8:	ff050713          	addi	a4,a0,-16
   19cfc:	9bf9                	andi	a5,a5,-2
   19cfe:	97d6                	add	a5,a5,s5
   19d00:	1ce78b63          	beq	a5,a4,19ed6 <_realloc_r+0x292>
   19d04:	ff898613          	addi	a2,s3,-8
   19d08:	04800793          	li	a5,72
   19d0c:	22c7e863          	bltu	a5,a2,19f3c <_realloc_r+0x2f8>
   19d10:	02700713          	li	a4,39
   19d14:	6014                	ld	a3,0(s0)
   19d16:	18c76063          	bltu	a4,a2,19e96 <_realloc_r+0x252>
   19d1a:	87aa                	mv	a5,a0
   19d1c:	8722                	mv	a4,s0
   19d1e:	e394                	sd	a3,0(a5)
   19d20:	6714                	ld	a3,8(a4)
   19d22:	e794                	sd	a3,8(a5)
   19d24:	6b18                	ld	a4,16(a4)
   19d26:	eb98                	sd	a4,16(a5)
   19d28:	85a2                	mv	a1,s0
   19d2a:	8552                	mv	a0,s4
   19d2c:	b6cf90ef          	jal	ra,13098 <_free_r>
   19d30:	8552                	mv	a0,s4
   19d32:	f67f60ef          	jal	ra,10c98 <__malloc_unlock>
   19d36:	a809                	j	19d48 <_realloc_r+0x104>
   19d38:	02000493          	li	s1,32
   19d3c:	f524fbe3          	bgeu	s1,s2,19c92 <_realloc_r+0x4e>
   19d40:	47b1                	li	a5,12
   19d42:	00fa2023          	sw	a5,0(s4)
   19d46:	4901                	li	s2,0
   19d48:	60a6                	ld	ra,72(sp)
   19d4a:	6406                	ld	s0,64(sp)
   19d4c:	74e2                	ld	s1,56(sp)
   19d4e:	79a2                	ld	s3,40(sp)
   19d50:	7a02                	ld	s4,32(sp)
   19d52:	6ae2                	ld	s5,24(sp)
   19d54:	6b42                	ld	s6,16(sp)
   19d56:	6ba2                	ld	s7,8(sp)
   19d58:	6c02                	ld	s8,0(sp)
   19d5a:	854a                	mv	a0,s2
   19d5c:	7942                	ld	s2,48(sp)
   19d5e:	6161                	addi	sp,sp,80
   19d60:	8082                	ret
   19d62:	018b3783          	ld	a5,24(s6)
   19d66:	010b3703          	ld	a4,16(s6)
   19d6a:	89b6                	mv	s3,a3
   19d6c:	00da8b33          	add	s6,s5,a3
   19d70:	ef1c                	sd	a5,24(a4)
   19d72:	eb98                	sd	a4,16(a5)
   19d74:	008ab783          	ld	a5,8(s5)
   19d78:	40998733          	sub	a4,s3,s1
   19d7c:	46fd                	li	a3,31
   19d7e:	8b85                	andi	a5,a5,1
   19d80:	04e6e963          	bltu	a3,a4,19dd2 <_realloc_r+0x18e>
   19d84:	00f9e7b3          	or	a5,s3,a5
   19d88:	00fab423          	sd	a5,8(s5)
   19d8c:	008b3783          	ld	a5,8(s6)
   19d90:	0017e793          	ori	a5,a5,1
   19d94:	00fb3423          	sd	a5,8(s6)
   19d98:	8552                	mv	a0,s4
   19d9a:	efff60ef          	jal	ra,10c98 <__malloc_unlock>
   19d9e:	8922                	mv	s2,s0
   19da0:	b765                	j	19d48 <_realloc_r+0x104>
   19da2:	8b05                	andi	a4,a4,1
   19da4:	f331                	bnez	a4,19ce8 <_realloc_r+0xa4>
   19da6:	ff043c03          	ld	s8,-16(s0)
   19daa:	418a8c33          	sub	s8,s5,s8
   19dae:	008c3703          	ld	a4,8(s8)
   19db2:	9b71                	andi	a4,a4,-4
   19db4:	b735                	j	19ce0 <_realloc_r+0x9c>
   19db6:	6406                	ld	s0,64(sp)
   19db8:	60a6                	ld	ra,72(sp)
   19dba:	74e2                	ld	s1,56(sp)
   19dbc:	7942                	ld	s2,48(sp)
   19dbe:	79a2                	ld	s3,40(sp)
   19dc0:	7a02                	ld	s4,32(sp)
   19dc2:	6ae2                	ld	s5,24(sp)
   19dc4:	6b42                	ld	s6,16(sp)
   19dc6:	6ba2                	ld	s7,8(sp)
   19dc8:	6c02                	ld	s8,0(sp)
   19dca:	85b2                	mv	a1,a2
   19dcc:	6161                	addi	sp,sp,80
   19dce:	ffcf606f          	j	105ca <_malloc_r>
   19dd2:	8fc5                	or	a5,a5,s1
   19dd4:	00fab423          	sd	a5,8(s5)
   19dd8:	009a85b3          	add	a1,s5,s1
   19ddc:	00176713          	ori	a4,a4,1
   19de0:	e598                	sd	a4,8(a1)
   19de2:	008b3783          	ld	a5,8(s6)
   19de6:	05c1                	addi	a1,a1,16
   19de8:	8552                	mv	a0,s4
   19dea:	0017e793          	ori	a5,a5,1
   19dee:	00fb3423          	sd	a5,8(s6)
   19df2:	aa6f90ef          	jal	ra,13098 <_free_r>
   19df6:	b74d                	j	19d98 <_realloc_r+0x154>
   19df8:	9bf1                	andi	a5,a5,-4
   19dfa:	00f986b3          	add	a3,s3,a5
   19dfe:	02048613          	addi	a2,s1,32
   19e02:	0ac6d763          	bge	a3,a2,19eb0 <_realloc_r+0x26c>
   19e06:	8b05                	andi	a4,a4,1
   19e08:	ee0710e3          	bnez	a4,19ce8 <_realloc_r+0xa4>
   19e0c:	ff043c03          	ld	s8,-16(s0)
   19e10:	418a8c33          	sub	s8,s5,s8
   19e14:	008c3703          	ld	a4,8(s8)
   19e18:	9b71                	andi	a4,a4,-4
   19e1a:	97ba                	add	a5,a5,a4
   19e1c:	01378b33          	add	s6,a5,s3
   19e20:	eccb40e3          	blt	s6,a2,19ce0 <_realloc_r+0x9c>
   19e24:	018c3783          	ld	a5,24(s8)
   19e28:	010c3703          	ld	a4,16(s8)
   19e2c:	ff898613          	addi	a2,s3,-8
   19e30:	04800693          	li	a3,72
   19e34:	ef1c                	sd	a5,24(a4)
   19e36:	eb98                	sd	a4,16(a5)
   19e38:	010c0913          	addi	s2,s8,16
   19e3c:	1cc6ea63          	bltu	a3,a2,1a010 <_realloc_r+0x3cc>
   19e40:	02700593          	li	a1,39
   19e44:	6018                	ld	a4,0(s0)
   19e46:	87ca                	mv	a5,s2
   19e48:	00c5ff63          	bgeu	a1,a2,19e66 <_realloc_r+0x222>
   19e4c:	00ec3823          	sd	a4,16(s8)
   19e50:	6418                	ld	a4,8(s0)
   19e52:	03700793          	li	a5,55
   19e56:	00ec3c23          	sd	a4,24(s8)
   19e5a:	1cc7e063          	bltu	a5,a2,1a01a <_realloc_r+0x3d6>
   19e5e:	6818                	ld	a4,16(s0)
   19e60:	020c0793          	addi	a5,s8,32
   19e64:	0441                	addi	s0,s0,16
   19e66:	e398                	sd	a4,0(a5)
   19e68:	6418                	ld	a4,8(s0)
   19e6a:	e798                	sd	a4,8(a5)
   19e6c:	6818                	ld	a4,16(s0)
   19e6e:	eb98                	sd	a4,16(a5)
   19e70:	009c0733          	add	a4,s8,s1
   19e74:	409b07b3          	sub	a5,s6,s1
   19e78:	00ebb823          	sd	a4,16(s7)
   19e7c:	0017e793          	ori	a5,a5,1
   19e80:	e71c                	sd	a5,8(a4)
   19e82:	008c3783          	ld	a5,8(s8)
   19e86:	8552                	mv	a0,s4
   19e88:	8b85                	andi	a5,a5,1
   19e8a:	8cdd                	or	s1,s1,a5
   19e8c:	009c3423          	sd	s1,8(s8)
   19e90:	e09f60ef          	jal	ra,10c98 <__malloc_unlock>
   19e94:	bd55                	j	19d48 <_realloc_r+0x104>
   19e96:	e114                	sd	a3,0(a0)
   19e98:	6414                	ld	a3,8(s0)
   19e9a:	03700713          	li	a4,55
   19e9e:	e514                	sd	a3,8(a0)
   19ea0:	10c76f63          	bltu	a4,a2,19fbe <_realloc_r+0x37a>
   19ea4:	6814                	ld	a3,16(s0)
   19ea6:	01040713          	addi	a4,s0,16
   19eaa:	01050793          	addi	a5,a0,16
   19eae:	bd85                	j	19d1e <_realloc_r+0xda>
   19eb0:	9aa6                	add	s5,s5,s1
   19eb2:	8e85                	sub	a3,a3,s1
   19eb4:	015bb823          	sd	s5,16(s7)
   19eb8:	0016e793          	ori	a5,a3,1
   19ebc:	00fab423          	sd	a5,8(s5)
   19ec0:	ff843783          	ld	a5,-8(s0)
   19ec4:	8552                	mv	a0,s4
   19ec6:	8922                	mv	s2,s0
   19ec8:	8b85                	andi	a5,a5,1
   19eca:	8cdd                	or	s1,s1,a5
   19ecc:	fe943c23          	sd	s1,-8(s0)
   19ed0:	dc9f60ef          	jal	ra,10c98 <__malloc_unlock>
   19ed4:	bd95                	j	19d48 <_realloc_r+0x104>
   19ed6:	ff853783          	ld	a5,-8(a0)
   19eda:	9bf1                	andi	a5,a5,-4
   19edc:	99be                	add	s3,s3,a5
   19ede:	013a8b33          	add	s6,s5,s3
   19ee2:	bd49                	j	19d74 <_realloc_r+0x130>
   19ee4:	018c3783          	ld	a5,24(s8)
   19ee8:	010c3703          	ld	a4,16(s8)
   19eec:	ff898613          	addi	a2,s3,-8
   19ef0:	04800693          	li	a3,72
   19ef4:	ef1c                	sd	a5,24(a4)
   19ef6:	eb98                	sd	a4,16(a5)
   19ef8:	010c0913          	addi	s2,s8,16
   19efc:	017c0b33          	add	s6,s8,s7
   19f00:	0ac6e763          	bltu	a3,a2,19fae <_realloc_r+0x36a>
   19f04:	02700593          	li	a1,39
   19f08:	6018                	ld	a4,0(s0)
   19f0a:	87ca                	mv	a5,s2
   19f0c:	00c5ff63          	bgeu	a1,a2,19f2a <_realloc_r+0x2e6>
   19f10:	00ec3823          	sd	a4,16(s8)
   19f14:	6418                	ld	a4,8(s0)
   19f16:	03700793          	li	a5,55
   19f1a:	00ec3c23          	sd	a4,24(s8)
   19f1e:	0ac7ec63          	bltu	a5,a2,19fd6 <_realloc_r+0x392>
   19f22:	6818                	ld	a4,16(s0)
   19f24:	020c0793          	addi	a5,s8,32
   19f28:	0441                	addi	s0,s0,16
   19f2a:	e398                	sd	a4,0(a5)
   19f2c:	6418                	ld	a4,8(s0)
   19f2e:	89de                	mv	s3,s7
   19f30:	8ae2                	mv	s5,s8
   19f32:	e798                	sd	a4,8(a5)
   19f34:	6818                	ld	a4,16(s0)
   19f36:	844a                	mv	s0,s2
   19f38:	eb98                	sd	a4,16(a5)
   19f3a:	bd2d                	j	19d74 <_realloc_r+0x130>
   19f3c:	85a2                	mv	a1,s0
   19f3e:	bf5ff0ef          	jal	ra,19b32 <memmove>
   19f42:	b3dd                	j	19d28 <_realloc_r+0xe4>
   19f44:	018b3783          	ld	a5,24(s6)
   19f48:	010b3703          	ld	a4,16(s6)
   19f4c:	ff898613          	addi	a2,s3,-8
   19f50:	04800693          	li	a3,72
   19f54:	ef1c                	sd	a5,24(a4)
   19f56:	eb98                	sd	a4,16(a5)
   19f58:	010c3703          	ld	a4,16(s8)
   19f5c:	018c3783          	ld	a5,24(s8)
   19f60:	010c0913          	addi	s2,s8,16
   19f64:	017c0b33          	add	s6,s8,s7
   19f68:	ef1c                	sd	a5,24(a4)
   19f6a:	eb98                	sd	a4,16(a5)
   19f6c:	04c6e163          	bltu	a3,a2,19fae <_realloc_r+0x36a>
   19f70:	02700693          	li	a3,39
   19f74:	6018                	ld	a4,0(s0)
   19f76:	87ca                	mv	a5,s2
   19f78:	fac6f9e3          	bgeu	a3,a2,19f2a <_realloc_r+0x2e6>
   19f7c:	00ec3823          	sd	a4,16(s8)
   19f80:	6418                	ld	a4,8(s0)
   19f82:	03700793          	li	a5,55
   19f86:	00ec3c23          	sd	a4,24(s8)
   19f8a:	6818                	ld	a4,16(s0)
   19f8c:	f8c7fce3          	bgeu	a5,a2,19f24 <_realloc_r+0x2e0>
   19f90:	02ec3023          	sd	a4,32(s8)
   19f94:	6c18                	ld	a4,24(s0)
   19f96:	04800793          	li	a5,72
   19f9a:	02ec3423          	sd	a4,40(s8)
   19f9e:	7018                	ld	a4,32(s0)
   19fa0:	04f60463          	beq	a2,a5,19fe8 <_realloc_r+0x3a4>
   19fa4:	030c0793          	addi	a5,s8,48
   19fa8:	02040413          	addi	s0,s0,32
   19fac:	bfbd                	j	19f2a <_realloc_r+0x2e6>
   19fae:	85a2                	mv	a1,s0
   19fb0:	854a                	mv	a0,s2
   19fb2:	b81ff0ef          	jal	ra,19b32 <memmove>
   19fb6:	844a                	mv	s0,s2
   19fb8:	89de                	mv	s3,s7
   19fba:	8ae2                	mv	s5,s8
   19fbc:	bb65                	j	19d74 <_realloc_r+0x130>
   19fbe:	6818                	ld	a4,16(s0)
   19fc0:	e918                	sd	a4,16(a0)
   19fc2:	6c18                	ld	a4,24(s0)
   19fc4:	ed18                	sd	a4,24(a0)
   19fc6:	7014                	ld	a3,32(s0)
   19fc8:	02f60b63          	beq	a2,a5,19ffe <_realloc_r+0x3ba>
   19fcc:	02040713          	addi	a4,s0,32
   19fd0:	02050793          	addi	a5,a0,32
   19fd4:	b3a9                	j	19d1e <_realloc_r+0xda>
   19fd6:	681c                	ld	a5,16(s0)
   19fd8:	02fc3023          	sd	a5,32(s8)
   19fdc:	6c1c                	ld	a5,24(s0)
   19fde:	02fc3423          	sd	a5,40(s8)
   19fe2:	7018                	ld	a4,32(s0)
   19fe4:	fcd610e3          	bne	a2,a3,19fa4 <_realloc_r+0x360>
   19fe8:	02ec3823          	sd	a4,48(s8)
   19fec:	7418                	ld	a4,40(s0)
   19fee:	040c0793          	addi	a5,s8,64
   19ff2:	03040413          	addi	s0,s0,48
   19ff6:	02ec3c23          	sd	a4,56(s8)
   19ffa:	6018                	ld	a4,0(s0)
   19ffc:	b73d                	j	19f2a <_realloc_r+0x2e6>
   19ffe:	f114                	sd	a3,32(a0)
   1a000:	7414                	ld	a3,40(s0)
   1a002:	03040713          	addi	a4,s0,48
   1a006:	03050793          	addi	a5,a0,48
   1a00a:	f514                	sd	a3,40(a0)
   1a00c:	7814                	ld	a3,48(s0)
   1a00e:	bb01                	j	19d1e <_realloc_r+0xda>
   1a010:	85a2                	mv	a1,s0
   1a012:	854a                	mv	a0,s2
   1a014:	b1fff0ef          	jal	ra,19b32 <memmove>
   1a018:	bda1                	j	19e70 <_realloc_r+0x22c>
   1a01a:	681c                	ld	a5,16(s0)
   1a01c:	02fc3023          	sd	a5,32(s8)
   1a020:	6c1c                	ld	a5,24(s0)
   1a022:	02fc3423          	sd	a5,40(s8)
   1a026:	7018                	ld	a4,32(s0)
   1a028:	00d60763          	beq	a2,a3,1a036 <_realloc_r+0x3f2>
   1a02c:	030c0793          	addi	a5,s8,48
   1a030:	02040413          	addi	s0,s0,32
   1a034:	bd0d                	j	19e66 <_realloc_r+0x222>
   1a036:	02ec3823          	sd	a4,48(s8)
   1a03a:	7418                	ld	a4,40(s0)
   1a03c:	040c0793          	addi	a5,s8,64
   1a040:	03040413          	addi	s0,s0,48
   1a044:	02ec3c23          	sd	a4,56(s8)
   1a048:	6018                	ld	a4,0(s0)
   1a04a:	bd31                	j	19e66 <_realloc_r+0x222>

000000000001a04c <__ssprint_r>:
   1a04c:	6a1c                	ld	a5,16(a2)
   1a04e:	715d                	addi	sp,sp,-80
   1a050:	ec56                	sd	s5,24(sp)
   1a052:	e486                	sd	ra,72(sp)
   1a054:	e0a2                	sd	s0,64(sp)
   1a056:	fc26                	sd	s1,56(sp)
   1a058:	f84a                	sd	s2,48(sp)
   1a05a:	f44e                	sd	s3,40(sp)
   1a05c:	f052                	sd	s4,32(sp)
   1a05e:	e85a                	sd	s6,16(sp)
   1a060:	e45e                	sd	s7,8(sp)
   1a062:	e062                	sd	s8,0(sp)
   1a064:	8ab2                	mv	s5,a2
   1a066:	cff9                	beqz	a5,1a144 <__ssprint_r+0xf8>
   1a068:	8b2a                	mv	s6,a0
   1a06a:	00063b83          	ld	s7,0(a2)
   1a06e:	6188                	ld	a0,0(a1)
   1a070:	45c0                	lw	s0,12(a1)
   1a072:	892e                	mv	s2,a1
   1a074:	4c01                	li	s8,0
   1a076:	4481                	li	s1,0
   1a078:	c4ed                	beqz	s1,1a162 <__ssprint_r+0x116>
   1a07a:	8a22                	mv	s4,s0
   1a07c:	0004879b          	sext.w	a5,s1
   1a080:	0e84e763          	bltu	s1,s0,1a16e <__ssprint_r+0x122>
   1a084:	01095783          	lhu	a5,16(s2)
   1a088:	0004899b          	sext.w	s3,s1
   1a08c:	4807f713          	andi	a4,a5,1152
   1a090:	c349                	beqz	a4,1a112 <__ssprint_r+0xc6>
   1a092:	02092403          	lw	s0,32(s2)
   1a096:	01893583          	ld	a1,24(s2)
   1a09a:	00148693          	addi	a3,s1,1
   1a09e:	0014161b          	slliw	a2,s0,0x1
   1a0a2:	9e21                	addw	a2,a2,s0
   1a0a4:	8d0d                	sub	a0,a0,a1
   1a0a6:	01f6541b          	srliw	s0,a2,0x1f
   1a0aa:	00050a1b          	sext.w	s4,a0
   1a0ae:	9c31                	addw	s0,s0,a2
   1a0b0:	4014541b          	sraiw	s0,s0,0x1
   1a0b4:	96d2                	add	a3,a3,s4
   1a0b6:	00d47563          	bgeu	s0,a3,1a0c0 <__ssprint_r+0x74>
   1a0ba:	0014841b          	addiw	s0,s1,1
   1a0be:	9c29                	addw	s0,s0,a0
   1a0c0:	4007f793          	andi	a5,a5,1024
   1a0c4:	cbcd                	beqz	a5,1a176 <__ssprint_r+0x12a>
   1a0c6:	85a2                	mv	a1,s0
   1a0c8:	855a                	mv	a0,s6
   1a0ca:	d00f60ef          	jal	ra,105ca <_malloc_r>
   1a0ce:	89aa                	mv	s3,a0
   1a0d0:	cd55                	beqz	a0,1a18c <__ssprint_r+0x140>
   1a0d2:	01893583          	ld	a1,24(s2)
   1a0d6:	8652                	mv	a2,s4
   1a0d8:	973ff0ef          	jal	ra,19a4a <memcpy>
   1a0dc:	01095783          	lhu	a5,16(s2)
   1a0e0:	b7f7f793          	andi	a5,a5,-1153
   1a0e4:	0807e793          	ori	a5,a5,128
   1a0e8:	00f91823          	sh	a5,16(s2)
   1a0ec:	01498533          	add	a0,s3,s4
   1a0f0:	4144073b          	subw	a4,s0,s4
   1a0f4:	0004879b          	sext.w	a5,s1
   1a0f8:	01393c23          	sd	s3,24(s2)
   1a0fc:	02892023          	sw	s0,32(s2)
   1a100:	00a93023          	sd	a0,0(s2)
   1a104:	00e92623          	sw	a4,12(s2)
   1a108:	843e                	mv	s0,a5
   1a10a:	89be                	mv	s3,a5
   1a10c:	8a3e                	mv	s4,a5
   1a10e:	06f4e063          	bltu	s1,a5,1a16e <__ssprint_r+0x122>
   1a112:	8622                	mv	a2,s0
   1a114:	85e2                	mv	a1,s8
   1a116:	a1dff0ef          	jal	ra,19b32 <memmove>
   1a11a:	00c92603          	lw	a2,12(s2)
   1a11e:	00093503          	ld	a0,0(s2)
   1a122:	010ab783          	ld	a5,16(s5)
   1a126:	4086043b          	subw	s0,a2,s0
   1a12a:	9552                	add	a0,a0,s4
   1a12c:	00892623          	sw	s0,12(s2)
   1a130:	00a93023          	sd	a0,0(s2)
   1a134:	413787b3          	sub	a5,a5,s3
   1a138:	00fab823          	sd	a5,16(s5)
   1a13c:	9c4e                	add	s8,s8,s3
   1a13e:	413484b3          	sub	s1,s1,s3
   1a142:	fb9d                	bnez	a5,1a078 <__ssprint_r+0x2c>
   1a144:	000aa423          	sw	zero,8(s5)
   1a148:	4501                	li	a0,0
   1a14a:	60a6                	ld	ra,72(sp)
   1a14c:	6406                	ld	s0,64(sp)
   1a14e:	74e2                	ld	s1,56(sp)
   1a150:	7942                	ld	s2,48(sp)
   1a152:	79a2                	ld	s3,40(sp)
   1a154:	7a02                	ld	s4,32(sp)
   1a156:	6ae2                	ld	s5,24(sp)
   1a158:	6b42                	ld	s6,16(sp)
   1a15a:	6ba2                	ld	s7,8(sp)
   1a15c:	6c02                	ld	s8,0(sp)
   1a15e:	6161                	addi	sp,sp,80
   1a160:	8082                	ret
   1a162:	000bbc03          	ld	s8,0(s7)
   1a166:	008bb483          	ld	s1,8(s7)
   1a16a:	0bc1                	addi	s7,s7,16
   1a16c:	b731                	j	1a078 <__ssprint_r+0x2c>
   1a16e:	843e                	mv	s0,a5
   1a170:	89be                	mv	s3,a5
   1a172:	8a3e                	mv	s4,a5
   1a174:	bf79                	j	1a112 <__ssprint_r+0xc6>
   1a176:	8622                	mv	a2,s0
   1a178:	855a                	mv	a0,s6
   1a17a:	acbff0ef          	jal	ra,19c44 <_realloc_r>
   1a17e:	89aa                	mv	s3,a0
   1a180:	f535                	bnez	a0,1a0ec <__ssprint_r+0xa0>
   1a182:	01893583          	ld	a1,24(s2)
   1a186:	855a                	mv	a0,s6
   1a188:	f11f80ef          	jal	ra,13098 <_free_r>
   1a18c:	47b1                	li	a5,12
   1a18e:	00fb2023          	sw	a5,0(s6)
   1a192:	01095783          	lhu	a5,16(s2)
   1a196:	557d                	li	a0,-1
   1a198:	0407e793          	ori	a5,a5,64
   1a19c:	00f91823          	sh	a5,16(s2)
   1a1a0:	000ab823          	sd	zero,16(s5)
   1a1a4:	000aa423          	sw	zero,8(s5)
   1a1a8:	b74d                	j	1a14a <__ssprint_r+0xfe>

000000000001a1aa <_svfiprintf_r>:
   1a1aa:	0105d783          	lhu	a5,16(a1)
   1a1ae:	7145                	addi	sp,sp,-464
   1a1b0:	f74e                	sd	s3,424(sp)
   1a1b2:	ef56                	sd	s5,408(sp)
   1a1b4:	e362                	sd	s8,384(sp)
   1a1b6:	f6ee                	sd	s11,360(sp)
   1a1b8:	e786                	sd	ra,456(sp)
   1a1ba:	e3a2                	sd	s0,448(sp)
   1a1bc:	ff26                	sd	s1,440(sp)
   1a1be:	fb4a                	sd	s2,432(sp)
   1a1c0:	f352                	sd	s4,416(sp)
   1a1c2:	eb5a                	sd	s6,400(sp)
   1a1c4:	e75e                	sd	s7,392(sp)
   1a1c6:	fee6                	sd	s9,376(sp)
   1a1c8:	faea                	sd	s10,368(sp)
   1a1ca:	0807f793          	andi	a5,a5,128
   1a1ce:	89ae                	mv	s3,a1
   1a1d0:	8aaa                	mv	s5,a0
   1a1d2:	8db2                	mv	s11,a2
   1a1d4:	8c36                	mv	s8,a3
   1a1d6:	c781                	beqz	a5,1a1de <_svfiprintf_r+0x34>
   1a1d8:	6d9c                	ld	a5,24(a1)
   1a1da:	12078be3          	beqz	a5,1ab10 <_svfiprintf_r+0x966>
   1a1de:	67f5                	lui	a5,0x1d
   1a1e0:	0e010a13          	addi	s4,sp,224
   1a1e4:	3c078793          	addi	a5,a5,960 # 1d3c0 <_ctype_+0x108>
   1a1e8:	6b75                	lui	s6,0x1d
   1a1ea:	64f5                	lui	s1,0x1d
   1a1ec:	f0d2                	sd	s4,96(sp)
   1a1ee:	f882                	sd	zero,112(sp)
   1a1f0:	d482                	sw	zero,104(sp)
   1a1f2:	8752                	mv	a4,s4
   1a1f4:	e802                	sd	zero,16(sp)
   1a1f6:	fc02                	sd	zero,56(sp)
   1a1f8:	e482                	sd	zero,72(sp)
   1a1fa:	e082                	sd	zero,64(sp)
   1a1fc:	e002                	sd	zero,0(sp)
   1a1fe:	ec3e                	sd	a5,24(sp)
   1a200:	530b0b13          	addi	s6,s6,1328 # 1d530 <blanks.1>
   1a204:	54048493          	addi	s1,s1,1344 # 1d540 <zeroes.0>
   1a208:	000dc783          	lbu	a5,0(s11)
   1a20c:	2a078663          	beqz	a5,1a4b8 <_svfiprintf_r+0x30e>
   1a210:	846e                	mv	s0,s11
   1a212:	02500693          	li	a3,37
   1a216:	16d78d63          	beq	a5,a3,1a390 <_svfiprintf_r+0x1e6>
   1a21a:	00144783          	lbu	a5,1(s0)
   1a21e:	0405                	addi	s0,s0,1
   1a220:	fbfd                	bnez	a5,1a216 <_svfiprintf_r+0x6c>
   1a222:	41b4093b          	subw	s2,s0,s11
   1a226:	28090963          	beqz	s2,1a4b8 <_svfiprintf_r+0x30e>
   1a22a:	76c6                	ld	a3,112(sp)
   1a22c:	57a6                	lw	a5,104(sp)
   1a22e:	01b73023          	sd	s11,0(a4)
   1a232:	96ca                	add	a3,a3,s2
   1a234:	2785                	addiw	a5,a5,1
   1a236:	01273423          	sd	s2,8(a4)
   1a23a:	f8b6                	sd	a3,112(sp)
   1a23c:	d4be                	sw	a5,104(sp)
   1a23e:	0007869b          	sext.w	a3,a5
   1a242:	479d                	li	a5,7
   1a244:	0741                	addi	a4,a4,16
   1a246:	3ed7c263          	blt	a5,a3,1a62a <_svfiprintf_r+0x480>
   1a24a:	6682                	ld	a3,0(sp)
   1a24c:	00044783          	lbu	a5,0(s0)
   1a250:	012686bb          	addw	a3,a3,s2
   1a254:	e036                	sd	a3,0(sp)
   1a256:	26078163          	beqz	a5,1a4b8 <_svfiprintf_r+0x30e>
   1a25a:	00144783          	lbu	a5,1(s0)
   1a25e:	00140d93          	addi	s11,s0,1
   1a262:	04010ba3          	sb	zero,87(sp)
   1a266:	587d                	li	a6,-1
   1a268:	4401                	li	s0,0
   1a26a:	4d01                	li	s10,0
   1a26c:	05a00913          	li	s2,90
   1a270:	4ba5                	li	s7,9
   1a272:	0d85                	addi	s11,s11,1
   1a274:	2781                	sext.w	a5,a5
   1a276:	02a00593          	li	a1,42
   1a27a:	fe07869b          	addiw	a3,a5,-32
   1a27e:	0006861b          	sext.w	a2,a3
   1a282:	04c96263          	bltu	s2,a2,1a2c6 <_svfiprintf_r+0x11c>
   1a286:	02069613          	slli	a2,a3,0x20
   1a28a:	01e65693          	srli	a3,a2,0x1e
   1a28e:	6662                	ld	a2,24(sp)
   1a290:	96b2                	add	a3,a3,a2
   1a292:	4294                	lw	a3,0(a3)
   1a294:	8682                	jr	a3
   1a296:	4401                	li	s0,0
   1a298:	000dc603          	lbu	a2,0(s11)
   1a29c:	0024169b          	slliw	a3,s0,0x2
   1a2a0:	9c35                	addw	s0,s0,a3
   1a2a2:	fd07879b          	addiw	a5,a5,-48
   1a2a6:	0014141b          	slliw	s0,s0,0x1
   1a2aa:	fd06069b          	addiw	a3,a2,-48
   1a2ae:	9c3d                	addw	s0,s0,a5
   1a2b0:	0d85                	addi	s11,s11,1
   1a2b2:	0006079b          	sext.w	a5,a2
   1a2b6:	fedbf1e3          	bgeu	s7,a3,1a298 <_svfiprintf_r+0xee>
   1a2ba:	fe07869b          	addiw	a3,a5,-32
   1a2be:	0006861b          	sext.w	a2,a3
   1a2c2:	fcc972e3          	bgeu	s2,a2,1a286 <_svfiprintf_r+0xdc>
   1a2c6:	1e078963          	beqz	a5,1a4b8 <_svfiprintf_r+0x30e>
   1a2ca:	06f10c23          	sb	a5,120(sp)
   1a2ce:	04010ba3          	sb	zero,87(sp)
   1a2d2:	4b85                	li	s7,1
   1a2d4:	4905                	li	s2,1
   1a2d6:	07810c93          	addi	s9,sp,120
   1a2da:	4801                	li	a6,0
   1a2dc:	aa09                	j	1a3ee <_svfiprintf_r+0x244>
   1a2de:	010d6e13          	ori	t3,s10,16
   1a2e2:	000dc783          	lbu	a5,0(s11)
   1a2e6:	000e0d1b          	sext.w	s10,t3
   1a2ea:	b761                	j	1a272 <_svfiprintf_r+0xc8>
   1a2ec:	010d6e13          	ori	t3,s10,16
   1a2f0:	000e0d1b          	sext.w	s10,t3
   1a2f4:	020d7793          	andi	a5,s10,32
   1a2f8:	008c0613          	addi	a2,s8,8
   1a2fc:	4c078763          	beqz	a5,1a7ca <_svfiprintf_r+0x620>
   1a300:	000c3783          	ld	a5,0(s8)
   1a304:	8bbe                	mv	s7,a5
   1a306:	4c07cf63          	bltz	a5,1a7e4 <_svfiprintf_r+0x63a>
   1a30a:	57fd                	li	a5,-1
   1a30c:	86ea                	mv	a3,s10
   1a30e:	8c32                	mv	s8,a2
   1a310:	00f80763          	beq	a6,a5,1a31e <_svfiprintf_r+0x174>
   1a314:	f7fd7693          	andi	a3,s10,-129
   1a318:	2681                	sext.w	a3,a3
   1a31a:	460b8663          	beqz	s7,1a786 <_svfiprintf_r+0x5dc>
   1a31e:	47a5                	li	a5,9
   1a320:	6f77e163          	bltu	a5,s7,1aa02 <_svfiprintf_r+0x858>
   1a324:	030b8b9b          	addiw	s7,s7,48
   1a328:	0d710da3          	sb	s7,219(sp)
   1a32c:	8d36                	mv	s10,a3
   1a32e:	4905                	li	s2,1
   1a330:	0db10c93          	addi	s9,sp,219
   1a334:	a055                	j	1a3d8 <_svfiprintf_r+0x22e>
   1a336:	010d6e13          	ori	t3,s10,16
   1a33a:	000e0d1b          	sext.w	s10,t3
   1a33e:	020d7793          	andi	a5,s10,32
   1a342:	008c0613          	addi	a2,s8,8
   1a346:	46078463          	beqz	a5,1a7ae <_svfiprintf_r+0x604>
   1a34a:	000c3b83          	ld	s7,0(s8)
   1a34e:	bffd7693          	andi	a3,s10,-1025
   1a352:	2681                	sext.w	a3,a3
   1a354:	8c32                	mv	s8,a2
   1a356:	4781                	li	a5,0
   1a358:	04010ba3          	sb	zero,87(sp)
   1a35c:	567d                	li	a2,-1
   1a35e:	04c80163          	beq	a6,a2,1a3a0 <_svfiprintf_r+0x1f6>
   1a362:	f7f6fe13          	andi	t3,a3,-129
   1a366:	000e0d1b          	sext.w	s10,t3
   1a36a:	020b9a63          	bnez	s7,1a39e <_svfiprintf_r+0x1f4>
   1a36e:	7c081163          	bnez	a6,1ab30 <_svfiprintf_r+0x986>
   1a372:	40079d63          	bnez	a5,1a78c <_svfiprintf_r+0x5e2>
   1a376:	0016f913          	andi	s2,a3,1
   1a37a:	0dc10c93          	addi	s9,sp,220
   1a37e:	04090d63          	beqz	s2,1a3d8 <_svfiprintf_r+0x22e>
   1a382:	03000793          	li	a5,48
   1a386:	0cf10da3          	sb	a5,219(sp)
   1a38a:	0db10c93          	addi	s9,sp,219
   1a38e:	a0a9                	j	1a3d8 <_svfiprintf_r+0x22e>
   1a390:	41b4093b          	subw	s2,s0,s11
   1a394:	e8091be3          	bnez	s2,1a22a <_svfiprintf_r+0x80>
   1a398:	00044783          	lbu	a5,0(s0)
   1a39c:	bd6d                	j	1a256 <_svfiprintf_r+0xac>
   1a39e:	86ea                	mv	a3,s10
   1a3a0:	4605                	li	a2,1
   1a3a2:	f6c78ee3          	beq	a5,a2,1a31e <_svfiprintf_r+0x174>
   1a3a6:	4609                	li	a2,2
   1a3a8:	26c78063          	beq	a5,a2,1a608 <_svfiprintf_r+0x45e>
   1a3ac:	0dc10913          	addi	s2,sp,220
   1a3b0:	8cca                	mv	s9,s2
   1a3b2:	007bf793          	andi	a5,s7,7
   1a3b6:	03078793          	addi	a5,a5,48
   1a3ba:	fefc8fa3          	sb	a5,-1(s9)
   1a3be:	003bdb93          	srli	s7,s7,0x3
   1a3c2:	8666                	mv	a2,s9
   1a3c4:	1cfd                	addi	s9,s9,-1
   1a3c6:	fe0b96e3          	bnez	s7,1a3b2 <_svfiprintf_r+0x208>
   1a3ca:	0016f593          	andi	a1,a3,1
   1a3ce:	3c059463          	bnez	a1,1a796 <_svfiprintf_r+0x5ec>
   1a3d2:	4199093b          	subw	s2,s2,s9
   1a3d6:	8d36                	mv	s10,a3
   1a3d8:	87c2                	mv	a5,a6
   1a3da:	01285363          	bge	a6,s2,1a3e0 <_svfiprintf_r+0x236>
   1a3de:	87ca                	mv	a5,s2
   1a3e0:	05714683          	lbu	a3,87(sp)
   1a3e4:	00078b9b          	sext.w	s7,a5
   1a3e8:	c299                	beqz	a3,1a3ee <_svfiprintf_r+0x244>
   1a3ea:	00178b9b          	addiw	s7,a5,1
   1a3ee:	002d7293          	andi	t0,s10,2
   1a3f2:	00028363          	beqz	t0,1a3f8 <_svfiprintf_r+0x24e>
   1a3f6:	2b89                	addiw	s7,s7,2
   1a3f8:	084d7f13          	andi	t5,s10,132
   1a3fc:	77c6                	ld	a5,112(sp)
   1a3fe:	5626                	lw	a2,104(sp)
   1a400:	000f1663          	bnez	t5,1a40c <_svfiprintf_r+0x262>
   1a404:	417406bb          	subw	a3,s0,s7
   1a408:	22d04a63          	bgtz	a3,1a63c <_svfiprintf_r+0x492>
   1a40c:	05714e83          	lbu	t4,87(sp)
   1a410:	0016059b          	addiw	a1,a2,1
   1a414:	01070693          	addi	a3,a4,16
   1a418:	020e8763          	beqz	t4,1a446 <_svfiprintf_r+0x29c>
   1a41c:	05710e93          	addi	t4,sp,87
   1a420:	0785                	addi	a5,a5,1
   1a422:	01d73023          	sd	t4,0(a4)
   1a426:	4e85                	li	t4,1
   1a428:	01d73423          	sd	t4,8(a4)
   1a42c:	f8be                	sd	a5,112(sp)
   1a42e:	d4ae                	sw	a1,104(sp)
   1a430:	451d                	li	a0,7
   1a432:	28b54c63          	blt	a0,a1,1a6ca <_svfiprintf_r+0x520>
   1a436:	00260e9b          	addiw	t4,a2,2
   1a43a:	02070513          	addi	a0,a4,32
   1a43e:	862e                	mv	a2,a1
   1a440:	8736                	mv	a4,a3
   1a442:	85f6                	mv	a1,t4
   1a444:	86aa                	mv	a3,a0
   1a446:	02028063          	beqz	t0,1a466 <_svfiprintf_r+0x2bc>
   1a44a:	08b0                	addi	a2,sp,88
   1a44c:	e310                	sd	a2,0(a4)
   1a44e:	0789                	addi	a5,a5,2
   1a450:	4609                	li	a2,2
   1a452:	e710                	sd	a2,8(a4)
   1a454:	f8be                	sd	a5,112(sp)
   1a456:	d4ae                	sw	a1,104(sp)
   1a458:	471d                	li	a4,7
   1a45a:	28b74c63          	blt	a4,a1,1a6f2 <_svfiprintf_r+0x548>
   1a45e:	862e                	mv	a2,a1
   1a460:	8736                	mv	a4,a3
   1a462:	2585                	addiw	a1,a1,1
   1a464:	06c1                	addi	a3,a3,16
   1a466:	08000513          	li	a0,128
   1a46a:	08af0063          	beq	t5,a0,1a4ea <_svfiprintf_r+0x340>
   1a46e:	4128083b          	subw	a6,a6,s2
   1a472:	0f004a63          	bgtz	a6,1a566 <_svfiprintf_r+0x3bc>
   1a476:	97ca                	add	a5,a5,s2
   1a478:	01973023          	sd	s9,0(a4)
   1a47c:	01273423          	sd	s2,8(a4)
   1a480:	f8be                	sd	a5,112(sp)
   1a482:	d4ae                	sw	a1,104(sp)
   1a484:	471d                	li	a4,7
   1a486:	14b74e63          	blt	a4,a1,1a5e2 <_svfiprintf_r+0x438>
   1a48a:	004d7e13          	andi	t3,s10,4
   1a48e:	000e0663          	beqz	t3,1a49a <_svfiprintf_r+0x2f0>
   1a492:	4174093b          	subw	s2,s0,s7
   1a496:	29204063          	bgtz	s2,1a716 <_svfiprintf_r+0x56c>
   1a49a:	8722                	mv	a4,s0
   1a49c:	01745363          	bge	s0,s7,1a4a2 <_svfiprintf_r+0x2f8>
   1a4a0:	875e                	mv	a4,s7
   1a4a2:	6682                	ld	a3,0(sp)
   1a4a4:	9f35                	addw	a4,a4,a3
   1a4a6:	e03a                	sd	a4,0(sp)
   1a4a8:	14079763          	bnez	a5,1a5f6 <_svfiprintf_r+0x44c>
   1a4ac:	000dc783          	lbu	a5,0(s11)
   1a4b0:	d482                	sw	zero,104(sp)
   1a4b2:	8752                	mv	a4,s4
   1a4b4:	d4079ee3          	bnez	a5,1a210 <_svfiprintf_r+0x66>
   1a4b8:	77c6                	ld	a5,112(sp)
   1a4ba:	74079e63          	bnez	a5,1ac16 <_svfiprintf_r+0xa6c>
   1a4be:	0109d783          	lhu	a5,16(s3)
   1a4c2:	0407f793          	andi	a5,a5,64
   1a4c6:	76079b63          	bnez	a5,1ac3c <_svfiprintf_r+0xa92>
   1a4ca:	60be                	ld	ra,456(sp)
   1a4cc:	641e                	ld	s0,448(sp)
   1a4ce:	6502                	ld	a0,0(sp)
   1a4d0:	74fa                	ld	s1,440(sp)
   1a4d2:	795a                	ld	s2,432(sp)
   1a4d4:	79ba                	ld	s3,424(sp)
   1a4d6:	7a1a                	ld	s4,416(sp)
   1a4d8:	6afa                	ld	s5,408(sp)
   1a4da:	6b5a                	ld	s6,400(sp)
   1a4dc:	6bba                	ld	s7,392(sp)
   1a4de:	6c1a                	ld	s8,384(sp)
   1a4e0:	7cf6                	ld	s9,376(sp)
   1a4e2:	7d56                	ld	s10,368(sp)
   1a4e4:	7db6                	ld	s11,360(sp)
   1a4e6:	6179                	addi	sp,sp,464
   1a4e8:	8082                	ret
   1a4ea:	41740ebb          	subw	t4,s0,s7
   1a4ee:	f9d050e3          	blez	t4,1a46e <_svfiprintf_r+0x2c4>
   1a4f2:	4541                	li	a0,16
   1a4f4:	73d55e63          	bge	a0,t4,1ac30 <_svfiprintf_r+0xa86>
   1a4f8:	4f41                	li	t5,16
   1a4fa:	429d                	li	t0,7
   1a4fc:	a021                	j	1a504 <_svfiprintf_r+0x35a>
   1a4fe:	3ec1                	addiw	t4,t4,-16
   1a500:	03df5e63          	bge	t5,t4,1a53c <_svfiprintf_r+0x392>
   1a504:	2605                	addiw	a2,a2,1
   1a506:	07c1                	addi	a5,a5,16
   1a508:	e304                	sd	s1,0(a4)
   1a50a:	01e73423          	sd	t5,8(a4)
   1a50e:	f8be                	sd	a5,112(sp)
   1a510:	d4b2                	sw	a2,104(sp)
   1a512:	0741                	addi	a4,a4,16
   1a514:	fec2d5e3          	bge	t0,a2,1a4fe <_svfiprintf_r+0x354>
   1a518:	1090                	addi	a2,sp,96
   1a51a:	85ce                	mv	a1,s3
   1a51c:	8556                	mv	a0,s5
   1a51e:	f042                	sd	a6,32(sp)
   1a520:	e476                	sd	t4,8(sp)
   1a522:	b2bff0ef          	jal	ra,1a04c <__ssprint_r>
   1a526:	fd41                	bnez	a0,1a4be <_svfiprintf_r+0x314>
   1a528:	6ea2                	ld	t4,8(sp)
   1a52a:	4f41                	li	t5,16
   1a52c:	77c6                	ld	a5,112(sp)
   1a52e:	3ec1                	addiw	t4,t4,-16
   1a530:	5626                	lw	a2,104(sp)
   1a532:	7802                	ld	a6,32(sp)
   1a534:	8752                	mv	a4,s4
   1a536:	429d                	li	t0,7
   1a538:	fddf46e3          	blt	t5,t4,1a504 <_svfiprintf_r+0x35a>
   1a53c:	2605                	addiw	a2,a2,1
   1a53e:	01070513          	addi	a0,a4,16
   1a542:	97f6                	add	a5,a5,t4
   1a544:	e304                	sd	s1,0(a4)
   1a546:	01d73423          	sd	t4,8(a4)
   1a54a:	f8be                	sd	a5,112(sp)
   1a54c:	d4b2                	sw	a2,104(sp)
   1a54e:	471d                	li	a4,7
   1a550:	5ec74863          	blt	a4,a2,1ab40 <_svfiprintf_r+0x996>
   1a554:	4128083b          	subw	a6,a6,s2
   1a558:	0016059b          	addiw	a1,a2,1
   1a55c:	01050693          	addi	a3,a0,16
   1a560:	872a                	mv	a4,a0
   1a562:	f1005ae3          	blez	a6,1a476 <_svfiprintf_r+0x2cc>
   1a566:	4541                	li	a0,16
   1a568:	67055a63          	bge	a0,a6,1abdc <_svfiprintf_r+0xa32>
   1a56c:	4ec1                	li	t4,16
   1a56e:	4f1d                	li	t5,7
   1a570:	a021                	j	1a578 <_svfiprintf_r+0x3ce>
   1a572:	3841                	addiw	a6,a6,-16
   1a574:	030edc63          	bge	t4,a6,1a5ac <_svfiprintf_r+0x402>
   1a578:	2605                	addiw	a2,a2,1
   1a57a:	07c1                	addi	a5,a5,16
   1a57c:	e304                	sd	s1,0(a4)
   1a57e:	01d73423          	sd	t4,8(a4)
   1a582:	f8be                	sd	a5,112(sp)
   1a584:	d4b2                	sw	a2,104(sp)
   1a586:	0741                	addi	a4,a4,16
   1a588:	fecf55e3          	bge	t5,a2,1a572 <_svfiprintf_r+0x3c8>
   1a58c:	1090                	addi	a2,sp,96
   1a58e:	85ce                	mv	a1,s3
   1a590:	8556                	mv	a0,s5
   1a592:	e442                	sd	a6,8(sp)
   1a594:	ab9ff0ef          	jal	ra,1a04c <__ssprint_r>
   1a598:	f11d                	bnez	a0,1a4be <_svfiprintf_r+0x314>
   1a59a:	6822                	ld	a6,8(sp)
   1a59c:	4ec1                	li	t4,16
   1a59e:	77c6                	ld	a5,112(sp)
   1a5a0:	3841                	addiw	a6,a6,-16
   1a5a2:	5626                	lw	a2,104(sp)
   1a5a4:	8752                	mv	a4,s4
   1a5a6:	4f1d                	li	t5,7
   1a5a8:	fd0ec8e3          	blt	t4,a6,1a578 <_svfiprintf_r+0x3ce>
   1a5ac:	0016059b          	addiw	a1,a2,1
   1a5b0:	01070613          	addi	a2,a4,16
   1a5b4:	97c2                	add	a5,a5,a6
   1a5b6:	e304                	sd	s1,0(a4)
   1a5b8:	01073423          	sd	a6,8(a4)
   1a5bc:	f8be                	sd	a5,112(sp)
   1a5be:	d4ae                	sw	a1,104(sp)
   1a5c0:	471d                	li	a4,7
   1a5c2:	42b74363          	blt	a4,a1,1a9e8 <_svfiprintf_r+0x83e>
   1a5c6:	8732                	mv	a4,a2
   1a5c8:	2585                	addiw	a1,a1,1
   1a5ca:	97ca                	add	a5,a5,s2
   1a5cc:	01973023          	sd	s9,0(a4)
   1a5d0:	01273423          	sd	s2,8(a4)
   1a5d4:	f8be                	sd	a5,112(sp)
   1a5d6:	d4ae                	sw	a1,104(sp)
   1a5d8:	471d                	li	a4,7
   1a5da:	01060693          	addi	a3,a2,16
   1a5de:	eab756e3          	bge	a4,a1,1a48a <_svfiprintf_r+0x2e0>
   1a5e2:	1090                	addi	a2,sp,96
   1a5e4:	85ce                	mv	a1,s3
   1a5e6:	8556                	mv	a0,s5
   1a5e8:	a65ff0ef          	jal	ra,1a04c <__ssprint_r>
   1a5ec:	ec0519e3          	bnez	a0,1a4be <_svfiprintf_r+0x314>
   1a5f0:	77c6                	ld	a5,112(sp)
   1a5f2:	86d2                	mv	a3,s4
   1a5f4:	bd59                	j	1a48a <_svfiprintf_r+0x2e0>
   1a5f6:	1090                	addi	a2,sp,96
   1a5f8:	85ce                	mv	a1,s3
   1a5fa:	8556                	mv	a0,s5
   1a5fc:	a51ff0ef          	jal	ra,1a04c <__ssprint_r>
   1a600:	ea0506e3          	beqz	a0,1a4ac <_svfiprintf_r+0x302>
   1a604:	bd6d                	j	1a4be <_svfiprintf_r+0x314>
   1a606:	86ea                	mv	a3,s10
   1a608:	0dc10913          	addi	s2,sp,220
   1a60c:	8cca                	mv	s9,s2
   1a60e:	6642                	ld	a2,16(sp)
   1a610:	00fbf793          	andi	a5,s7,15
   1a614:	1cfd                	addi	s9,s9,-1
   1a616:	97b2                	add	a5,a5,a2
   1a618:	0007c783          	lbu	a5,0(a5)
   1a61c:	004bdb93          	srli	s7,s7,0x4
   1a620:	00fc8023          	sb	a5,0(s9)
   1a624:	fe0b95e3          	bnez	s7,1a60e <_svfiprintf_r+0x464>
   1a628:	b36d                	j	1a3d2 <_svfiprintf_r+0x228>
   1a62a:	1090                	addi	a2,sp,96
   1a62c:	85ce                	mv	a1,s3
   1a62e:	8556                	mv	a0,s5
   1a630:	a1dff0ef          	jal	ra,1a04c <__ssprint_r>
   1a634:	e80515e3          	bnez	a0,1a4be <_svfiprintf_r+0x314>
   1a638:	8752                	mv	a4,s4
   1a63a:	b901                	j	1a24a <_svfiprintf_r+0xa0>
   1a63c:	45c1                	li	a1,16
   1a63e:	04d5da63          	bge	a1,a3,1a692 <_svfiprintf_r+0x4e8>
   1a642:	4ec1                	li	t4,16
   1a644:	439d                	li	t2,7
   1a646:	a021                	j	1a64e <_svfiprintf_r+0x4a4>
   1a648:	36c1                	addiw	a3,a3,-16
   1a64a:	04ded463          	bge	t4,a3,1a692 <_svfiprintf_r+0x4e8>
   1a64e:	2605                	addiw	a2,a2,1
   1a650:	07c1                	addi	a5,a5,16
   1a652:	01673023          	sd	s6,0(a4)
   1a656:	01d73423          	sd	t4,8(a4)
   1a65a:	f8be                	sd	a5,112(sp)
   1a65c:	d4b2                	sw	a2,104(sp)
   1a65e:	0741                	addi	a4,a4,16
   1a660:	fec3d4e3          	bge	t2,a2,1a648 <_svfiprintf_r+0x49e>
   1a664:	1090                	addi	a2,sp,96
   1a666:	85ce                	mv	a1,s3
   1a668:	8556                	mv	a0,s5
   1a66a:	f836                	sd	a3,48(sp)
   1a66c:	f442                	sd	a6,40(sp)
   1a66e:	f07a                	sd	t5,32(sp)
   1a670:	e416                	sd	t0,8(sp)
   1a672:	9dbff0ef          	jal	ra,1a04c <__ssprint_r>
   1a676:	e40514e3          	bnez	a0,1a4be <_svfiprintf_r+0x314>
   1a67a:	76c2                	ld	a3,48(sp)
   1a67c:	4ec1                	li	t4,16
   1a67e:	77c6                	ld	a5,112(sp)
   1a680:	36c1                	addiw	a3,a3,-16
   1a682:	5626                	lw	a2,104(sp)
   1a684:	7822                	ld	a6,40(sp)
   1a686:	7f02                	ld	t5,32(sp)
   1a688:	62a2                	ld	t0,8(sp)
   1a68a:	8752                	mv	a4,s4
   1a68c:	439d                	li	t2,7
   1a68e:	fcdec0e3          	blt	t4,a3,1a64e <_svfiprintf_r+0x4a4>
   1a692:	97b6                	add	a5,a5,a3
   1a694:	2605                	addiw	a2,a2,1
   1a696:	e714                	sd	a3,8(a4)
   1a698:	01673023          	sd	s6,0(a4)
   1a69c:	f8be                	sd	a5,112(sp)
   1a69e:	d4b2                	sw	a2,104(sp)
   1a6a0:	469d                	li	a3,7
   1a6a2:	0741                	addi	a4,a4,16
   1a6a4:	d6c6d4e3          	bge	a3,a2,1a40c <_svfiprintf_r+0x262>
   1a6a8:	1090                	addi	a2,sp,96
   1a6aa:	85ce                	mv	a1,s3
   1a6ac:	8556                	mv	a0,s5
   1a6ae:	f442                	sd	a6,40(sp)
   1a6b0:	f07a                	sd	t5,32(sp)
   1a6b2:	e416                	sd	t0,8(sp)
   1a6b4:	999ff0ef          	jal	ra,1a04c <__ssprint_r>
   1a6b8:	e00513e3          	bnez	a0,1a4be <_svfiprintf_r+0x314>
   1a6bc:	77c6                	ld	a5,112(sp)
   1a6be:	5626                	lw	a2,104(sp)
   1a6c0:	7822                	ld	a6,40(sp)
   1a6c2:	7f02                	ld	t5,32(sp)
   1a6c4:	62a2                	ld	t0,8(sp)
   1a6c6:	8752                	mv	a4,s4
   1a6c8:	b391                	j	1a40c <_svfiprintf_r+0x262>
   1a6ca:	1090                	addi	a2,sp,96
   1a6cc:	85ce                	mv	a1,s3
   1a6ce:	8556                	mv	a0,s5
   1a6d0:	f442                	sd	a6,40(sp)
   1a6d2:	f07a                	sd	t5,32(sp)
   1a6d4:	e416                	sd	t0,8(sp)
   1a6d6:	977ff0ef          	jal	ra,1a04c <__ssprint_r>
   1a6da:	de0512e3          	bnez	a0,1a4be <_svfiprintf_r+0x314>
   1a6de:	5626                	lw	a2,104(sp)
   1a6e0:	77c6                	ld	a5,112(sp)
   1a6e2:	7822                	ld	a6,40(sp)
   1a6e4:	7f02                	ld	t5,32(sp)
   1a6e6:	62a2                	ld	t0,8(sp)
   1a6e8:	1994                	addi	a3,sp,240
   1a6ea:	0016059b          	addiw	a1,a2,1
   1a6ee:	8752                	mv	a4,s4
   1a6f0:	bb99                	j	1a446 <_svfiprintf_r+0x29c>
   1a6f2:	1090                	addi	a2,sp,96
   1a6f4:	85ce                	mv	a1,s3
   1a6f6:	8556                	mv	a0,s5
   1a6f8:	f042                	sd	a6,32(sp)
   1a6fa:	e47a                	sd	t5,8(sp)
   1a6fc:	951ff0ef          	jal	ra,1a04c <__ssprint_r>
   1a700:	da051fe3          	bnez	a0,1a4be <_svfiprintf_r+0x314>
   1a704:	5626                	lw	a2,104(sp)
   1a706:	77c6                	ld	a5,112(sp)
   1a708:	7802                	ld	a6,32(sp)
   1a70a:	6f22                	ld	t5,8(sp)
   1a70c:	1994                	addi	a3,sp,240
   1a70e:	0016059b          	addiw	a1,a2,1
   1a712:	8752                	mv	a4,s4
   1a714:	bb89                	j	1a466 <_svfiprintf_r+0x2bc>
   1a716:	4641                	li	a2,16
   1a718:	5726                	lw	a4,104(sp)
   1a71a:	05265063          	bge	a2,s2,1a75a <_svfiprintf_r+0x5b0>
   1a71e:	4d41                	li	s10,16
   1a720:	4c9d                	li	s9,7
   1a722:	a021                	j	1a72a <_svfiprintf_r+0x580>
   1a724:	3941                	addiw	s2,s2,-16
   1a726:	032d5a63          	bge	s10,s2,1a75a <_svfiprintf_r+0x5b0>
   1a72a:	2705                	addiw	a4,a4,1
   1a72c:	07c1                	addi	a5,a5,16
   1a72e:	0166b023          	sd	s6,0(a3)
   1a732:	01a6b423          	sd	s10,8(a3)
   1a736:	f8be                	sd	a5,112(sp)
   1a738:	d4ba                	sw	a4,104(sp)
   1a73a:	06c1                	addi	a3,a3,16
   1a73c:	feecd4e3          	bge	s9,a4,1a724 <_svfiprintf_r+0x57a>
   1a740:	1090                	addi	a2,sp,96
   1a742:	85ce                	mv	a1,s3
   1a744:	8556                	mv	a0,s5
   1a746:	907ff0ef          	jal	ra,1a04c <__ssprint_r>
   1a74a:	d6051ae3          	bnez	a0,1a4be <_svfiprintf_r+0x314>
   1a74e:	3941                	addiw	s2,s2,-16
   1a750:	77c6                	ld	a5,112(sp)
   1a752:	5726                	lw	a4,104(sp)
   1a754:	86d2                	mv	a3,s4
   1a756:	fd2d4ae3          	blt	s10,s2,1a72a <_svfiprintf_r+0x580>
   1a75a:	2705                	addiw	a4,a4,1
   1a75c:	97ca                	add	a5,a5,s2
   1a75e:	0166b023          	sd	s6,0(a3)
   1a762:	0126b423          	sd	s2,8(a3)
   1a766:	d4ba                	sw	a4,104(sp)
   1a768:	0007069b          	sext.w	a3,a4
   1a76c:	f8be                	sd	a5,112(sp)
   1a76e:	471d                	li	a4,7
   1a770:	d2d755e3          	bge	a4,a3,1a49a <_svfiprintf_r+0x2f0>
   1a774:	1090                	addi	a2,sp,96
   1a776:	85ce                	mv	a1,s3
   1a778:	8556                	mv	a0,s5
   1a77a:	8d3ff0ef          	jal	ra,1a04c <__ssprint_r>
   1a77e:	d40510e3          	bnez	a0,1a4be <_svfiprintf_r+0x314>
   1a782:	77c6                	ld	a5,112(sp)
   1a784:	bb19                	j	1a49a <_svfiprintf_r+0x2f0>
   1a786:	b8081fe3          	bnez	a6,1a324 <_svfiprintf_r+0x17a>
   1a78a:	8d36                	mv	s10,a3
   1a78c:	4801                	li	a6,0
   1a78e:	4901                	li	s2,0
   1a790:	0dc10c93          	addi	s9,sp,220
   1a794:	b191                	j	1a3d8 <_svfiprintf_r+0x22e>
   1a796:	03000593          	li	a1,48
   1a79a:	c2b78ce3          	beq	a5,a1,1a3d2 <_svfiprintf_r+0x228>
   1a79e:	1679                	addi	a2,a2,-2
   1a7a0:	febc8fa3          	sb	a1,-1(s9)
   1a7a4:	40c9093b          	subw	s2,s2,a2
   1a7a8:	8d36                	mv	s10,a3
   1a7aa:	8cb2                	mv	s9,a2
   1a7ac:	b135                	j	1a3d8 <_svfiprintf_r+0x22e>
   1a7ae:	010d7793          	andi	a5,s10,16
   1a7b2:	b8079ce3          	bnez	a5,1a34a <_svfiprintf_r+0x1a0>
   1a7b6:	040d7793          	andi	a5,s10,64
   1a7ba:	000c2b83          	lw	s7,0(s8)
   1a7be:	40078863          	beqz	a5,1abce <_svfiprintf_r+0xa24>
   1a7c2:	1bc2                	slli	s7,s7,0x30
   1a7c4:	030bdb93          	srli	s7,s7,0x30
   1a7c8:	b659                	j	1a34e <_svfiprintf_r+0x1a4>
   1a7ca:	010d7793          	andi	a5,s10,16
   1a7ce:	b20799e3          	bnez	a5,1a300 <_svfiprintf_r+0x156>
   1a7d2:	040d7793          	andi	a5,s10,64
   1a7d6:	3c078463          	beqz	a5,1ab9e <_svfiprintf_r+0x9f4>
   1a7da:	000c1b83          	lh	s7,0(s8)
   1a7de:	87de                	mv	a5,s7
   1a7e0:	b207d5e3          	bgez	a5,1a30a <_svfiprintf_r+0x160>
   1a7e4:	02d00793          	li	a5,45
   1a7e8:	04f10ba3          	sb	a5,87(sp)
   1a7ec:	41700bb3          	neg	s7,s7
   1a7f0:	8c32                	mv	s8,a2
   1a7f2:	86ea                	mv	a3,s10
   1a7f4:	4785                	li	a5,1
   1a7f6:	b69d                	j	1a35c <_svfiprintf_r+0x1b2>
   1a7f8:	000c3c83          	ld	s9,0(s8)
   1a7fc:	04010ba3          	sb	zero,87(sp)
   1a800:	0c21                	addi	s8,s8,8
   1a802:	380c8163          	beqz	s9,1ab84 <_svfiprintf_r+0x9da>
   1a806:	57fd                	li	a5,-1
   1a808:	2ef80b63          	beq	a6,a5,1aafe <_svfiprintf_r+0x954>
   1a80c:	8642                	mv	a2,a6
   1a80e:	4581                	li	a1,0
   1a810:	8566                	mv	a0,s9
   1a812:	f03a                	sd	a4,32(sp)
   1a814:	e442                	sd	a6,8(sp)
   1a816:	ee7fa0ef          	jal	ra,156fc <memchr>
   1a81a:	6822                	ld	a6,8(sp)
   1a81c:	7702                	ld	a4,32(sp)
   1a81e:	40050263          	beqz	a0,1ac22 <_svfiprintf_r+0xa78>
   1a822:	4195093b          	subw	s2,a0,s9
   1a826:	4801                	li	a6,0
   1a828:	be45                	j	1a3d8 <_svfiprintf_r+0x22e>
   1a82a:	000c2783          	lw	a5,0(s8)
   1a82e:	04010ba3          	sb	zero,87(sp)
   1a832:	0c21                	addi	s8,s8,8
   1a834:	06f10c23          	sb	a5,120(sp)
   1a838:	4b85                	li	s7,1
   1a83a:	4905                	li	s2,1
   1a83c:	07810c93          	addi	s9,sp,120
   1a840:	4801                	li	a6,0
   1a842:	b675                	j	1a3ee <_svfiprintf_r+0x244>
   1a844:	020d6e13          	ori	t3,s10,32
   1a848:	000dc783          	lbu	a5,0(s11)
   1a84c:	000e0d1b          	sext.w	s10,t3
   1a850:	b40d                	j	1a272 <_svfiprintf_r+0xc8>
   1a852:	77e1                	lui	a5,0xffff8
   1a854:	002d6693          	ori	a3,s10,2
   1a858:	8307c793          	xori	a5,a5,-2000
   1a85c:	6d75                	lui	s10,0x1d
   1a85e:	04f11c23          	sh	a5,88(sp)
   1a862:	8a0d0793          	addi	a5,s10,-1888 # 1c8a0 <__clzdi2+0x98>
   1a866:	000c3b83          	ld	s7,0(s8)
   1a86a:	e83e                	sd	a5,16(sp)
   1a86c:	2681                	sext.w	a3,a3
   1a86e:	0c21                	addi	s8,s8,8
   1a870:	4789                	li	a5,2
   1a872:	b4dd                	j	1a358 <_svfiprintf_r+0x1ae>
   1a874:	020d7793          	andi	a5,s10,32
   1a878:	000c3683          	ld	a3,0(s8)
   1a87c:	0c21                	addi	s8,s8,8
   1a87e:	e385                	bnez	a5,1a89e <_svfiprintf_r+0x6f4>
   1a880:	010d7793          	andi	a5,s10,16
   1a884:	ef89                	bnez	a5,1a89e <_svfiprintf_r+0x6f4>
   1a886:	040d7793          	andi	a5,s10,64
   1a88a:	38079163          	bnez	a5,1ac0c <_svfiprintf_r+0xa62>
   1a88e:	200d7e13          	andi	t3,s10,512
   1a892:	6782                	ld	a5,0(sp)
   1a894:	3a0e0163          	beqz	t3,1ac36 <_svfiprintf_r+0xa8c>
   1a898:	00f68023          	sb	a5,0(a3)
   1a89c:	b2b5                	j	1a208 <_svfiprintf_r+0x5e>
   1a89e:	6782                	ld	a5,0(sp)
   1a8a0:	e29c                	sd	a5,0(a3)
   1a8a2:	b29d                	j	1a208 <_svfiprintf_r+0x5e>
   1a8a4:	000dc783          	lbu	a5,0(s11)
   1a8a8:	06c00693          	li	a3,108
   1a8ac:	2cd78363          	beq	a5,a3,1ab72 <_svfiprintf_r+0x9c8>
   1a8b0:	010d6e13          	ori	t3,s10,16
   1a8b4:	000e0d1b          	sext.w	s10,t3
   1a8b8:	ba6d                	j	1a272 <_svfiprintf_r+0xc8>
   1a8ba:	000dc783          	lbu	a5,0(s11)
   1a8be:	06800693          	li	a3,104
   1a8c2:	28d78f63          	beq	a5,a3,1ab60 <_svfiprintf_r+0x9b6>
   1a8c6:	040d6e13          	ori	t3,s10,64
   1a8ca:	000e0d1b          	sext.w	s10,t3
   1a8ce:	b255                	j	1a272 <_svfiprintf_r+0xc8>
   1a8d0:	010d6693          	ori	a3,s10,16
   1a8d4:	2681                	sext.w	a3,a3
   1a8d6:	0206f793          	andi	a5,a3,32
   1a8da:	008c0613          	addi	a2,s8,8
   1a8de:	e385                	bnez	a5,1a8fe <_svfiprintf_r+0x754>
   1a8e0:	0106f793          	andi	a5,a3,16
   1a8e4:	ef89                	bnez	a5,1a8fe <_svfiprintf_r+0x754>
   1a8e6:	0406f793          	andi	a5,a3,64
   1a8ea:	000c2b83          	lw	s7,0(s8)
   1a8ee:	2c078163          	beqz	a5,1abb0 <_svfiprintf_r+0xa06>
   1a8f2:	1bc2                	slli	s7,s7,0x30
   1a8f4:	030bdb93          	srli	s7,s7,0x30
   1a8f8:	8c32                	mv	s8,a2
   1a8fa:	4785                	li	a5,1
   1a8fc:	bcb1                	j	1a358 <_svfiprintf_r+0x1ae>
   1a8fe:	000c3b83          	ld	s7,0(s8)
   1a902:	4785                	li	a5,1
   1a904:	8c32                	mv	s8,a2
   1a906:	bc89                	j	1a358 <_svfiprintf_r+0x1ae>
   1a908:	080d6e13          	ori	t3,s10,128
   1a90c:	000dc783          	lbu	a5,0(s11)
   1a910:	000e0d1b          	sext.w	s10,t3
   1a914:	bab9                	j	1a272 <_svfiprintf_r+0xc8>
   1a916:	000dc783          	lbu	a5,0(s11)
   1a91a:	001d8693          	addi	a3,s11,1
   1a91e:	32b78263          	beq	a5,a1,1ac42 <_svfiprintf_r+0xa98>
   1a922:	fd07861b          	addiw	a2,a5,-48
   1a926:	8db6                	mv	s11,a3
   1a928:	4801                	li	a6,0
   1a92a:	94cbe8e3          	bltu	s7,a2,1a27a <_svfiprintf_r+0xd0>
   1a92e:	000dc783          	lbu	a5,0(s11)
   1a932:	0028169b          	slliw	a3,a6,0x2
   1a936:	0106883b          	addw	a6,a3,a6
   1a93a:	0018181b          	slliw	a6,a6,0x1
   1a93e:	00c8083b          	addw	a6,a6,a2
   1a942:	fd07861b          	addiw	a2,a5,-48
   1a946:	0d85                	addi	s11,s11,1
   1a948:	fecbf3e3          	bgeu	s7,a2,1a92e <_svfiprintf_r+0x784>
   1a94c:	b23d                	j	1a27a <_svfiprintf_r+0xd0>
   1a94e:	000dc783          	lbu	a5,0(s11)
   1a952:	004d6e13          	ori	t3,s10,4
   1a956:	000e0d1b          	sext.w	s10,t3
   1a95a:	ba21                	j	1a272 <_svfiprintf_r+0xc8>
   1a95c:	02b00693          	li	a3,43
   1a960:	000dc783          	lbu	a5,0(s11)
   1a964:	04d10ba3          	sb	a3,87(sp)
   1a968:	b229                	j	1a272 <_svfiprintf_r+0xc8>
   1a96a:	000c2403          	lw	s0,0(s8)
   1a96e:	000dc783          	lbu	a5,0(s11)
   1a972:	0c21                	addi	s8,s8,8
   1a974:	8e045fe3          	bgez	s0,1a272 <_svfiprintf_r+0xc8>
   1a978:	4080043b          	negw	s0,s0
   1a97c:	bfd9                	j	1a952 <_svfiprintf_r+0x7a8>
   1a97e:	8556                	mv	a0,s5
   1a980:	f03a                	sd	a4,32(sp)
   1a982:	e442                	sd	a6,8(sp)
   1a984:	af3fa0ef          	jal	ra,15476 <_localeconv_r>
   1a988:	651c                	ld	a5,8(a0)
   1a98a:	853e                	mv	a0,a5
   1a98c:	e0be                	sd	a5,64(sp)
   1a98e:	f09fb0ef          	jal	ra,16896 <strlen>
   1a992:	87aa                	mv	a5,a0
   1a994:	8556                	mv	a0,s5
   1a996:	8cbe                	mv	s9,a5
   1a998:	e4be                	sd	a5,72(sp)
   1a99a:	addfa0ef          	jal	ra,15476 <_localeconv_r>
   1a99e:	6914                	ld	a3,16(a0)
   1a9a0:	6822                	ld	a6,8(sp)
   1a9a2:	7702                	ld	a4,32(sp)
   1a9a4:	fc36                	sd	a3,56(sp)
   1a9a6:	0e0c8063          	beqz	s9,1aa86 <_svfiprintf_r+0x8dc>
   1a9aa:	000dc783          	lbu	a5,0(s11)
   1a9ae:	8c0682e3          	beqz	a3,1a272 <_svfiprintf_r+0xc8>
   1a9b2:	0006c683          	lbu	a3,0(a3)
   1a9b6:	8a068ee3          	beqz	a3,1a272 <_svfiprintf_r+0xc8>
   1a9ba:	400d6e13          	ori	t3,s10,1024
   1a9be:	000e0d1b          	sext.w	s10,t3
   1a9c2:	b845                	j	1a272 <_svfiprintf_r+0xc8>
   1a9c4:	001d6e13          	ori	t3,s10,1
   1a9c8:	000dc783          	lbu	a5,0(s11)
   1a9cc:	000e0d1b          	sext.w	s10,t3
   1a9d0:	b04d                	j	1a272 <_svfiprintf_r+0xc8>
   1a9d2:	05714683          	lbu	a3,87(sp)
   1a9d6:	000dc783          	lbu	a5,0(s11)
   1a9da:	88069ce3          	bnez	a3,1a272 <_svfiprintf_r+0xc8>
   1a9de:	02000693          	li	a3,32
   1a9e2:	04d10ba3          	sb	a3,87(sp)
   1a9e6:	b071                	j	1a272 <_svfiprintf_r+0xc8>
   1a9e8:	1090                	addi	a2,sp,96
   1a9ea:	85ce                	mv	a1,s3
   1a9ec:	8556                	mv	a0,s5
   1a9ee:	e5eff0ef          	jal	ra,1a04c <__ssprint_r>
   1a9f2:	ac0516e3          	bnez	a0,1a4be <_svfiprintf_r+0x314>
   1a9f6:	55a6                	lw	a1,104(sp)
   1a9f8:	77c6                	ld	a5,112(sp)
   1a9fa:	1994                	addi	a3,sp,240
   1a9fc:	2585                	addiw	a1,a1,1
   1a9fe:	8752                	mv	a4,s4
   1aa00:	bc9d                	j	1a476 <_svfiprintf_r+0x2cc>
   1aa02:	0dc10913          	addi	s2,sp,220
   1aa06:	4006fe93          	andi	t4,a3,1024
   1aa0a:	4501                	li	a0,0
   1aa0c:	85ca                	mv	a1,s2
   1aa0e:	47a9                	li	a5,10
   1aa10:	4e25                	li	t3,9
   1aa12:	0ff00d13          	li	s10,255
   1aa16:	a039                	j	1aa24 <_svfiprintf_r+0x87a>
   1aa18:	02fbd633          	divu	a2,s7,a5
   1aa1c:	9b7e7be3          	bgeu	t3,s7,1a3d2 <_svfiprintf_r+0x228>
   1aa20:	8bb2                	mv	s7,a2
   1aa22:	85e6                	mv	a1,s9
   1aa24:	fff58c93          	addi	s9,a1,-1
   1aa28:	2505                	addiw	a0,a0,1
   1aa2a:	02fbf633          	remu	a2,s7,a5
   1aa2e:	0306061b          	addiw	a2,a2,48
   1aa32:	fec58fa3          	sb	a2,-1(a1)
   1aa36:	fe0e81e3          	beqz	t4,1aa18 <_svfiprintf_r+0x86e>
   1aa3a:	7662                	ld	a2,56(sp)
   1aa3c:	00064603          	lbu	a2,0(a2)
   1aa40:	fca61ce3          	bne	a2,a0,1aa18 <_svfiprintf_r+0x86e>
   1aa44:	fda60ae3          	beq	a2,s10,1aa18 <_svfiprintf_r+0x86e>
   1aa48:	997e75e3          	bgeu	t3,s7,1a3d2 <_svfiprintf_r+0x228>
   1aa4c:	67a6                	ld	a5,72(sp)
   1aa4e:	6586                	ld	a1,64(sp)
   1aa50:	f876                	sd	t4,48(sp)
   1aa52:	40fc8cb3          	sub	s9,s9,a5
   1aa56:	863e                	mv	a2,a5
   1aa58:	8566                	mv	a0,s9
   1aa5a:	f43a                	sd	a4,40(sp)
   1aa5c:	f042                	sd	a6,32(sp)
   1aa5e:	e436                	sd	a3,8(sp)
   1aa60:	ec7fb0ef          	jal	ra,16926 <strncpy>
   1aa64:	7762                	ld	a4,56(sp)
   1aa66:	47a9                	li	a5,10
   1aa68:	02fbd633          	divu	a2,s7,a5
   1aa6c:	00174583          	lbu	a1,1(a4)
   1aa70:	66a2                	ld	a3,8(sp)
   1aa72:	7802                	ld	a6,32(sp)
   1aa74:	00b035b3          	snez	a1,a1
   1aa78:	972e                	add	a4,a4,a1
   1aa7a:	fc3a                	sd	a4,56(sp)
   1aa7c:	7ec2                	ld	t4,48(sp)
   1aa7e:	7722                	ld	a4,40(sp)
   1aa80:	4501                	li	a0,0
   1aa82:	4e25                	li	t3,9
   1aa84:	bf71                	j	1aa20 <_svfiprintf_r+0x876>
   1aa86:	000dc783          	lbu	a5,0(s11)
   1aa8a:	fe8ff06f          	j	1a272 <_svfiprintf_r+0xc8>
   1aa8e:	86ea                	mv	a3,s10
   1aa90:	b599                	j	1a8d6 <_svfiprintf_r+0x72c>
   1aa92:	66f5                	lui	a3,0x1d
   1aa94:	88868693          	addi	a3,a3,-1912 # 1c888 <__clzdi2+0x80>
   1aa98:	e836                	sd	a3,16(sp)
   1aa9a:	020d7693          	andi	a3,s10,32
   1aa9e:	008c0613          	addi	a2,s8,8
   1aaa2:	eab9                	bnez	a3,1aaf8 <_svfiprintf_r+0x94e>
   1aaa4:	010d7693          	andi	a3,s10,16
   1aaa8:	eaa1                	bnez	a3,1aaf8 <_svfiprintf_r+0x94e>
   1aaaa:	040d7693          	andi	a3,s10,64
   1aaae:	000c2b83          	lw	s7,0(s8)
   1aab2:	10068863          	beqz	a3,1abc2 <_svfiprintf_r+0xa18>
   1aab6:	1bc2                	slli	s7,s7,0x30
   1aab8:	030bdb93          	srli	s7,s7,0x30
   1aabc:	001d7693          	andi	a3,s10,1
   1aac0:	ce89                	beqz	a3,1aada <_svfiprintf_r+0x930>
   1aac2:	000b8c63          	beqz	s7,1aada <_svfiprintf_r+0x930>
   1aac6:	002d6e13          	ori	t3,s10,2
   1aaca:	03000693          	li	a3,48
   1aace:	04d10c23          	sb	a3,88(sp)
   1aad2:	04f10ca3          	sb	a5,89(sp)
   1aad6:	000e0d1b          	sext.w	s10,t3
   1aada:	bffd7693          	andi	a3,s10,-1025
   1aade:	2681                	sext.w	a3,a3
   1aae0:	8c32                	mv	s8,a2
   1aae2:	4789                	li	a5,2
   1aae4:	b895                	j	1a358 <_svfiprintf_r+0x1ae>
   1aae6:	66f5                	lui	a3,0x1d
   1aae8:	8a068693          	addi	a3,a3,-1888 # 1c8a0 <__clzdi2+0x98>
   1aaec:	e836                	sd	a3,16(sp)
   1aaee:	020d7693          	andi	a3,s10,32
   1aaf2:	008c0613          	addi	a2,s8,8
   1aaf6:	d6dd                	beqz	a3,1aaa4 <_svfiprintf_r+0x8fa>
   1aaf8:	000c3b83          	ld	s7,0(s8)
   1aafc:	b7c1                	j	1aabc <_svfiprintf_r+0x912>
   1aafe:	8566                	mv	a0,s9
   1ab00:	e43a                	sd	a4,8(sp)
   1ab02:	d95fb0ef          	jal	ra,16896 <strlen>
   1ab06:	6722                	ld	a4,8(sp)
   1ab08:	0005091b          	sext.w	s2,a0
   1ab0c:	4801                	li	a6,0
   1ab0e:	b0e9                	j	1a3d8 <_svfiprintf_r+0x22e>
   1ab10:	04000593          	li	a1,64
   1ab14:	ab7f50ef          	jal	ra,105ca <_malloc_r>
   1ab18:	00a9b023          	sd	a0,0(s3)
   1ab1c:	00a9bc23          	sd	a0,24(s3)
   1ab20:	12050e63          	beqz	a0,1ac5c <_svfiprintf_r+0xab2>
   1ab24:	04000793          	li	a5,64
   1ab28:	02f9a023          	sw	a5,32(s3)
   1ab2c:	eb2ff06f          	j	1a1de <_svfiprintf_r+0x34>
   1ab30:	4685                	li	a3,1
   1ab32:	0ed78c63          	beq	a5,a3,1ac2a <_svfiprintf_r+0xa80>
   1ab36:	4689                	li	a3,2
   1ab38:	acd787e3          	beq	a5,a3,1a606 <_svfiprintf_r+0x45c>
   1ab3c:	86ea                	mv	a3,s10
   1ab3e:	b0bd                	j	1a3ac <_svfiprintf_r+0x202>
   1ab40:	1090                	addi	a2,sp,96
   1ab42:	85ce                	mv	a1,s3
   1ab44:	8556                	mv	a0,s5
   1ab46:	e442                	sd	a6,8(sp)
   1ab48:	d04ff0ef          	jal	ra,1a04c <__ssprint_r>
   1ab4c:	960519e3          	bnez	a0,1a4be <_svfiprintf_r+0x314>
   1ab50:	5626                	lw	a2,104(sp)
   1ab52:	77c6                	ld	a5,112(sp)
   1ab54:	6822                	ld	a6,8(sp)
   1ab56:	1994                	addi	a3,sp,240
   1ab58:	0016059b          	addiw	a1,a2,1
   1ab5c:	8752                	mv	a4,s4
   1ab5e:	ba01                	j	1a46e <_svfiprintf_r+0x2c4>
   1ab60:	200d6e13          	ori	t3,s10,512
   1ab64:	001dc783          	lbu	a5,1(s11)
   1ab68:	000e0d1b          	sext.w	s10,t3
   1ab6c:	0d85                	addi	s11,s11,1
   1ab6e:	f04ff06f          	j	1a272 <_svfiprintf_r+0xc8>
   1ab72:	020d6e13          	ori	t3,s10,32
   1ab76:	001dc783          	lbu	a5,1(s11)
   1ab7a:	000e0d1b          	sext.w	s10,t3
   1ab7e:	0d85                	addi	s11,s11,1
   1ab80:	ef2ff06f          	j	1a272 <_svfiprintf_r+0xc8>
   1ab84:	4799                	li	a5,6
   1ab86:	0008091b          	sext.w	s2,a6
   1ab8a:	0107f363          	bgeu	a5,a6,1ab90 <_svfiprintf_r+0x9e6>
   1ab8e:	4919                	li	s2,6
   1ab90:	6375                	lui	t1,0x1d
   1ab92:	8bca                	mv	s7,s2
   1ab94:	8b830c93          	addi	s9,t1,-1864 # 1c8b8 <__clzdi2+0xb0>
   1ab98:	4801                	li	a6,0
   1ab9a:	855ff06f          	j	1a3ee <_svfiprintf_r+0x244>
   1ab9e:	200d7793          	andi	a5,s10,512
   1aba2:	cfb9                	beqz	a5,1ac00 <_svfiprintf_r+0xa56>
   1aba4:	000c0b83          	lb	s7,0(s8)
   1aba8:	87de                	mv	a5,s7
   1abaa:	f607d063          	bgez	a5,1a30a <_svfiprintf_r+0x160>
   1abae:	b91d                	j	1a7e4 <_svfiprintf_r+0x63a>
   1abb0:	2006f793          	andi	a5,a3,512
   1abb4:	cf9d                	beqz	a5,1abf2 <_svfiprintf_r+0xa48>
   1abb6:	0ffbfb93          	andi	s7,s7,255
   1abba:	8c32                	mv	s8,a2
   1abbc:	4785                	li	a5,1
   1abbe:	f9aff06f          	j	1a358 <_svfiprintf_r+0x1ae>
   1abc2:	200d7693          	andi	a3,s10,512
   1abc6:	c295                	beqz	a3,1abea <_svfiprintf_r+0xa40>
   1abc8:	0ffbfb93          	andi	s7,s7,255
   1abcc:	bdc5                	j	1aabc <_svfiprintf_r+0x912>
   1abce:	200d7793          	andi	a5,s10,512
   1abd2:	c799                	beqz	a5,1abe0 <_svfiprintf_r+0xa36>
   1abd4:	0ffbfb93          	andi	s7,s7,255
   1abd8:	f76ff06f          	j	1a34e <_svfiprintf_r+0x1a4>
   1abdc:	8636                	mv	a2,a3
   1abde:	bad9                	j	1a5b4 <_svfiprintf_r+0x40a>
   1abe0:	1b82                	slli	s7,s7,0x20
   1abe2:	020bdb93          	srli	s7,s7,0x20
   1abe6:	f68ff06f          	j	1a34e <_svfiprintf_r+0x1a4>
   1abea:	1b82                	slli	s7,s7,0x20
   1abec:	020bdb93          	srli	s7,s7,0x20
   1abf0:	b5f1                	j	1aabc <_svfiprintf_r+0x912>
   1abf2:	1b82                	slli	s7,s7,0x20
   1abf4:	020bdb93          	srli	s7,s7,0x20
   1abf8:	8c32                	mv	s8,a2
   1abfa:	4785                	li	a5,1
   1abfc:	f5cff06f          	j	1a358 <_svfiprintf_r+0x1ae>
   1ac00:	000c2b83          	lw	s7,0(s8)
   1ac04:	87de                	mv	a5,s7
   1ac06:	f007d263          	bgez	a5,1a30a <_svfiprintf_r+0x160>
   1ac0a:	bee9                	j	1a7e4 <_svfiprintf_r+0x63a>
   1ac0c:	6782                	ld	a5,0(sp)
   1ac0e:	00f69023          	sh	a5,0(a3)
   1ac12:	df6ff06f          	j	1a208 <_svfiprintf_r+0x5e>
   1ac16:	1090                	addi	a2,sp,96
   1ac18:	85ce                	mv	a1,s3
   1ac1a:	8556                	mv	a0,s5
   1ac1c:	c30ff0ef          	jal	ra,1a04c <__ssprint_r>
   1ac20:	b879                	j	1a4be <_svfiprintf_r+0x314>
   1ac22:	8942                	mv	s2,a6
   1ac24:	4801                	li	a6,0
   1ac26:	fb2ff06f          	j	1a3d8 <_svfiprintf_r+0x22e>
   1ac2a:	86ea                	mv	a3,s10
   1ac2c:	ef8ff06f          	j	1a324 <_svfiprintf_r+0x17a>
   1ac30:	8536                	mv	a0,a3
   1ac32:	862e                	mv	a2,a1
   1ac34:	b239                	j	1a542 <_svfiprintf_r+0x398>
   1ac36:	c29c                	sw	a5,0(a3)
   1ac38:	dd0ff06f          	j	1a208 <_svfiprintf_r+0x5e>
   1ac3c:	57fd                	li	a5,-1
   1ac3e:	e03e                	sd	a5,0(sp)
   1ac40:	b069                	j	1a4ca <_svfiprintf_r+0x320>
   1ac42:	000c2783          	lw	a5,0(s8)
   1ac46:	0c21                	addi	s8,s8,8
   1ac48:	0007881b          	sext.w	a6,a5
   1ac4c:	0007d363          	bgez	a5,1ac52 <_svfiprintf_r+0xaa8>
   1ac50:	587d                	li	a6,-1
   1ac52:	001dc783          	lbu	a5,1(s11)
   1ac56:	8db6                	mv	s11,a3
   1ac58:	e1aff06f          	j	1a272 <_svfiprintf_r+0xc8>
   1ac5c:	47b1                	li	a5,12
   1ac5e:	00faa023          	sw	a5,0(s5)
   1ac62:	57fd                	li	a5,-1
   1ac64:	e03e                	sd	a5,0(sp)
   1ac66:	b095                	j	1a4ca <_svfiprintf_r+0x320>

000000000001ac68 <__swbuf_r>:
   1ac68:	7179                	addi	sp,sp,-48
   1ac6a:	f022                	sd	s0,32(sp)
   1ac6c:	ec26                	sd	s1,24(sp)
   1ac6e:	e84a                	sd	s2,16(sp)
   1ac70:	f406                	sd	ra,40(sp)
   1ac72:	e44e                	sd	s3,8(sp)
   1ac74:	892a                	mv	s2,a0
   1ac76:	84ae                	mv	s1,a1
   1ac78:	8432                	mv	s0,a2
   1ac7a:	c119                	beqz	a0,1ac80 <__swbuf_r+0x18>
   1ac7c:	493c                	lw	a5,80(a0)
   1ac7e:	cff1                	beqz	a5,1ad5a <__swbuf_r+0xf2>
   1ac80:	01041703          	lh	a4,16(s0)
   1ac84:	5414                	lw	a3,40(s0)
   1ac86:	00877793          	andi	a5,a4,8
   1ac8a:	c454                	sw	a3,12(s0)
   1ac8c:	03071693          	slli	a3,a4,0x30
   1ac90:	92c1                	srli	a3,a3,0x30
   1ac92:	cbb1                	beqz	a5,1ace6 <__swbuf_r+0x7e>
   1ac94:	6c1c                	ld	a5,24(s0)
   1ac96:	cba1                	beqz	a5,1ace6 <__swbuf_r+0x7e>
   1ac98:	6609                	lui	a2,0x2
   1ac9a:	0ff4f993          	andi	s3,s1,255
   1ac9e:	8ef1                	and	a3,a3,a2
   1aca0:	84ce                	mv	s1,s3
   1aca2:	c2bd                	beqz	a3,1ad08 <__swbuf_r+0xa0>
   1aca4:	6018                	ld	a4,0(s0)
   1aca6:	5014                	lw	a3,32(s0)
   1aca8:	40f707bb          	subw	a5,a4,a5
   1acac:	06d7de63          	bge	a5,a3,1ad28 <__swbuf_r+0xc0>
   1acb0:	4454                	lw	a3,12(s0)
   1acb2:	00170613          	addi	a2,a4,1
   1acb6:	e010                	sd	a2,0(s0)
   1acb8:	36fd                	addiw	a3,a3,-1
   1acba:	c454                	sw	a3,12(s0)
   1acbc:	01370023          	sb	s3,0(a4)
   1acc0:	5018                	lw	a4,32(s0)
   1acc2:	2785                	addiw	a5,a5,1
   1acc4:	08f70463          	beq	a4,a5,1ad4c <__swbuf_r+0xe4>
   1acc8:	01045783          	lhu	a5,16(s0)
   1accc:	8b85                	andi	a5,a5,1
   1acce:	c781                	beqz	a5,1acd6 <__swbuf_r+0x6e>
   1acd0:	47a9                	li	a5,10
   1acd2:	06f48d63          	beq	s1,a5,1ad4c <__swbuf_r+0xe4>
   1acd6:	70a2                	ld	ra,40(sp)
   1acd8:	7402                	ld	s0,32(sp)
   1acda:	6942                	ld	s2,16(sp)
   1acdc:	69a2                	ld	s3,8(sp)
   1acde:	8526                	mv	a0,s1
   1ace0:	64e2                	ld	s1,24(sp)
   1ace2:	6145                	addi	sp,sp,48
   1ace4:	8082                	ret
   1ace6:	85a2                	mv	a1,s0
   1ace8:	854a                	mv	a0,s2
   1acea:	c55f70ef          	jal	ra,1293e <__swsetup_r>
   1acee:	e525                	bnez	a0,1ad56 <__swbuf_r+0xee>
   1acf0:	01041703          	lh	a4,16(s0)
   1acf4:	6609                	lui	a2,0x2
   1acf6:	0ff4f993          	andi	s3,s1,255
   1acfa:	03071693          	slli	a3,a4,0x30
   1acfe:	92c1                	srli	a3,a3,0x30
   1ad00:	8ef1                	and	a3,a3,a2
   1ad02:	6c1c                	ld	a5,24(s0)
   1ad04:	84ce                	mv	s1,s3
   1ad06:	fed9                	bnez	a3,1aca4 <__swbuf_r+0x3c>
   1ad08:	0ac42683          	lw	a3,172(s0)
   1ad0c:	8f51                	or	a4,a4,a2
   1ad0e:	7679                	lui	a2,0xffffe
   1ad10:	167d                	addi	a2,a2,-1
   1ad12:	8ef1                	and	a3,a3,a2
   1ad14:	00e41823          	sh	a4,16(s0)
   1ad18:	6018                	ld	a4,0(s0)
   1ad1a:	0ad42623          	sw	a3,172(s0)
   1ad1e:	5014                	lw	a3,32(s0)
   1ad20:	40f707bb          	subw	a5,a4,a5
   1ad24:	f8d7c6e3          	blt	a5,a3,1acb0 <__swbuf_r+0x48>
   1ad28:	85a2                	mv	a1,s0
   1ad2a:	854a                	mv	a0,s2
   1ad2c:	f5ff70ef          	jal	ra,12c8a <_fflush_r>
   1ad30:	e11d                	bnez	a0,1ad56 <__swbuf_r+0xee>
   1ad32:	6018                	ld	a4,0(s0)
   1ad34:	4454                	lw	a3,12(s0)
   1ad36:	4785                	li	a5,1
   1ad38:	00170613          	addi	a2,a4,1
   1ad3c:	36fd                	addiw	a3,a3,-1
   1ad3e:	e010                	sd	a2,0(s0)
   1ad40:	c454                	sw	a3,12(s0)
   1ad42:	01370023          	sb	s3,0(a4)
   1ad46:	5018                	lw	a4,32(s0)
   1ad48:	f8f710e3          	bne	a4,a5,1acc8 <__swbuf_r+0x60>
   1ad4c:	85a2                	mv	a1,s0
   1ad4e:	854a                	mv	a0,s2
   1ad50:	f3bf70ef          	jal	ra,12c8a <_fflush_r>
   1ad54:	d149                	beqz	a0,1acd6 <__swbuf_r+0x6e>
   1ad56:	54fd                	li	s1,-1
   1ad58:	bfbd                	j	1acd6 <__swbuf_r+0x6e>
   1ad5a:	a0cf80ef          	jal	ra,12f66 <__sinit>
   1ad5e:	b70d                	j	1ac80 <__swbuf_r+0x18>

000000000001ad60 <__swbuf>:
   1ad60:	87aa                	mv	a5,a0
   1ad62:	7501b503          	ld	a0,1872(gp) # 1f868 <_impure_ptr>
   1ad66:	862e                	mv	a2,a1
   1ad68:	85be                	mv	a1,a5
   1ad6a:	bdfd                	j	1ac68 <__swbuf_r>

000000000001ad6c <_wcrtomb_r>:
   1ad6c:	7179                	addi	sp,sp,-48
   1ad6e:	f022                	sd	s0,32(sp)
   1ad70:	ec26                	sd	s1,24(sp)
   1ad72:	f406                	sd	ra,40(sp)
   1ad74:	6481b783          	ld	a5,1608(gp) # 1f760 <__global_locale+0xe0>
   1ad78:	842a                	mv	s0,a0
   1ad7a:	84b6                	mv	s1,a3
   1ad7c:	c991                	beqz	a1,1ad90 <_wcrtomb_r+0x24>
   1ad7e:	9782                	jalr	a5
   1ad80:	57fd                	li	a5,-1
   1ad82:	00f50d63          	beq	a0,a5,1ad9c <_wcrtomb_r+0x30>
   1ad86:	70a2                	ld	ra,40(sp)
   1ad88:	7402                	ld	s0,32(sp)
   1ad8a:	64e2                	ld	s1,24(sp)
   1ad8c:	6145                	addi	sp,sp,48
   1ad8e:	8082                	ret
   1ad90:	4601                	li	a2,0
   1ad92:	858a                	mv	a1,sp
   1ad94:	9782                	jalr	a5
   1ad96:	57fd                	li	a5,-1
   1ad98:	fef517e3          	bne	a0,a5,1ad86 <_wcrtomb_r+0x1a>
   1ad9c:	0004a023          	sw	zero,0(s1)
   1ada0:	08a00793          	li	a5,138
   1ada4:	70a2                	ld	ra,40(sp)
   1ada6:	c01c                	sw	a5,0(s0)
   1ada8:	7402                	ld	s0,32(sp)
   1adaa:	64e2                	ld	s1,24(sp)
   1adac:	6145                	addi	sp,sp,48
   1adae:	8082                	ret

000000000001adb0 <wcrtomb>:
   1adb0:	7179                	addi	sp,sp,-48
   1adb2:	f022                	sd	s0,32(sp)
   1adb4:	ec26                	sd	s1,24(sp)
   1adb6:	f406                	sd	ra,40(sp)
   1adb8:	7501b483          	ld	s1,1872(gp) # 1f868 <_impure_ptr>
   1adbc:	6481b783          	ld	a5,1608(gp) # 1f760 <__global_locale+0xe0>
   1adc0:	8432                	mv	s0,a2
   1adc2:	cd11                	beqz	a0,1adde <wcrtomb+0x2e>
   1adc4:	862e                	mv	a2,a1
   1adc6:	86a2                	mv	a3,s0
   1adc8:	85aa                	mv	a1,a0
   1adca:	8526                	mv	a0,s1
   1adcc:	9782                	jalr	a5
   1adce:	57fd                	li	a5,-1
   1add0:	00f50f63          	beq	a0,a5,1adee <wcrtomb+0x3e>
   1add4:	70a2                	ld	ra,40(sp)
   1add6:	7402                	ld	s0,32(sp)
   1add8:	64e2                	ld	s1,24(sp)
   1adda:	6145                	addi	sp,sp,48
   1addc:	8082                	ret
   1adde:	86b2                	mv	a3,a2
   1ade0:	858a                	mv	a1,sp
   1ade2:	4601                	li	a2,0
   1ade4:	8526                	mv	a0,s1
   1ade6:	9782                	jalr	a5
   1ade8:	57fd                	li	a5,-1
   1adea:	fef515e3          	bne	a0,a5,1add4 <wcrtomb+0x24>
   1adee:	00042023          	sw	zero,0(s0)
   1adf2:	70a2                	ld	ra,40(sp)
   1adf4:	7402                	ld	s0,32(sp)
   1adf6:	08a00793          	li	a5,138
   1adfa:	c09c                	sw	a5,0(s1)
   1adfc:	64e2                	ld	s1,24(sp)
   1adfe:	6145                	addi	sp,sp,48
   1ae00:	8082                	ret

000000000001ae02 <abort>:
   1ae02:	1141                	addi	sp,sp,-16
   1ae04:	4519                	li	a0,6
   1ae06:	e406                	sd	ra,8(sp)
   1ae08:	224000ef          	jal	ra,1b02c <raise>
   1ae0c:	4505                	li	a0,1
   1ae0e:	434000ef          	jal	ra,1b242 <_exit>

000000000001ae12 <__register_exitproc>:
   1ae12:	7401b703          	ld	a4,1856(gp) # 1f858 <_global_impure_ptr>
   1ae16:	1f873783          	ld	a5,504(a4)
   1ae1a:	c3b1                	beqz	a5,1ae5e <__register_exitproc+0x4c>
   1ae1c:	4798                	lw	a4,8(a5)
   1ae1e:	487d                	li	a6,31
   1ae20:	06e84263          	blt	a6,a4,1ae84 <__register_exitproc+0x72>
   1ae24:	c505                	beqz	a0,1ae4c <__register_exitproc+0x3a>
   1ae26:	00371813          	slli	a6,a4,0x3
   1ae2a:	983e                	add	a6,a6,a5
   1ae2c:	10c83823          	sd	a2,272(a6)
   1ae30:	3107a883          	lw	a7,784(a5) # ffffffffffff8310 <__BSS_END__+0xfffffffffffd89f8>
   1ae34:	4605                	li	a2,1
   1ae36:	00e6163b          	sllw	a2,a2,a4
   1ae3a:	00c8e8b3          	or	a7,a7,a2
   1ae3e:	3117a823          	sw	a7,784(a5)
   1ae42:	20d83823          	sd	a3,528(a6)
   1ae46:	4689                	li	a3,2
   1ae48:	02d50063          	beq	a0,a3,1ae68 <__register_exitproc+0x56>
   1ae4c:	00270693          	addi	a3,a4,2
   1ae50:	068e                	slli	a3,a3,0x3
   1ae52:	2705                	addiw	a4,a4,1
   1ae54:	c798                	sw	a4,8(a5)
   1ae56:	97b6                	add	a5,a5,a3
   1ae58:	e38c                	sd	a1,0(a5)
   1ae5a:	4501                	li	a0,0
   1ae5c:	8082                	ret
   1ae5e:	20070793          	addi	a5,a4,512
   1ae62:	1ef73c23          	sd	a5,504(a4)
   1ae66:	bf5d                	j	1ae1c <__register_exitproc+0xa>
   1ae68:	3147a683          	lw	a3,788(a5)
   1ae6c:	4501                	li	a0,0
   1ae6e:	8e55                	or	a2,a2,a3
   1ae70:	00270693          	addi	a3,a4,2
   1ae74:	068e                	slli	a3,a3,0x3
   1ae76:	2705                	addiw	a4,a4,1
   1ae78:	30c7aa23          	sw	a2,788(a5)
   1ae7c:	c798                	sw	a4,8(a5)
   1ae7e:	97b6                	add	a5,a5,a3
   1ae80:	e38c                	sd	a1,0(a5)
   1ae82:	8082                	ret
   1ae84:	557d                	li	a0,-1
   1ae86:	8082                	ret

000000000001ae88 <_init_signal_r>:
   1ae88:	51853783          	ld	a5,1304(a0)
   1ae8c:	c399                	beqz	a5,1ae92 <_init_signal_r+0xa>
   1ae8e:	4501                	li	a0,0
   1ae90:	8082                	ret
   1ae92:	1141                	addi	sp,sp,-16
   1ae94:	10000593          	li	a1,256
   1ae98:	e022                	sd	s0,0(sp)
   1ae9a:	e406                	sd	ra,8(sp)
   1ae9c:	842a                	mv	s0,a0
   1ae9e:	f2cf50ef          	jal	ra,105ca <_malloc_r>
   1aea2:	50a43c23          	sd	a0,1304(s0)
   1aea6:	cd09                	beqz	a0,1aec0 <_init_signal_r+0x38>
   1aea8:	10050793          	addi	a5,a0,256
   1aeac:	00053023          	sd	zero,0(a0)
   1aeb0:	0521                	addi	a0,a0,8
   1aeb2:	fef51de3          	bne	a0,a5,1aeac <_init_signal_r+0x24>
   1aeb6:	4501                	li	a0,0
   1aeb8:	60a2                	ld	ra,8(sp)
   1aeba:	6402                	ld	s0,0(sp)
   1aebc:	0141                	addi	sp,sp,16
   1aebe:	8082                	ret
   1aec0:	557d                	li	a0,-1
   1aec2:	bfdd                	j	1aeb8 <_init_signal_r+0x30>

000000000001aec4 <_signal_r>:
   1aec4:	7179                	addi	sp,sp,-48
   1aec6:	ec26                	sd	s1,24(sp)
   1aec8:	f406                	sd	ra,40(sp)
   1aeca:	f022                	sd	s0,32(sp)
   1aecc:	47fd                	li	a5,31
   1aece:	84aa                	mv	s1,a0
   1aed0:	00b7ef63          	bltu	a5,a1,1aeee <_signal_r+0x2a>
   1aed4:	51853703          	ld	a4,1304(a0)
   1aed8:	842e                	mv	s0,a1
   1aeda:	c315                	beqz	a4,1aefe <_signal_r+0x3a>
   1aedc:	040e                	slli	s0,s0,0x3
   1aede:	943a                	add	s0,s0,a4
   1aee0:	6008                	ld	a0,0(s0)
   1aee2:	e010                	sd	a2,0(s0)
   1aee4:	70a2                	ld	ra,40(sp)
   1aee6:	7402                	ld	s0,32(sp)
   1aee8:	64e2                	ld	s1,24(sp)
   1aeea:	6145                	addi	sp,sp,48
   1aeec:	8082                	ret
   1aeee:	70a2                	ld	ra,40(sp)
   1aef0:	7402                	ld	s0,32(sp)
   1aef2:	47d9                	li	a5,22
   1aef4:	c11c                	sw	a5,0(a0)
   1aef6:	64e2                	ld	s1,24(sp)
   1aef8:	557d                	li	a0,-1
   1aefa:	6145                	addi	sp,sp,48
   1aefc:	8082                	ret
   1aefe:	10000593          	li	a1,256
   1af02:	e432                	sd	a2,8(sp)
   1af04:	ec6f50ef          	jal	ra,105ca <_malloc_r>
   1af08:	50a4bc23          	sd	a0,1304(s1)
   1af0c:	872a                	mv	a4,a0
   1af0e:	c919                	beqz	a0,1af24 <_signal_r+0x60>
   1af10:	6622                	ld	a2,8(sp)
   1af12:	87aa                	mv	a5,a0
   1af14:	10050693          	addi	a3,a0,256
   1af18:	0007b023          	sd	zero,0(a5)
   1af1c:	07a1                	addi	a5,a5,8
   1af1e:	fef69de3          	bne	a3,a5,1af18 <_signal_r+0x54>
   1af22:	bf6d                	j	1aedc <_signal_r+0x18>
   1af24:	557d                	li	a0,-1
   1af26:	bf7d                	j	1aee4 <_signal_r+0x20>

000000000001af28 <_raise_r>:
   1af28:	1101                	addi	sp,sp,-32
   1af2a:	e426                	sd	s1,8(sp)
   1af2c:	ec06                	sd	ra,24(sp)
   1af2e:	e822                	sd	s0,16(sp)
   1af30:	47fd                	li	a5,31
   1af32:	84aa                	mv	s1,a0
   1af34:	06b7e463          	bltu	a5,a1,1af9c <_raise_r+0x74>
   1af38:	51853783          	ld	a5,1304(a0)
   1af3c:	842e                	mv	s0,a1
   1af3e:	c795                	beqz	a5,1af6a <_raise_r+0x42>
   1af40:	00359713          	slli	a4,a1,0x3
   1af44:	97ba                	add	a5,a5,a4
   1af46:	6398                	ld	a4,0(a5)
   1af48:	c30d                	beqz	a4,1af6a <_raise_r+0x42>
   1af4a:	4685                	li	a3,1
   1af4c:	04d70263          	beq	a4,a3,1af90 <_raise_r+0x68>
   1af50:	56fd                	li	a3,-1
   1af52:	02d70763          	beq	a4,a3,1af80 <_raise_r+0x58>
   1af56:	852e                	mv	a0,a1
   1af58:	0007b023          	sd	zero,0(a5)
   1af5c:	9702                	jalr	a4
   1af5e:	4501                	li	a0,0
   1af60:	60e2                	ld	ra,24(sp)
   1af62:	6442                	ld	s0,16(sp)
   1af64:	64a2                	ld	s1,8(sp)
   1af66:	6105                	addi	sp,sp,32
   1af68:	8082                	ret
   1af6a:	8526                	mv	a0,s1
   1af6c:	2a8000ef          	jal	ra,1b214 <_getpid_r>
   1af70:	8622                	mv	a2,s0
   1af72:	6442                	ld	s0,16(sp)
   1af74:	60e2                	ld	ra,24(sp)
   1af76:	85aa                	mv	a1,a0
   1af78:	8526                	mv	a0,s1
   1af7a:	64a2                	ld	s1,8(sp)
   1af7c:	6105                	addi	sp,sp,32
   1af7e:	acb1                	j	1b1da <_kill_r>
   1af80:	60e2                	ld	ra,24(sp)
   1af82:	6442                	ld	s0,16(sp)
   1af84:	47d9                	li	a5,22
   1af86:	c11c                	sw	a5,0(a0)
   1af88:	64a2                	ld	s1,8(sp)
   1af8a:	4505                	li	a0,1
   1af8c:	6105                	addi	sp,sp,32
   1af8e:	8082                	ret
   1af90:	60e2                	ld	ra,24(sp)
   1af92:	6442                	ld	s0,16(sp)
   1af94:	64a2                	ld	s1,8(sp)
   1af96:	4501                	li	a0,0
   1af98:	6105                	addi	sp,sp,32
   1af9a:	8082                	ret
   1af9c:	47d9                	li	a5,22
   1af9e:	c11c                	sw	a5,0(a0)
   1afa0:	557d                	li	a0,-1
   1afa2:	bf7d                	j	1af60 <_raise_r+0x38>

000000000001afa4 <__sigtramp_r>:
   1afa4:	47fd                	li	a5,31
   1afa6:	08b7e163          	bltu	a5,a1,1b028 <__sigtramp_r+0x84>
   1afaa:	51853703          	ld	a4,1304(a0)
   1afae:	1101                	addi	sp,sp,-32
   1afb0:	e822                	sd	s0,16(sp)
   1afb2:	e426                	sd	s1,8(sp)
   1afb4:	ec06                	sd	ra,24(sp)
   1afb6:	842e                	mv	s0,a1
   1afb8:	84aa                	mv	s1,a0
   1afba:	cf05                	beqz	a4,1aff2 <__sigtramp_r+0x4e>
   1afbc:	00341513          	slli	a0,s0,0x3
   1afc0:	972a                	add	a4,a4,a0
   1afc2:	631c                	ld	a5,0(a4)
   1afc4:	c38d                	beqz	a5,1afe6 <__sigtramp_r+0x42>
   1afc6:	56fd                	li	a3,-1
   1afc8:	04d78c63          	beq	a5,a3,1b020 <__sigtramp_r+0x7c>
   1afcc:	4685                	li	a3,1
   1afce:	04d78363          	beq	a5,a3,1b014 <__sigtramp_r+0x70>
   1afd2:	8522                	mv	a0,s0
   1afd4:	00073023          	sd	zero,0(a4)
   1afd8:	9782                	jalr	a5
   1afda:	4501                	li	a0,0
   1afdc:	60e2                	ld	ra,24(sp)
   1afde:	6442                	ld	s0,16(sp)
   1afe0:	64a2                	ld	s1,8(sp)
   1afe2:	6105                	addi	sp,sp,32
   1afe4:	8082                	ret
   1afe6:	60e2                	ld	ra,24(sp)
   1afe8:	6442                	ld	s0,16(sp)
   1afea:	64a2                	ld	s1,8(sp)
   1afec:	4505                	li	a0,1
   1afee:	6105                	addi	sp,sp,32
   1aff0:	8082                	ret
   1aff2:	10000593          	li	a1,256
   1aff6:	dd4f50ef          	jal	ra,105ca <_malloc_r>
   1affa:	50a4bc23          	sd	a0,1304(s1)
   1affe:	872a                	mv	a4,a0
   1b000:	c115                	beqz	a0,1b024 <__sigtramp_r+0x80>
   1b002:	87aa                	mv	a5,a0
   1b004:	10050693          	addi	a3,a0,256
   1b008:	0007b023          	sd	zero,0(a5)
   1b00c:	07a1                	addi	a5,a5,8
   1b00e:	fed79de3          	bne	a5,a3,1b008 <__sigtramp_r+0x64>
   1b012:	b76d                	j	1afbc <__sigtramp_r+0x18>
   1b014:	60e2                	ld	ra,24(sp)
   1b016:	6442                	ld	s0,16(sp)
   1b018:	64a2                	ld	s1,8(sp)
   1b01a:	450d                	li	a0,3
   1b01c:	6105                	addi	sp,sp,32
   1b01e:	8082                	ret
   1b020:	4509                	li	a0,2
   1b022:	bf6d                	j	1afdc <__sigtramp_r+0x38>
   1b024:	557d                	li	a0,-1
   1b026:	bf5d                	j	1afdc <__sigtramp_r+0x38>
   1b028:	557d                	li	a0,-1
   1b02a:	8082                	ret

000000000001b02c <raise>:
   1b02c:	1101                	addi	sp,sp,-32
   1b02e:	e426                	sd	s1,8(sp)
   1b030:	ec06                	sd	ra,24(sp)
   1b032:	e822                	sd	s0,16(sp)
   1b034:	47fd                	li	a5,31
   1b036:	7501b483          	ld	s1,1872(gp) # 1f868 <_impure_ptr>
   1b03a:	06a7e363          	bltu	a5,a0,1b0a0 <raise+0x74>
   1b03e:	5184b783          	ld	a5,1304(s1)
   1b042:	842a                	mv	s0,a0
   1b044:	c78d                	beqz	a5,1b06e <raise+0x42>
   1b046:	00351713          	slli	a4,a0,0x3
   1b04a:	97ba                	add	a5,a5,a4
   1b04c:	6398                	ld	a4,0(a5)
   1b04e:	c305                	beqz	a4,1b06e <raise+0x42>
   1b050:	4685                	li	a3,1
   1b052:	04d70163          	beq	a4,a3,1b094 <raise+0x68>
   1b056:	56fd                	li	a3,-1
   1b058:	02d70663          	beq	a4,a3,1b084 <raise+0x58>
   1b05c:	0007b023          	sd	zero,0(a5)
   1b060:	9702                	jalr	a4
   1b062:	4501                	li	a0,0
   1b064:	60e2                	ld	ra,24(sp)
   1b066:	6442                	ld	s0,16(sp)
   1b068:	64a2                	ld	s1,8(sp)
   1b06a:	6105                	addi	sp,sp,32
   1b06c:	8082                	ret
   1b06e:	8526                	mv	a0,s1
   1b070:	1a4000ef          	jal	ra,1b214 <_getpid_r>
   1b074:	8622                	mv	a2,s0
   1b076:	6442                	ld	s0,16(sp)
   1b078:	60e2                	ld	ra,24(sp)
   1b07a:	85aa                	mv	a1,a0
   1b07c:	8526                	mv	a0,s1
   1b07e:	64a2                	ld	s1,8(sp)
   1b080:	6105                	addi	sp,sp,32
   1b082:	aaa1                	j	1b1da <_kill_r>
   1b084:	60e2                	ld	ra,24(sp)
   1b086:	6442                	ld	s0,16(sp)
   1b088:	47d9                	li	a5,22
   1b08a:	c09c                	sw	a5,0(s1)
   1b08c:	4505                	li	a0,1
   1b08e:	64a2                	ld	s1,8(sp)
   1b090:	6105                	addi	sp,sp,32
   1b092:	8082                	ret
   1b094:	60e2                	ld	ra,24(sp)
   1b096:	6442                	ld	s0,16(sp)
   1b098:	64a2                	ld	s1,8(sp)
   1b09a:	4501                	li	a0,0
   1b09c:	6105                	addi	sp,sp,32
   1b09e:	8082                	ret
   1b0a0:	47d9                	li	a5,22
   1b0a2:	c09c                	sw	a5,0(s1)
   1b0a4:	557d                	li	a0,-1
   1b0a6:	bf7d                	j	1b064 <raise+0x38>

000000000001b0a8 <signal>:
   1b0a8:	1101                	addi	sp,sp,-32
   1b0aa:	e04a                	sd	s2,0(sp)
   1b0ac:	ec06                	sd	ra,24(sp)
   1b0ae:	e822                	sd	s0,16(sp)
   1b0b0:	e426                	sd	s1,8(sp)
   1b0b2:	47fd                	li	a5,31
   1b0b4:	7501b903          	ld	s2,1872(gp) # 1f868 <_impure_ptr>
   1b0b8:	02a7e163          	bltu	a5,a0,1b0da <signal+0x32>
   1b0bc:	842a                	mv	s0,a0
   1b0be:	51893503          	ld	a0,1304(s2)
   1b0c2:	84ae                	mv	s1,a1
   1b0c4:	c50d                	beqz	a0,1b0ee <signal+0x46>
   1b0c6:	040e                	slli	s0,s0,0x3
   1b0c8:	942a                	add	s0,s0,a0
   1b0ca:	6008                	ld	a0,0(s0)
   1b0cc:	e004                	sd	s1,0(s0)
   1b0ce:	60e2                	ld	ra,24(sp)
   1b0d0:	6442                	ld	s0,16(sp)
   1b0d2:	64a2                	ld	s1,8(sp)
   1b0d4:	6902                	ld	s2,0(sp)
   1b0d6:	6105                	addi	sp,sp,32
   1b0d8:	8082                	ret
   1b0da:	60e2                	ld	ra,24(sp)
   1b0dc:	6442                	ld	s0,16(sp)
   1b0de:	47d9                	li	a5,22
   1b0e0:	00f92023          	sw	a5,0(s2)
   1b0e4:	64a2                	ld	s1,8(sp)
   1b0e6:	6902                	ld	s2,0(sp)
   1b0e8:	557d                	li	a0,-1
   1b0ea:	6105                	addi	sp,sp,32
   1b0ec:	8082                	ret
   1b0ee:	10000593          	li	a1,256
   1b0f2:	854a                	mv	a0,s2
   1b0f4:	cd6f50ef          	jal	ra,105ca <_malloc_r>
   1b0f8:	50a93c23          	sd	a0,1304(s2)
   1b0fc:	c911                	beqz	a0,1b110 <signal+0x68>
   1b0fe:	87aa                	mv	a5,a0
   1b100:	10050713          	addi	a4,a0,256
   1b104:	0007b023          	sd	zero,0(a5)
   1b108:	07a1                	addi	a5,a5,8
   1b10a:	fef71de3          	bne	a4,a5,1b104 <signal+0x5c>
   1b10e:	bf65                	j	1b0c6 <signal+0x1e>
   1b110:	557d                	li	a0,-1
   1b112:	bf75                	j	1b0ce <signal+0x26>

000000000001b114 <_init_signal>:
   1b114:	1141                	addi	sp,sp,-16
   1b116:	e022                	sd	s0,0(sp)
   1b118:	7501b403          	ld	s0,1872(gp) # 1f868 <_impure_ptr>
   1b11c:	e406                	sd	ra,8(sp)
   1b11e:	51843783          	ld	a5,1304(s0)
   1b122:	c791                	beqz	a5,1b12e <_init_signal+0x1a>
   1b124:	4501                	li	a0,0
   1b126:	60a2                	ld	ra,8(sp)
   1b128:	6402                	ld	s0,0(sp)
   1b12a:	0141                	addi	sp,sp,16
   1b12c:	8082                	ret
   1b12e:	10000593          	li	a1,256
   1b132:	8522                	mv	a0,s0
   1b134:	c96f50ef          	jal	ra,105ca <_malloc_r>
   1b138:	50a43c23          	sd	a0,1304(s0)
   1b13c:	c909                	beqz	a0,1b14e <_init_signal+0x3a>
   1b13e:	10050793          	addi	a5,a0,256
   1b142:	00053023          	sd	zero,0(a0)
   1b146:	0521                	addi	a0,a0,8
   1b148:	fef51de3          	bne	a0,a5,1b142 <_init_signal+0x2e>
   1b14c:	bfe1                	j	1b124 <_init_signal+0x10>
   1b14e:	557d                	li	a0,-1
   1b150:	bfd9                	j	1b126 <_init_signal+0x12>

000000000001b152 <__sigtramp>:
   1b152:	1101                	addi	sp,sp,-32
   1b154:	e426                	sd	s1,8(sp)
   1b156:	ec06                	sd	ra,24(sp)
   1b158:	e822                	sd	s0,16(sp)
   1b15a:	47fd                	li	a5,31
   1b15c:	7501b483          	ld	s1,1872(gp) # 1f868 <_impure_ptr>
   1b160:	06a7eb63          	bltu	a5,a0,1b1d6 <__sigtramp+0x84>
   1b164:	5184b703          	ld	a4,1304(s1)
   1b168:	842a                	mv	s0,a0
   1b16a:	cf05                	beqz	a4,1b1a2 <__sigtramp+0x50>
   1b16c:	00341513          	slli	a0,s0,0x3
   1b170:	972a                	add	a4,a4,a0
   1b172:	631c                	ld	a5,0(a4)
   1b174:	c38d                	beqz	a5,1b196 <__sigtramp+0x44>
   1b176:	56fd                	li	a3,-1
   1b178:	04d78d63          	beq	a5,a3,1b1d2 <__sigtramp+0x80>
   1b17c:	4685                	li	a3,1
   1b17e:	04d78463          	beq	a5,a3,1b1c6 <__sigtramp+0x74>
   1b182:	8522                	mv	a0,s0
   1b184:	00073023          	sd	zero,0(a4)
   1b188:	9782                	jalr	a5
   1b18a:	4501                	li	a0,0
   1b18c:	60e2                	ld	ra,24(sp)
   1b18e:	6442                	ld	s0,16(sp)
   1b190:	64a2                	ld	s1,8(sp)
   1b192:	6105                	addi	sp,sp,32
   1b194:	8082                	ret
   1b196:	60e2                	ld	ra,24(sp)
   1b198:	6442                	ld	s0,16(sp)
   1b19a:	64a2                	ld	s1,8(sp)
   1b19c:	4505                	li	a0,1
   1b19e:	6105                	addi	sp,sp,32
   1b1a0:	8082                	ret
   1b1a2:	10000593          	li	a1,256
   1b1a6:	8526                	mv	a0,s1
   1b1a8:	c22f50ef          	jal	ra,105ca <_malloc_r>
   1b1ac:	50a4bc23          	sd	a0,1304(s1)
   1b1b0:	872a                	mv	a4,a0
   1b1b2:	c115                	beqz	a0,1b1d6 <__sigtramp+0x84>
   1b1b4:	87aa                	mv	a5,a0
   1b1b6:	10050693          	addi	a3,a0,256
   1b1ba:	0007b023          	sd	zero,0(a5)
   1b1be:	07a1                	addi	a5,a5,8
   1b1c0:	fed79de3          	bne	a5,a3,1b1ba <__sigtramp+0x68>
   1b1c4:	b765                	j	1b16c <__sigtramp+0x1a>
   1b1c6:	60e2                	ld	ra,24(sp)
   1b1c8:	6442                	ld	s0,16(sp)
   1b1ca:	64a2                	ld	s1,8(sp)
   1b1cc:	450d                	li	a0,3
   1b1ce:	6105                	addi	sp,sp,32
   1b1d0:	8082                	ret
   1b1d2:	4509                	li	a0,2
   1b1d4:	bf65                	j	1b18c <__sigtramp+0x3a>
   1b1d6:	557d                	li	a0,-1
   1b1d8:	bf55                	j	1b18c <__sigtramp+0x3a>

000000000001b1da <_kill_r>:
   1b1da:	1101                	addi	sp,sp,-32
   1b1dc:	872e                	mv	a4,a1
   1b1de:	e822                	sd	s0,16(sp)
   1b1e0:	e426                	sd	s1,8(sp)
   1b1e2:	842a                	mv	s0,a0
   1b1e4:	85b2                	mv	a1,a2
   1b1e6:	853a                	mv	a0,a4
   1b1e8:	ec06                	sd	ra,24(sp)
   1b1ea:	7801a823          	sw	zero,1936(gp) # 1f8a8 <errno>
   1b1ee:	0e0000ef          	jal	ra,1b2ce <_kill>
   1b1f2:	57fd                	li	a5,-1
   1b1f4:	00f50763          	beq	a0,a5,1b202 <_kill_r+0x28>
   1b1f8:	60e2                	ld	ra,24(sp)
   1b1fa:	6442                	ld	s0,16(sp)
   1b1fc:	64a2                	ld	s1,8(sp)
   1b1fe:	6105                	addi	sp,sp,32
   1b200:	8082                	ret
   1b202:	7901a783          	lw	a5,1936(gp) # 1f8a8 <errno>
   1b206:	dbed                	beqz	a5,1b1f8 <_kill_r+0x1e>
   1b208:	60e2                	ld	ra,24(sp)
   1b20a:	c01c                	sw	a5,0(s0)
   1b20c:	6442                	ld	s0,16(sp)
   1b20e:	64a2                	ld	s1,8(sp)
   1b210:	6105                	addi	sp,sp,32
   1b212:	8082                	ret

000000000001b214 <_getpid_r>:
   1b214:	a841                	j	1b2a4 <_getpid>

000000000001b216 <_close>:
   1b216:	1141                	addi	sp,sp,-16
   1b218:	e406                	sd	ra,8(sp)
   1b21a:	e022                	sd	s0,0(sp)
   1b21c:	03900893          	li	a7,57
   1b220:	00000073          	ecall
   1b224:	842a                	mv	s0,a0
   1b226:	00054763          	bltz	a0,1b234 <_close+0x1e>
   1b22a:	2501                	sext.w	a0,a0
   1b22c:	60a2                	ld	ra,8(sp)
   1b22e:	6402                	ld	s0,0(sp)
   1b230:	0141                	addi	sp,sp,16
   1b232:	8082                	ret
   1b234:	9b8fe0ef          	jal	ra,193ec <__errno>
   1b238:	4080043b          	negw	s0,s0
   1b23c:	c100                	sw	s0,0(a0)
   1b23e:	557d                	li	a0,-1
   1b240:	b7f5                	j	1b22c <_close+0x16>

000000000001b242 <_exit>:
   1b242:	05d00893          	li	a7,93
   1b246:	00000073          	ecall
   1b24a:	00054363          	bltz	a0,1b250 <_exit+0xe>
   1b24e:	a001                	j	1b24e <_exit+0xc>
   1b250:	1141                	addi	sp,sp,-16
   1b252:	e022                	sd	s0,0(sp)
   1b254:	842a                	mv	s0,a0
   1b256:	e406                	sd	ra,8(sp)
   1b258:	4080043b          	negw	s0,s0
   1b25c:	990fe0ef          	jal	ra,193ec <__errno>
   1b260:	c100                	sw	s0,0(a0)
   1b262:	a001                	j	1b262 <_exit+0x20>

000000000001b264 <_fstat>:
   1b264:	7135                	addi	sp,sp,-160
   1b266:	e526                	sd	s1,136(sp)
   1b268:	ed06                	sd	ra,152(sp)
   1b26a:	84ae                	mv	s1,a1
   1b26c:	e922                	sd	s0,144(sp)
   1b26e:	05000893          	li	a7,80
   1b272:	858a                	mv	a1,sp
   1b274:	00000073          	ecall
   1b278:	842a                	mv	s0,a0
   1b27a:	00054e63          	bltz	a0,1b296 <_fstat+0x32>
   1b27e:	0005041b          	sext.w	s0,a0
   1b282:	8526                	mv	a0,s1
   1b284:	858a                	mv	a1,sp
   1b286:	134000ef          	jal	ra,1b3ba <_conv_stat>
   1b28a:	60ea                	ld	ra,152(sp)
   1b28c:	8522                	mv	a0,s0
   1b28e:	644a                	ld	s0,144(sp)
   1b290:	64aa                	ld	s1,136(sp)
   1b292:	610d                	addi	sp,sp,160
   1b294:	8082                	ret
   1b296:	4080043b          	negw	s0,s0
   1b29a:	952fe0ef          	jal	ra,193ec <__errno>
   1b29e:	c100                	sw	s0,0(a0)
   1b2a0:	547d                	li	s0,-1
   1b2a2:	b7c5                	j	1b282 <_fstat+0x1e>

000000000001b2a4 <_getpid>:
   1b2a4:	4505                	li	a0,1
   1b2a6:	8082                	ret

000000000001b2a8 <_isatty>:
   1b2a8:	7119                	addi	sp,sp,-128
   1b2aa:	002c                	addi	a1,sp,8
   1b2ac:	fc86                	sd	ra,120(sp)
   1b2ae:	fb7ff0ef          	jal	ra,1b264 <_fstat>
   1b2b2:	57fd                	li	a5,-1
   1b2b4:	00f50963          	beq	a0,a5,1b2c6 <_isatty+0x1e>
   1b2b8:	4532                	lw	a0,12(sp)
   1b2ba:	70e6                	ld	ra,120(sp)
   1b2bc:	40d5551b          	sraiw	a0,a0,0xd
   1b2c0:	8905                	andi	a0,a0,1
   1b2c2:	6109                	addi	sp,sp,128
   1b2c4:	8082                	ret
   1b2c6:	70e6                	ld	ra,120(sp)
   1b2c8:	4501                	li	a0,0
   1b2ca:	6109                	addi	sp,sp,128
   1b2cc:	8082                	ret

000000000001b2ce <_kill>:
   1b2ce:	1141                	addi	sp,sp,-16
   1b2d0:	e406                	sd	ra,8(sp)
   1b2d2:	91afe0ef          	jal	ra,193ec <__errno>
   1b2d6:	60a2                	ld	ra,8(sp)
   1b2d8:	47d9                	li	a5,22
   1b2da:	c11c                	sw	a5,0(a0)
   1b2dc:	557d                	li	a0,-1
   1b2de:	0141                	addi	sp,sp,16
   1b2e0:	8082                	ret

000000000001b2e2 <_lseek>:
   1b2e2:	1141                	addi	sp,sp,-16
   1b2e4:	e406                	sd	ra,8(sp)
   1b2e6:	e022                	sd	s0,0(sp)
   1b2e8:	03e00893          	li	a7,62
   1b2ec:	00000073          	ecall
   1b2f0:	842a                	mv	s0,a0
   1b2f2:	00054763          	bltz	a0,1b300 <_lseek+0x1e>
   1b2f6:	60a2                	ld	ra,8(sp)
   1b2f8:	8522                	mv	a0,s0
   1b2fa:	6402                	ld	s0,0(sp)
   1b2fc:	0141                	addi	sp,sp,16
   1b2fe:	8082                	ret
   1b300:	4080043b          	negw	s0,s0
   1b304:	8e8fe0ef          	jal	ra,193ec <__errno>
   1b308:	c100                	sw	s0,0(a0)
   1b30a:	547d                	li	s0,-1
   1b30c:	b7ed                	j	1b2f6 <_lseek+0x14>

000000000001b30e <_read>:
   1b30e:	1141                	addi	sp,sp,-16
   1b310:	e406                	sd	ra,8(sp)
   1b312:	e022                	sd	s0,0(sp)
   1b314:	03f00893          	li	a7,63
   1b318:	00000073          	ecall
   1b31c:	842a                	mv	s0,a0
   1b31e:	00054763          	bltz	a0,1b32c <_read+0x1e>
   1b322:	60a2                	ld	ra,8(sp)
   1b324:	8522                	mv	a0,s0
   1b326:	6402                	ld	s0,0(sp)
   1b328:	0141                	addi	sp,sp,16
   1b32a:	8082                	ret
   1b32c:	4080043b          	negw	s0,s0
   1b330:	8bcfe0ef          	jal	ra,193ec <__errno>
   1b334:	c100                	sw	s0,0(a0)
   1b336:	547d                	li	s0,-1
   1b338:	b7ed                	j	1b322 <_read+0x14>

000000000001b33a <_sbrk>:
   1b33a:	7981b703          	ld	a4,1944(gp) # 1f8b0 <heap_end.0>
   1b33e:	1141                	addi	sp,sp,-16
   1b340:	e406                	sd	ra,8(sp)
   1b342:	87aa                	mv	a5,a0
   1b344:	ef01                	bnez	a4,1b35c <_sbrk+0x22>
   1b346:	0d600893          	li	a7,214
   1b34a:	4501                	li	a0,0
   1b34c:	00000073          	ecall
   1b350:	567d                	li	a2,-1
   1b352:	872a                	mv	a4,a0
   1b354:	02c50563          	beq	a0,a2,1b37e <_sbrk+0x44>
   1b358:	78a1bc23          	sd	a0,1944(gp) # 1f8b0 <heap_end.0>
   1b35c:	0d600893          	li	a7,214
   1b360:	00e78533          	add	a0,a5,a4
   1b364:	00000073          	ecall
   1b368:	7981b703          	ld	a4,1944(gp) # 1f8b0 <heap_end.0>
   1b36c:	97ba                	add	a5,a5,a4
   1b36e:	00f51863          	bne	a0,a5,1b37e <_sbrk+0x44>
   1b372:	60a2                	ld	ra,8(sp)
   1b374:	78a1bc23          	sd	a0,1944(gp) # 1f8b0 <heap_end.0>
   1b378:	853a                	mv	a0,a4
   1b37a:	0141                	addi	sp,sp,16
   1b37c:	8082                	ret
   1b37e:	86efe0ef          	jal	ra,193ec <__errno>
   1b382:	60a2                	ld	ra,8(sp)
   1b384:	47b1                	li	a5,12
   1b386:	c11c                	sw	a5,0(a0)
   1b388:	557d                	li	a0,-1
   1b38a:	0141                	addi	sp,sp,16
   1b38c:	8082                	ret

000000000001b38e <_write>:
   1b38e:	1141                	addi	sp,sp,-16
   1b390:	e406                	sd	ra,8(sp)
   1b392:	e022                	sd	s0,0(sp)
   1b394:	04000893          	li	a7,64
   1b398:	00000073          	ecall
   1b39c:	842a                	mv	s0,a0
   1b39e:	00054763          	bltz	a0,1b3ac <_write+0x1e>
   1b3a2:	60a2                	ld	ra,8(sp)
   1b3a4:	8522                	mv	a0,s0
   1b3a6:	6402                	ld	s0,0(sp)
   1b3a8:	0141                	addi	sp,sp,16
   1b3aa:	8082                	ret
   1b3ac:	4080043b          	negw	s0,s0
   1b3b0:	83cfe0ef          	jal	ra,193ec <__errno>
   1b3b4:	c100                	sw	s0,0(a0)
   1b3b6:	547d                	li	s0,-1
   1b3b8:	b7ed                	j	1b3a2 <_write+0x14>

000000000001b3ba <_conv_stat>:
   1b3ba:	1141                	addi	sp,sp,-16
   1b3bc:	e422                	sd	s0,8(sp)
   1b3be:	6180                	ld	s0,0(a1)
   1b3c0:	0085b383          	ld	t2,8(a1)
   1b3c4:	0105a283          	lw	t0,16(a1)
   1b3c8:	0145af03          	lw	t5,20(a1)
   1b3cc:	0185ae83          	lw	t4,24(a1)
   1b3d0:	01c5ae03          	lw	t3,28(a1)
   1b3d4:	0205b303          	ld	t1,32(a1)
   1b3d8:	0305b883          	ld	a7,48(a1)
   1b3dc:	0405b803          	ld	a6,64(a1)
   1b3e0:	5d90                	lw	a2,56(a1)
   1b3e2:	65b4                	ld	a3,72(a1)
   1b3e4:	6db8                	ld	a4,88(a1)
   1b3e6:	75bc                	ld	a5,104(a1)
   1b3e8:	00851023          	sh	s0,0(a0)
   1b3ec:	6422                	ld	s0,8(sp)
   1b3ee:	00751123          	sh	t2,2(a0)
   1b3f2:	00552223          	sw	t0,4(a0)
   1b3f6:	01e51423          	sh	t5,8(a0)
   1b3fa:	01d51523          	sh	t4,10(a0)
   1b3fe:	01c51623          	sh	t3,12(a0)
   1b402:	00651723          	sh	t1,14(a0)
   1b406:	01153823          	sd	a7,16(a0)
   1b40a:	05053823          	sd	a6,80(a0)
   1b40e:	e530                	sd	a2,72(a0)
   1b410:	ed14                	sd	a3,24(a0)
   1b412:	f518                	sd	a4,40(a0)
   1b414:	fd1c                	sd	a5,56(a0)
   1b416:	0141                	addi	sp,sp,16
   1b418:	8082                	ret

000000000001b41a <__eqtf2>:
   1b41a:	882a                	mv	a6,a0
   1b41c:	002027f3          	frrm	a5
   1b420:	6521                	lui	a0,0x8
   1b422:	0305d893          	srli	a7,a1,0x30
   1b426:	157d                	addi	a0,a0,-1
   1b428:	57fd                	li	a5,-1
   1b42a:	83c1                	srli	a5,a5,0x10
   1b42c:	0306d313          	srli	t1,a3,0x30
   1b430:	00a8f8b3          	and	a7,a7,a0
   1b434:	00f5f733          	and	a4,a1,a5
   1b438:	00a37333          	and	t1,t1,a0
   1b43c:	8ff5                	and	a5,a5,a3
   1b43e:	91fd                	srli	a1,a1,0x3f
   1b440:	92fd                	srli	a3,a3,0x3f
   1b442:	00a89863          	bne	a7,a0,1b452 <__eqtf2+0x38>
   1b446:	01076533          	or	a0,a4,a6
   1b44a:	e105                	bnez	a0,1b46a <__eqtf2+0x50>
   1b44c:	03131a63          	bne	t1,a7,1b480 <__eqtf2+0x66>
   1b450:	a019                	j	1b456 <__eqtf2+0x3c>
   1b452:	02a31963          	bne	t1,a0,1b484 <__eqtf2+0x6a>
   1b456:	00c7e533          	or	a0,a5,a2
   1b45a:	c50d                	beqz	a0,1b484 <__eqtf2+0x6a>
   1b45c:	66a1                	lui	a3,0x8
   1b45e:	16fd                	addi	a3,a3,-1
   1b460:	00d89e63          	bne	a7,a3,1b47c <__eqtf2+0x62>
   1b464:	01076533          	or	a0,a4,a6
   1b468:	c911                	beqz	a0,1b47c <__eqtf2+0x62>
   1b46a:	933d                	srli	a4,a4,0x2f
   1b46c:	cf15                	beqz	a4,1b4a8 <__eqtf2+0x8e>
   1b46e:	6721                	lui	a4,0x8
   1b470:	177d                	addi	a4,a4,-1
   1b472:	4505                	li	a0,1
   1b474:	00e31763          	bne	t1,a4,1b482 <__eqtf2+0x68>
   1b478:	8e5d                	or	a2,a2,a5
   1b47a:	c601                	beqz	a2,1b482 <__eqtf2+0x68>
   1b47c:	93bd                	srli	a5,a5,0x2f
   1b47e:	c78d                	beqz	a5,1b4a8 <__eqtf2+0x8e>
   1b480:	4505                	li	a0,1
   1b482:	8082                	ret
   1b484:	4505                	li	a0,1
   1b486:	fe689ee3          	bne	a7,t1,1b482 <__eqtf2+0x68>
   1b48a:	fef71ce3          	bne	a4,a5,1b482 <__eqtf2+0x68>
   1b48e:	fec81ae3          	bne	a6,a2,1b482 <__eqtf2+0x68>
   1b492:	00d58963          	beq	a1,a3,1b4a4 <__eqtf2+0x8a>
   1b496:	fe0896e3          	bnez	a7,1b482 <__eqtf2+0x68>
   1b49a:	01076533          	or	a0,a4,a6
   1b49e:	00a03533          	snez	a0,a0
   1b4a2:	8082                	ret
   1b4a4:	4501                	li	a0,0
   1b4a6:	8082                	ret
   1b4a8:	00186073          	csrsi	fflags,16
   1b4ac:	bfd1                	j	1b480 <__eqtf2+0x66>

000000000001b4ae <__getf2>:
   1b4ae:	88aa                	mv	a7,a0
   1b4b0:	002027f3          	frrm	a5
   1b4b4:	6321                	lui	t1,0x8
   1b4b6:	137d                	addi	t1,t1,-1
   1b4b8:	57fd                	li	a5,-1
   1b4ba:	0305d813          	srli	a6,a1,0x30
   1b4be:	83c1                	srli	a5,a5,0x10
   1b4c0:	0306d713          	srli	a4,a3,0x30
   1b4c4:	00687833          	and	a6,a6,t1
   1b4c8:	00f5fe33          	and	t3,a1,a5
   1b4cc:	03f5d513          	srli	a0,a1,0x3f
   1b4d0:	8ff5                	and	a5,a5,a3
   1b4d2:	00677733          	and	a4,a4,t1
   1b4d6:	92fd                	srli	a3,a3,0x3f
   1b4d8:	00681963          	bne	a6,t1,1b4ea <__getf2+0x3c>
   1b4dc:	011e65b3          	or	a1,t3,a7
   1b4e0:	c5ad                	beqz	a1,1b54a <__getf2+0x9c>
   1b4e2:	00186073          	csrsi	fflags,16
   1b4e6:	5579                	li	a0,-2
   1b4e8:	8082                	ret
   1b4ea:	00671563          	bne	a4,t1,1b4f4 <__getf2+0x46>
   1b4ee:	00c7e5b3          	or	a1,a5,a2
   1b4f2:	f9e5                	bnez	a1,1b4e2 <__getf2+0x34>
   1b4f4:	04081d63          	bnez	a6,1b54e <__getf2+0xa0>
   1b4f8:	011e65b3          	or	a1,t3,a7
   1b4fc:	0015b593          	seqz	a1,a1
   1b500:	eb0d                	bnez	a4,1b532 <__getf2+0x84>
   1b502:	00c7e333          	or	t1,a5,a2
   1b506:	02031663          	bnez	t1,1b532 <__getf2+0x84>
   1b50a:	e185                	bnez	a1,1b52a <__getf2+0x7c>
   1b50c:	c10d                	beqz	a0,1b52e <__getf2+0x80>
   1b50e:	557d                	li	a0,-1
   1b510:	8082                	ret
   1b512:	557d                	li	a0,-1
   1b514:	c69d                	beqz	a3,1b542 <__getf2+0x94>
   1b516:	8536                	mv	a0,a3
   1b518:	8082                	ret
   1b51a:	ffc7e9e3          	bltu	a5,t3,1b50c <__getf2+0x5e>
   1b51e:	02fe1363          	bne	t3,a5,1b544 <__getf2+0x96>
   1b522:	ff1665e3          	bltu	a2,a7,1b50c <__getf2+0x5e>
   1b526:	00c8ed63          	bltu	a7,a2,1b540 <__getf2+0x92>
   1b52a:	4501                	li	a0,0
   1b52c:	8082                	ret
   1b52e:	4505                	li	a0,1
   1b530:	8082                	ret
   1b532:	f1e5                	bnez	a1,1b512 <__getf2+0x64>
   1b534:	fcd51ce3          	bne	a0,a3,1b50c <__getf2+0x5e>
   1b538:	fd074ae3          	blt	a4,a6,1b50c <__getf2+0x5e>
   1b53c:	fce85fe3          	bge	a6,a4,1b51a <__getf2+0x6c>
   1b540:	d579                	beqz	a0,1b50e <__getf2+0x60>
   1b542:	8082                	ret
   1b544:	fefe6ee3          	bltu	t3,a5,1b540 <__getf2+0x92>
   1b548:	b7cd                	j	1b52a <__getf2+0x7c>
   1b54a:	fb0702e3          	beq	a4,a6,1b4ee <__getf2+0x40>
   1b54e:	f37d                	bnez	a4,1b534 <__getf2+0x86>
   1b550:	4581                	li	a1,0
   1b552:	bf45                	j	1b502 <__getf2+0x54>

000000000001b554 <__letf2>:
   1b554:	88aa                	mv	a7,a0
   1b556:	002027f3          	frrm	a5
   1b55a:	6321                	lui	t1,0x8
   1b55c:	137d                	addi	t1,t1,-1
   1b55e:	57fd                	li	a5,-1
   1b560:	0305d813          	srli	a6,a1,0x30
   1b564:	83c1                	srli	a5,a5,0x10
   1b566:	0306d713          	srli	a4,a3,0x30
   1b56a:	00687833          	and	a6,a6,t1
   1b56e:	00f5fe33          	and	t3,a1,a5
   1b572:	03f5d513          	srli	a0,a1,0x3f
   1b576:	8ff5                	and	a5,a5,a3
   1b578:	00677733          	and	a4,a4,t1
   1b57c:	92fd                	srli	a3,a3,0x3f
   1b57e:	00681963          	bne	a6,t1,1b590 <__letf2+0x3c>
   1b582:	011e65b3          	or	a1,t3,a7
   1b586:	c5ad                	beqz	a1,1b5f0 <__letf2+0x9c>
   1b588:	00186073          	csrsi	fflags,16
   1b58c:	4509                	li	a0,2
   1b58e:	8082                	ret
   1b590:	00671563          	bne	a4,t1,1b59a <__letf2+0x46>
   1b594:	00c7e5b3          	or	a1,a5,a2
   1b598:	f9e5                	bnez	a1,1b588 <__letf2+0x34>
   1b59a:	04081d63          	bnez	a6,1b5f4 <__letf2+0xa0>
   1b59e:	011e65b3          	or	a1,t3,a7
   1b5a2:	0015b593          	seqz	a1,a1
   1b5a6:	eb0d                	bnez	a4,1b5d8 <__letf2+0x84>
   1b5a8:	00c7e333          	or	t1,a5,a2
   1b5ac:	02031663          	bnez	t1,1b5d8 <__letf2+0x84>
   1b5b0:	e185                	bnez	a1,1b5d0 <__letf2+0x7c>
   1b5b2:	c10d                	beqz	a0,1b5d4 <__letf2+0x80>
   1b5b4:	557d                	li	a0,-1
   1b5b6:	8082                	ret
   1b5b8:	557d                	li	a0,-1
   1b5ba:	c69d                	beqz	a3,1b5e8 <__letf2+0x94>
   1b5bc:	8536                	mv	a0,a3
   1b5be:	8082                	ret
   1b5c0:	ffc7e9e3          	bltu	a5,t3,1b5b2 <__letf2+0x5e>
   1b5c4:	02fe1363          	bne	t3,a5,1b5ea <__letf2+0x96>
   1b5c8:	ff1665e3          	bltu	a2,a7,1b5b2 <__letf2+0x5e>
   1b5cc:	00c8ed63          	bltu	a7,a2,1b5e6 <__letf2+0x92>
   1b5d0:	4501                	li	a0,0
   1b5d2:	8082                	ret
   1b5d4:	4505                	li	a0,1
   1b5d6:	8082                	ret
   1b5d8:	f1e5                	bnez	a1,1b5b8 <__letf2+0x64>
   1b5da:	fcd51ce3          	bne	a0,a3,1b5b2 <__letf2+0x5e>
   1b5de:	fd074ae3          	blt	a4,a6,1b5b2 <__letf2+0x5e>
   1b5e2:	fce85fe3          	bge	a6,a4,1b5c0 <__letf2+0x6c>
   1b5e6:	d579                	beqz	a0,1b5b4 <__letf2+0x60>
   1b5e8:	8082                	ret
   1b5ea:	fefe6ee3          	bltu	t3,a5,1b5e6 <__letf2+0x92>
   1b5ee:	b7cd                	j	1b5d0 <__letf2+0x7c>
   1b5f0:	fb0702e3          	beq	a4,a6,1b594 <__letf2+0x40>
   1b5f4:	f37d                	bnez	a4,1b5da <__letf2+0x86>
   1b5f6:	4581                	li	a1,0
   1b5f8:	bf45                	j	1b5a8 <__letf2+0x54>

000000000001b5fa <__multf3>:
   1b5fa:	711d                	addi	sp,sp,-96
   1b5fc:	f05a                	sd	s6,32(sp)
   1b5fe:	e466                	sd	s9,8(sp)
   1b600:	ec86                	sd	ra,88(sp)
   1b602:	e8a2                	sd	s0,80(sp)
   1b604:	e4a6                	sd	s1,72(sp)
   1b606:	e0ca                	sd	s2,64(sp)
   1b608:	fc4e                	sd	s3,56(sp)
   1b60a:	f852                	sd	s4,48(sp)
   1b60c:	f456                	sd	s5,40(sp)
   1b60e:	ec5e                	sd	s7,24(sp)
   1b610:	e862                	sd	s8,16(sp)
   1b612:	8cb2                	mv	s9,a2
   1b614:	8b36                	mv	s6,a3
   1b616:	00202973          	frrm	s2
   1b61a:	6721                	lui	a4,0x8
   1b61c:	0305da93          	srli	s5,a1,0x30
   1b620:	177d                	addi	a4,a4,-1
   1b622:	01059993          	slli	s3,a1,0x10
   1b626:	00eaf7b3          	and	a5,s5,a4
   1b62a:	2901                	sext.w	s2,s2
   1b62c:	0109d993          	srli	s3,s3,0x10
   1b630:	03f5db93          	srli	s7,a1,0x3f
   1b634:	c79d                	beqz	a5,1b662 <__multf3+0x68>
   1b636:	8a2a                	mv	s4,a0
   1b638:	00078a9b          	sext.w	s5,a5
   1b63c:	08e78463          	beq	a5,a4,1b6c4 <__multf3+0xca>
   1b640:	098e                	slli	s3,s3,0x3
   1b642:	03d55713          	srli	a4,a0,0x3d
   1b646:	01376733          	or	a4,a4,s3
   1b64a:	7af1                	lui	s5,0xffffc
   1b64c:	4985                	li	s3,1
   1b64e:	19ce                	slli	s3,s3,0x33
   1b650:	0a85                	addi	s5,s5,1
   1b652:	013769b3          	or	s3,a4,s3
   1b656:	00351a13          	slli	s4,a0,0x3
   1b65a:	9abe                	add	s5,s5,a5
   1b65c:	4c01                	li	s8,0
   1b65e:	4481                	li	s1,0
   1b660:	a89d                	j	1b6d6 <__multf3+0xdc>
   1b662:	00a9e7b3          	or	a5,s3,a0
   1b666:	842a                	mv	s0,a0
   1b668:	cbe1                	beqz	a5,1b738 <__multf3+0x13e>
   1b66a:	04098263          	beqz	s3,1b6ae <__multf3+0xb4>
   1b66e:	854e                	mv	a0,s3
   1b670:	198010ef          	jal	ra,1c808 <__clzdi2>
   1b674:	0005079b          	sext.w	a5,a0
   1b678:	ff178693          	addi	a3,a5,-15
   1b67c:	03c00613          	li	a2,60
   1b680:	0006871b          	sext.w	a4,a3
   1b684:	02d64a63          	blt	a2,a3,1b6b8 <__multf3+0xbe>
   1b688:	03d00693          	li	a3,61
   1b68c:	00370a1b          	addiw	s4,a4,3
   1b690:	40e6873b          	subw	a4,a3,a4
   1b694:	014999b3          	sll	s3,s3,s4
   1b698:	00e45733          	srl	a4,s0,a4
   1b69c:	013769b3          	or	s3,a4,s3
   1b6a0:	01441a33          	sll	s4,s0,s4
   1b6a4:	7af1                	lui	s5,0xffffc
   1b6a6:	0ac5                	addi	s5,s5,17
   1b6a8:	40fa8ab3          	sub	s5,s5,a5
   1b6ac:	bf45                	j	1b65c <__multf3+0x62>
   1b6ae:	15a010ef          	jal	ra,1c808 <__clzdi2>
   1b6b2:	0405079b          	addiw	a5,a0,64
   1b6b6:	b7c9                	j	1b678 <__multf3+0x7e>
   1b6b8:	fc37071b          	addiw	a4,a4,-61
   1b6bc:	00e419b3          	sll	s3,s0,a4
   1b6c0:	4a01                	li	s4,0
   1b6c2:	b7cd                	j	1b6a4 <__multf3+0xaa>
   1b6c4:	00a9e7b3          	or	a5,s3,a0
   1b6c8:	cfad                	beqz	a5,1b742 <__multf3+0x148>
   1b6ca:	02f9d793          	srli	a5,s3,0x2f
   1b6ce:	8b85                	andi	a5,a5,1
   1b6d0:	4c0d                	li	s8,3
   1b6d2:	44c1                	li	s1,16
   1b6d4:	f7c9                	bnez	a5,1b65e <__multf3+0x64>
   1b6d6:	66a1                	lui	a3,0x8
   1b6d8:	030b5513          	srli	a0,s6,0x30
   1b6dc:	16fd                	addi	a3,a3,-1
   1b6de:	010b1413          	slli	s0,s6,0x10
   1b6e2:	00d57733          	and	a4,a0,a3
   1b6e6:	87e6                	mv	a5,s9
   1b6e8:	8041                	srli	s0,s0,0x10
   1b6ea:	03fb5b13          	srli	s6,s6,0x3f
   1b6ee:	cf31                	beqz	a4,1b74a <__multf3+0x150>
   1b6f0:	0007051b          	sext.w	a0,a4
   1b6f4:	0ad70963          	beq	a4,a3,1b7a6 <__multf3+0x1ac>
   1b6f8:	040e                	slli	s0,s0,0x3
   1b6fa:	03dcd693          	srli	a3,s9,0x3d
   1b6fe:	8ec1                	or	a3,a3,s0
   1b700:	7571                	lui	a0,0xffffc
   1b702:	4405                	li	s0,1
   1b704:	144e                	slli	s0,s0,0x33
   1b706:	0505                	addi	a0,a0,1
   1b708:	8c55                	or	s0,s0,a3
   1b70a:	003c9793          	slli	a5,s9,0x3
   1b70e:	953a                	add	a0,a0,a4
   1b710:	4701                	li	a4,0
   1b712:	002c1693          	slli	a3,s8,0x2
   1b716:	8ed9                	or	a3,a3,a4
   1b718:	9aaa                	add	s5,s5,a0
   1b71a:	16fd                	addi	a3,a3,-1
   1b71c:	45b9                	li	a1,14
   1b71e:	016bc633          	xor	a2,s7,s6
   1b722:	001a8813          	addi	a6,s5,1 # ffffffffffffc001 <__BSS_END__+0xfffffffffffdc6e9>
   1b726:	0ed5e563          	bltu	a1,a3,1b810 <__multf3+0x216>
   1b72a:	65f5                	lui	a1,0x1d
   1b72c:	068a                	slli	a3,a3,0x2
   1b72e:	55058593          	addi	a1,a1,1360 # 1d550 <zeroes.0+0x10>
   1b732:	96ae                	add	a3,a3,a1
   1b734:	4294                	lw	a3,0(a3)
   1b736:	8682                	jr	a3
   1b738:	4981                	li	s3,0
   1b73a:	4a01                	li	s4,0
   1b73c:	4a81                	li	s5,0
   1b73e:	4c05                	li	s8,1
   1b740:	bf39                	j	1b65e <__multf3+0x64>
   1b742:	4981                	li	s3,0
   1b744:	4a01                	li	s4,0
   1b746:	4c09                	li	s8,2
   1b748:	bf19                	j	1b65e <__multf3+0x64>
   1b74a:	008ce7b3          	or	a5,s9,s0
   1b74e:	c7b5                	beqz	a5,1b7ba <__multf3+0x1c0>
   1b750:	cc1d                	beqz	s0,1b78e <__multf3+0x194>
   1b752:	8522                	mv	a0,s0
   1b754:	0b4010ef          	jal	ra,1c808 <__clzdi2>
   1b758:	0005071b          	sext.w	a4,a0
   1b75c:	ff170793          	addi	a5,a4,-15 # 7ff1 <register_fini-0x80f7>
   1b760:	03c00613          	li	a2,60
   1b764:	0007869b          	sext.w	a3,a5
   1b768:	02f64963          	blt	a2,a5,1b79a <__multf3+0x1a0>
   1b76c:	03d00613          	li	a2,61
   1b770:	0036879b          	addiw	a5,a3,3
   1b774:	40d606bb          	subw	a3,a2,a3
   1b778:	00f41433          	sll	s0,s0,a5
   1b77c:	00dcd6b3          	srl	a3,s9,a3
   1b780:	8c55                	or	s0,s0,a3
   1b782:	00fc97b3          	sll	a5,s9,a5
   1b786:	7571                	lui	a0,0xffffc
   1b788:	0545                	addi	a0,a0,17
   1b78a:	8d19                	sub	a0,a0,a4
   1b78c:	b751                	j	1b710 <__multf3+0x116>
   1b78e:	8566                	mv	a0,s9
   1b790:	078010ef          	jal	ra,1c808 <__clzdi2>
   1b794:	0405071b          	addiw	a4,a0,64
   1b798:	b7d1                	j	1b75c <__multf3+0x162>
   1b79a:	fc36869b          	addiw	a3,a3,-61
   1b79e:	00dc9433          	sll	s0,s9,a3
   1b7a2:	4781                	li	a5,0
   1b7a4:	b7cd                	j	1b786 <__multf3+0x18c>
   1b7a6:	008ce733          	or	a4,s9,s0
   1b7aa:	cf09                	beqz	a4,1b7c4 <__multf3+0x1ca>
   1b7ac:	02f45713          	srli	a4,s0,0x2f
   1b7b0:	8b05                	andi	a4,a4,1
   1b7b2:	ef09                	bnez	a4,1b7cc <__multf3+0x1d2>
   1b7b4:	470d                	li	a4,3
   1b7b6:	44c1                	li	s1,16
   1b7b8:	bfa9                	j	1b712 <__multf3+0x118>
   1b7ba:	4401                	li	s0,0
   1b7bc:	4781                	li	a5,0
   1b7be:	4501                	li	a0,0
   1b7c0:	4705                	li	a4,1
   1b7c2:	bf81                	j	1b712 <__multf3+0x118>
   1b7c4:	4401                	li	s0,0
   1b7c6:	4781                	li	a5,0
   1b7c8:	4709                	li	a4,2
   1b7ca:	b7a1                	j	1b712 <__multf3+0x118>
   1b7cc:	470d                	li	a4,3
   1b7ce:	b791                	j	1b712 <__multf3+0x118>
   1b7d0:	4405                	li	s0,1
   1b7d2:	6721                	lui	a4,0x8
   1b7d4:	143e                	slli	s0,s0,0x2f
   1b7d6:	4501                	li	a0,0
   1b7d8:	177d                	addi	a4,a4,-1
   1b7da:	4601                	li	a2,0
   1b7dc:	44c1                	li	s1,16
   1b7de:	1746                	slli	a4,a4,0x31
   1b7e0:	9345                	srli	a4,a4,0x31
   1b7e2:	063e                	slli	a2,a2,0xf
   1b7e4:	0442                	slli	s0,s0,0x10
   1b7e6:	8f51                	or	a4,a4,a2
   1b7e8:	1742                	slli	a4,a4,0x30
   1b7ea:	01045593          	srli	a1,s0,0x10
   1b7ee:	8dd9                	or	a1,a1,a4
   1b7f0:	c099                	beqz	s1,1b7f6 <__multf3+0x1fc>
   1b7f2:	0014a073          	csrs	fflags,s1
   1b7f6:	60e6                	ld	ra,88(sp)
   1b7f8:	6446                	ld	s0,80(sp)
   1b7fa:	64a6                	ld	s1,72(sp)
   1b7fc:	6906                	ld	s2,64(sp)
   1b7fe:	79e2                	ld	s3,56(sp)
   1b800:	7a42                	ld	s4,48(sp)
   1b802:	7aa2                	ld	s5,40(sp)
   1b804:	7b02                	ld	s6,32(sp)
   1b806:	6be2                	ld	s7,24(sp)
   1b808:	6c42                	ld	s8,16(sp)
   1b80a:	6ca2                	ld	s9,8(sp)
   1b80c:	6125                	addi	sp,sp,96
   1b80e:	8082                	ret
   1b810:	557d                	li	a0,-1
   1b812:	9101                	srli	a0,a0,0x20
   1b814:	014983b3          	add	t2,s3,s4
   1b818:	008782b3          	add	t0,a5,s0
   1b81c:	020a5e13          	srli	t3,s4,0x20
   1b820:	0207d693          	srli	a3,a5,0x20
   1b824:	0143beb3          	sltu	t4,t2,s4
   1b828:	00f2bf33          	sltu	t5,t0,a5
   1b82c:	00aa7a33          	and	s4,s4,a0
   1b830:	8fe9                	and	a5,a5,a0
   1b832:	03478533          	mul	a0,a5,s4
   1b836:	8376                	mv	t1,t4
   1b838:	8b7a                	mv	s6,t5
   1b83a:	02fe07b3          	mul	a5,t3,a5
   1b83e:	02de0733          	mul	a4,t3,a3
   1b842:	034686b3          	mul	a3,a3,s4
   1b846:	02055a13          	srli	s4,a0,0x20
   1b84a:	96be                	add	a3,a3,a5
   1b84c:	9a36                	add	s4,s4,a3
   1b84e:	00fa7563          	bgeu	s4,a5,1b858 <__multf3+0x25e>
   1b852:	4785                	li	a5,1
   1b854:	1782                	slli	a5,a5,0x20
   1b856:	973e                	add	a4,a4,a5
   1b858:	56fd                	li	a3,-1
   1b85a:	9281                	srli	a3,a3,0x20
   1b85c:	020a5e13          	srli	t3,s4,0x20
   1b860:	00da75b3          	and	a1,s4,a3
   1b864:	8d75                	and	a0,a0,a3
   1b866:	0203dc13          	srli	s8,t2,0x20
   1b86a:	0202d793          	srli	a5,t0,0x20
   1b86e:	9e3a                	add	t3,t3,a4
   1b870:	00d3f733          	and	a4,t2,a3
   1b874:	00d2f6b3          	and	a3,t0,a3
   1b878:	02e68a33          	mul	s4,a3,a4
   1b87c:	1582                	slli	a1,a1,0x20
   1b87e:	95aa                	add	a1,a1,a0
   1b880:	02dc06b3          	mul	a3,s8,a3
   1b884:	02fc0c33          	mul	s8,s8,a5
   1b888:	02e787b3          	mul	a5,a5,a4
   1b88c:	00d78733          	add	a4,a5,a3
   1b890:	020a5793          	srli	a5,s4,0x20
   1b894:	97ba                	add	a5,a5,a4
   1b896:	00d7f563          	bgeu	a5,a3,1b8a0 <__multf3+0x2a6>
   1b89a:	4705                	li	a4,1
   1b89c:	1702                	slli	a4,a4,0x20
   1b89e:	9c3a                	add	s8,s8,a4
   1b8a0:	58fd                	li	a7,-1
   1b8a2:	0208d893          	srli	a7,a7,0x20
   1b8a6:	0117f6b3          	and	a3,a5,a7
   1b8aa:	02045513          	srli	a0,s0,0x20
   1b8ae:	011a7a33          	and	s4,s4,a7
   1b8b2:	0207db93          	srli	s7,a5,0x20
   1b8b6:	0209d793          	srli	a5,s3,0x20
   1b8ba:	0119f9b3          	and	s3,s3,a7
   1b8be:	011478b3          	and	a7,s0,a7
   1b8c2:	03198433          	mul	s0,s3,a7
   1b8c6:	1682                	slli	a3,a3,0x20
   1b8c8:	9a36                	add	s4,s4,a3
   1b8ca:	031788b3          	mul	a7,a5,a7
   1b8ce:	02a787b3          	mul	a5,a5,a0
   1b8d2:	03350533          	mul	a0,a0,s3
   1b8d6:	02045993          	srli	s3,s0,0x20
   1b8da:	9546                	add	a0,a0,a7
   1b8dc:	99aa                	add	s3,s3,a0
   1b8de:	0119f563          	bgeu	s3,a7,1b8e8 <__multf3+0x2ee>
   1b8e2:	4705                	li	a4,1
   1b8e4:	1702                	slli	a4,a4,0x20
   1b8e6:	97ba                	add	a5,a5,a4
   1b8e8:	0209d693          	srli	a3,s3,0x20
   1b8ec:	97b6                	add	a5,a5,a3
   1b8ee:	56fd                	li	a3,-1
   1b8f0:	9281                	srli	a3,a3,0x20
   1b8f2:	00d9f733          	and	a4,s3,a3
   1b8f6:	8c75                	and	s0,s0,a3
   1b8f8:	01ca06b3          	add	a3,s4,t3
   1b8fc:	01c6b533          	sltu	a0,a3,t3
   1b900:	9baa                	add	s7,s7,a0
   1b902:	416008b3          	neg	a7,s6
   1b906:	9c5e                	add	s8,s8,s7
   1b908:	40600333          	neg	t1,t1
   1b90c:	0078f8b3          	and	a7,a7,t2
   1b910:	98e2                	add	a7,a7,s8
   1b912:	01eefeb3          	and	t4,t4,t5
   1b916:	005372b3          	and	t0,t1,t0
   1b91a:	00ac3533          	sltu	a0,s8,a0
   1b91e:	92c6                	add	t0,t0,a7
   1b920:	9576                	add	a0,a0,t4
   1b922:	0188bc33          	sltu	s8,a7,s8
   1b926:	9562                	add	a0,a0,s8
   1b928:	0112b8b3          	sltu	a7,t0,a7
   1b92c:	40b68333          	sub	t1,a3,a1
   1b930:	0066beb3          	sltu	t4,a3,t1
   1b934:	1702                	slli	a4,a4,0x20
   1b936:	9546                	add	a0,a0,a7
   1b938:	41c288b3          	sub	a7,t0,t3
   1b93c:	0112bf33          	sltu	t5,t0,a7
   1b940:	9722                	add	a4,a4,s0
   1b942:	41d888b3          	sub	a7,a7,t4
   1b946:	4e81                	li	t4,0
   1b948:	0066f663          	bgeu	a3,t1,1b954 <__multf3+0x35a>
   1b94c:	405e02b3          	sub	t0,t3,t0
   1b950:	0012be93          	seqz	t4,t0
   1b954:	40e30e33          	sub	t3,t1,a4
   1b958:	40f886b3          	sub	a3,a7,a5
   1b95c:	953e                	add	a0,a0,a5
   1b95e:	01c337b3          	sltu	a5,t1,t3
   1b962:	01eee2b3          	or	t0,t4,t5
   1b966:	00d8b8b3          	sltu	a7,a7,a3
   1b96a:	40f707b3          	sub	a5,a4,a5
   1b96e:	4e81                	li	t4,0
   1b970:	01c37463          	bgeu	t1,t3,1b978 <__multf3+0x37e>
   1b974:	0016be93          	seqz	t4,a3
   1b978:	96be                	add	a3,a3,a5
   1b97a:	00e6b733          	sltu	a4,a3,a4
   1b97e:	972a                	add	a4,a4,a0
   1b980:	40570733          	sub	a4,a4,t0
   1b984:	011ee8b3          	or	a7,t4,a7
   1b988:	41170733          	sub	a4,a4,a7
   1b98c:	00de1793          	slli	a5,t3,0xd
   1b990:	0736                	slli	a4,a4,0xd
   1b992:	0336d413          	srli	s0,a3,0x33
   1b996:	8fcd                	or	a5,a5,a1
   1b998:	8c59                	or	s0,s0,a4
   1b99a:	00f037b3          	snez	a5,a5
   1b99e:	033e5513          	srli	a0,t3,0x33
   1b9a2:	9351                	srli	a4,a4,0x34
   1b9a4:	8fc9                	or	a5,a5,a0
   1b9a6:	06b6                	slli	a3,a3,0xd
   1b9a8:	8b05                	andi	a4,a4,1
   1b9aa:	8fd5                	or	a5,a5,a3
   1b9ac:	cb2d                	beqz	a4,1ba1e <__multf3+0x424>
   1b9ae:	0017d713          	srli	a4,a5,0x1
   1b9b2:	8b85                	andi	a5,a5,1
   1b9b4:	03f41513          	slli	a0,s0,0x3f
   1b9b8:	8fd9                	or	a5,a5,a4
   1b9ba:	8fc9                	or	a5,a5,a0
   1b9bc:	8005                	srli	s0,s0,0x1
   1b9be:	6711                	lui	a4,0x4
   1b9c0:	177d                	addi	a4,a4,-1
   1b9c2:	9742                	add	a4,a4,a6
   1b9c4:	0ce05163          	blez	a4,1ba86 <__multf3+0x48c>
   1b9c8:	0077f693          	andi	a3,a5,7
   1b9cc:	c2a5                	beqz	a3,1ba2c <__multf3+0x432>
   1b9ce:	4689                	li	a3,2
   1b9d0:	0014e493          	ori	s1,s1,1
   1b9d4:	04d90b63          	beq	s2,a3,1ba2a <__multf3+0x430>
   1b9d8:	468d                	li	a3,3
   1b9da:	04d90463          	beq	s2,a3,1ba22 <__multf3+0x428>
   1b9de:	04091763          	bnez	s2,1ba2c <__multf3+0x432>
   1b9e2:	00f7f693          	andi	a3,a5,15
   1b9e6:	4591                	li	a1,4
   1b9e8:	04b68263          	beq	a3,a1,1ba2c <__multf3+0x432>
   1b9ec:	00478693          	addi	a3,a5,4
   1b9f0:	00f6b7b3          	sltu	a5,a3,a5
   1b9f4:	943e                	add	s0,s0,a5
   1b9f6:	87b6                	mv	a5,a3
   1b9f8:	a815                	j	1ba2c <__multf3+0x432>
   1b9fa:	865e                	mv	a2,s7
   1b9fc:	844e                	mv	s0,s3
   1b9fe:	87d2                	mv	a5,s4
   1ba00:	8762                	mv	a4,s8
   1ba02:	4689                	li	a3,2
   1ba04:	1cd70f63          	beq	a4,a3,1bbe2 <__multf3+0x5e8>
   1ba08:	468d                	li	a3,3
   1ba0a:	1ed70163          	beq	a4,a3,1bbec <__multf3+0x5f2>
   1ba0e:	4685                	li	a3,1
   1ba10:	fad717e3          	bne	a4,a3,1b9be <__multf3+0x3c4>
   1ba14:	4401                	li	s0,0
   1ba16:	4501                	li	a0,0
   1ba18:	aa65                	j	1bbd0 <__multf3+0x5d6>
   1ba1a:	865a                	mv	a2,s6
   1ba1c:	b7dd                	j	1ba02 <__multf3+0x408>
   1ba1e:	8856                	mv	a6,s5
   1ba20:	bf79                	j	1b9be <__multf3+0x3c4>
   1ba22:	e609                	bnez	a2,1ba2c <__multf3+0x432>
   1ba24:	00878693          	addi	a3,a5,8
   1ba28:	b7e1                	j	1b9f0 <__multf3+0x3f6>
   1ba2a:	fe6d                	bnez	a2,1ba24 <__multf3+0x42a>
   1ba2c:	03445693          	srli	a3,s0,0x34
   1ba30:	8a85                	andi	a3,a3,1
   1ba32:	c699                	beqz	a3,1ba40 <__multf3+0x446>
   1ba34:	577d                	li	a4,-1
   1ba36:	1752                	slli	a4,a4,0x34
   1ba38:	177d                	addi	a4,a4,-1
   1ba3a:	8c79                	and	s0,s0,a4
   1ba3c:	6711                	lui	a4,0x4
   1ba3e:	9742                	add	a4,a4,a6
   1ba40:	66a1                	lui	a3,0x8
   1ba42:	ffe68593          	addi	a1,a3,-2 # 7ffe <register_fini-0x80ea>
   1ba46:	00e5c863          	blt	a1,a4,1ba56 <__multf3+0x45c>
   1ba4a:	03d41513          	slli	a0,s0,0x3d
   1ba4e:	838d                	srli	a5,a5,0x3
   1ba50:	8d5d                	or	a0,a0,a5
   1ba52:	800d                	srli	s0,s0,0x3
   1ba54:	b369                	j	1b7de <__multf3+0x1e4>
   1ba56:	4789                	li	a5,2
   1ba58:	02f90263          	beq	s2,a5,1ba7c <__multf3+0x482>
   1ba5c:	478d                	li	a5,3
   1ba5e:	fff68713          	addi	a4,a3,-1
   1ba62:	00f90663          	beq	s2,a5,1ba6e <__multf3+0x474>
   1ba66:	00091563          	bnez	s2,1ba70 <__multf3+0x476>
   1ba6a:	4501                	li	a0,0
   1ba6c:	a021                	j	1ba74 <__multf3+0x47a>
   1ba6e:	de75                	beqz	a2,1ba6a <__multf3+0x470>
   1ba70:	557d                	li	a0,-1
   1ba72:	872e                	mv	a4,a1
   1ba74:	0054e493          	ori	s1,s1,5
   1ba78:	842a                	mv	s0,a0
   1ba7a:	b395                	j	1b7de <__multf3+0x1e4>
   1ba7c:	da75                	beqz	a2,1ba70 <__multf3+0x476>
   1ba7e:	4501                	li	a0,0
   1ba80:	fff68713          	addi	a4,a3,-1
   1ba84:	bfc5                	j	1ba74 <__multf3+0x47a>
   1ba86:	4685                	li	a3,1
   1ba88:	e729                	bnez	a4,1bad2 <__multf3+0x4d8>
   1ba8a:	0077f593          	andi	a1,a5,7
   1ba8e:	86a2                	mv	a3,s0
   1ba90:	cd8d                	beqz	a1,1baca <__multf3+0x4d0>
   1ba92:	4589                	li	a1,2
   1ba94:	0014e493          	ori	s1,s1,1
   1ba98:	02b90863          	beq	s2,a1,1bac8 <__multf3+0x4ce>
   1ba9c:	458d                	li	a1,3
   1ba9e:	02b90163          	beq	s2,a1,1bac0 <__multf3+0x4c6>
   1baa2:	02091463          	bnez	s2,1baca <__multf3+0x4d0>
   1baa6:	00f7f593          	andi	a1,a5,15
   1baaa:	4511                	li	a0,4
   1baac:	00a58f63          	beq	a1,a0,1baca <__multf3+0x4d0>
   1bab0:	ffc7b693          	sltiu	a3,a5,-4
   1bab4:	0016c693          	xori	a3,a3,1
   1bab8:	1682                	slli	a3,a3,0x20
   1baba:	9281                	srli	a3,a3,0x20
   1babc:	96a2                	add	a3,a3,s0
   1babe:	a031                	j	1baca <__multf3+0x4d0>
   1bac0:	e609                	bnez	a2,1baca <__multf3+0x4d0>
   1bac2:	ff87b693          	sltiu	a3,a5,-8
   1bac6:	b7fd                	j	1bab4 <__multf3+0x4ba>
   1bac8:	fe6d                	bnez	a2,1bac2 <__multf3+0x4c8>
   1baca:	92d1                	srli	a3,a3,0x34
   1bacc:	0016c693          	xori	a3,a3,1
   1bad0:	8a85                	andi	a3,a3,1
   1bad2:	4805                	li	a6,1
   1bad4:	40e80833          	sub	a6,a6,a4
   1bad8:	07400713          	li	a4,116
   1badc:	0d074663          	blt	a4,a6,1bba8 <__multf3+0x5ae>
   1bae0:	03f00593          	li	a1,63
   1bae4:	0008071b          	sext.w	a4,a6
   1bae8:	0505cb63          	blt	a1,a6,1bb3e <__multf3+0x544>
   1baec:	04000593          	li	a1,64
   1baf0:	9d99                	subw	a1,a1,a4
   1baf2:	00b41533          	sll	a0,s0,a1
   1baf6:	00e7d833          	srl	a6,a5,a4
   1bafa:	00b797b3          	sll	a5,a5,a1
   1bafe:	01056533          	or	a0,a0,a6
   1bb02:	00f037b3          	snez	a5,a5
   1bb06:	8d5d                	or	a0,a0,a5
   1bb08:	00e45433          	srl	s0,s0,a4
   1bb0c:	00757793          	andi	a5,a0,7
   1bb10:	c3ad                	beqz	a5,1bb72 <__multf3+0x578>
   1bb12:	4789                	li	a5,2
   1bb14:	0014e493          	ori	s1,s1,1
   1bb18:	04f90c63          	beq	s2,a5,1bb70 <__multf3+0x576>
   1bb1c:	478d                	li	a5,3
   1bb1e:	04f90563          	beq	s2,a5,1bb68 <__multf3+0x56e>
   1bb22:	04091863          	bnez	s2,1bb72 <__multf3+0x578>
   1bb26:	00f57793          	andi	a5,a0,15
   1bb2a:	4711                	li	a4,4
   1bb2c:	04e78363          	beq	a5,a4,1bb72 <__multf3+0x578>
   1bb30:	00450793          	addi	a5,a0,4 # ffffffffffffc004 <__BSS_END__+0xfffffffffffdc6ec>
   1bb34:	00a7b533          	sltu	a0,a5,a0
   1bb38:	942a                	add	s0,s0,a0
   1bb3a:	853e                	mv	a0,a5
   1bb3c:	a81d                	j	1bb72 <__multf3+0x578>
   1bb3e:	fc07051b          	addiw	a0,a4,-64
   1bb42:	04000893          	li	a7,64
   1bb46:	00a45533          	srl	a0,s0,a0
   1bb4a:	4581                	li	a1,0
   1bb4c:	01180863          	beq	a6,a7,1bb5c <__multf3+0x562>
   1bb50:	08000593          	li	a1,128
   1bb54:	40e5873b          	subw	a4,a1,a4
   1bb58:	00e415b3          	sll	a1,s0,a4
   1bb5c:	8fcd                	or	a5,a5,a1
   1bb5e:	00f037b3          	snez	a5,a5
   1bb62:	8d5d                	or	a0,a0,a5
   1bb64:	4401                	li	s0,0
   1bb66:	b75d                	j	1bb0c <__multf3+0x512>
   1bb68:	e609                	bnez	a2,1bb72 <__multf3+0x578>
   1bb6a:	00850793          	addi	a5,a0,8
   1bb6e:	b7d9                	j	1bb34 <__multf3+0x53a>
   1bb70:	fe6d                	bnez	a2,1bb6a <__multf3+0x570>
   1bb72:	03345793          	srli	a5,s0,0x33
   1bb76:	8b85                	andi	a5,a5,1
   1bb78:	cb99                	beqz	a5,1bb8e <__multf3+0x594>
   1bb7a:	0014e493          	ori	s1,s1,1
   1bb7e:	4401                	li	s0,0
   1bb80:	4501                	li	a0,0
   1bb82:	4705                	li	a4,1
   1bb84:	c4068de3          	beqz	a3,1b7de <__multf3+0x1e4>
   1bb88:	0024e493          	ori	s1,s1,2
   1bb8c:	b989                	j	1b7de <__multf3+0x1e4>
   1bb8e:	03d41793          	slli	a5,s0,0x3d
   1bb92:	810d                	srli	a0,a0,0x3
   1bb94:	8d5d                	or	a0,a0,a5
   1bb96:	800d                	srli	s0,s0,0x3
   1bb98:	4701                	li	a4,0
   1bb9a:	c40682e3          	beqz	a3,1b7de <__multf3+0x1e4>
   1bb9e:	0014f793          	andi	a5,s1,1
   1bba2:	c2078ee3          	beqz	a5,1b7de <__multf3+0x1e4>
   1bba6:	b7cd                	j	1bb88 <__multf3+0x58e>
   1bba8:	0087e533          	or	a0,a5,s0
   1bbac:	cd19                	beqz	a0,1bbca <__multf3+0x5d0>
   1bbae:	4789                	li	a5,2
   1bbb0:	0014e493          	ori	s1,s1,1
   1bbb4:	02f90463          	beq	s2,a5,1bbdc <__multf3+0x5e2>
   1bbb8:	478d                	li	a5,3
   1bbba:	00f90d63          	beq	s2,a5,1bbd4 <__multf3+0x5da>
   1bbbe:	4785                	li	a5,1
   1bbc0:	00091363          	bnez	s2,1bbc6 <__multf3+0x5cc>
   1bbc4:	4795                	li	a5,5
   1bbc6:	0037d513          	srli	a0,a5,0x3
   1bbca:	0024e493          	ori	s1,s1,2
   1bbce:	4401                	li	s0,0
   1bbd0:	4701                	li	a4,0
   1bbd2:	b131                	j	1b7de <__multf3+0x1e4>
   1bbd4:	47a5                	li	a5,9
   1bbd6:	da65                	beqz	a2,1bbc6 <__multf3+0x5cc>
   1bbd8:	4785                	li	a5,1
   1bbda:	b7f5                	j	1bbc6 <__multf3+0x5cc>
   1bbdc:	47a5                	li	a5,9
   1bbde:	f665                	bnez	a2,1bbc6 <__multf3+0x5cc>
   1bbe0:	bfe5                	j	1bbd8 <__multf3+0x5de>
   1bbe2:	6721                	lui	a4,0x8
   1bbe4:	4401                	li	s0,0
   1bbe6:	4501                	li	a0,0
   1bbe8:	177d                	addi	a4,a4,-1
   1bbea:	bed5                	j	1b7de <__multf3+0x1e4>
   1bbec:	4405                	li	s0,1
   1bbee:	6721                	lui	a4,0x8
   1bbf0:	143e                	slli	s0,s0,0x2f
   1bbf2:	4501                	li	a0,0
   1bbf4:	177d                	addi	a4,a4,-1
   1bbf6:	4601                	li	a2,0
   1bbf8:	b6dd                	j	1b7de <__multf3+0x1e4>

000000000001bbfa <__subtf3>:
   1bbfa:	7179                	addi	sp,sp,-48
   1bbfc:	f406                	sd	ra,40(sp)
   1bbfe:	f022                	sd	s0,32(sp)
   1bc00:	ec26                	sd	s1,24(sp)
   1bc02:	e84a                	sd	s2,16(sp)
   1bc04:	e44e                	sd	s3,8(sp)
   1bc06:	e052                	sd	s4,0(sp)
   1bc08:	002024f3          	frrm	s1
   1bc0c:	577d                	li	a4,-1
   1bc0e:	8341                	srli	a4,a4,0x10
   1bc10:	6821                	lui	a6,0x8
   1bc12:	0305d893          	srli	a7,a1,0x30
   1bc16:	187d                	addi	a6,a6,-1
   1bc18:	0306de93          	srli	t4,a3,0x30
   1bc1c:	03f5d413          	srli	s0,a1,0x3f
   1bc20:	03f6d313          	srli	t1,a3,0x3f
   1bc24:	8df9                	and	a1,a1,a4
   1bc26:	8ef9                	and	a3,a3,a4
   1bc28:	058e                	slli	a1,a1,0x3
   1bc2a:	03d55793          	srli	a5,a0,0x3d
   1bc2e:	03d65713          	srli	a4,a2,0x3d
   1bc32:	0108f8b3          	and	a7,a7,a6
   1bc36:	010efeb3          	and	t4,t4,a6
   1bc3a:	068e                	slli	a3,a3,0x3
   1bc3c:	8fcd                	or	a5,a5,a1
   1bc3e:	2481                	sext.w	s1,s1
   1bc40:	89c6                	mv	s3,a7
   1bc42:	050e                	slli	a0,a0,0x3
   1bc44:	85f6                	mv	a1,t4
   1bc46:	8f55                	or	a4,a4,a3
   1bc48:	060e                	slli	a2,a2,0x3
   1bc4a:	010e9563          	bne	t4,a6,1bc54 <__subtf3+0x5a>
   1bc4e:	00c766b3          	or	a3,a4,a2
   1bc52:	e299                	bnez	a3,1bc58 <__subtf3+0x5e>
   1bc54:	00134313          	xori	t1,t1,1
   1bc58:	41d886bb          	subw	a3,a7,t4
   1bc5c:	6e21                	lui	t3,0x8
   1bc5e:	0006881b          	sext.w	a6,a3
   1bc62:	fffe0f13          	addi	t5,t3,-1 # 7fff <register_fini-0x80e9>
   1bc66:	36831f63          	bne	t1,s0,1bfe4 <__subtf3+0x3ea>
   1bc6a:	0f005663          	blez	a6,1bd56 <__subtf3+0x15c>
   1bc6e:	060e9c63          	bnez	t4,1bce6 <__subtf3+0xec>
   1bc72:	00c765b3          	or	a1,a4,a2
   1bc76:	e591                	bnez	a1,1bc82 <__subtf3+0x88>
   1bc78:	05e88b63          	beq	a7,t5,1bcce <__subtf3+0xd4>
   1bc7c:	873e                	mv	a4,a5
   1bc7e:	85c6                	mv	a1,a7
   1bc80:	a5fd                	j	1c36e <__subtf3+0x774>
   1bc82:	fff6881b          	addiw	a6,a3,-1
   1bc86:	04081263          	bnez	a6,1bcca <__subtf3+0xd0>
   1bc8a:	962a                	add	a2,a2,a0
   1bc8c:	00a63533          	sltu	a0,a2,a0
   1bc90:	973e                	add	a4,a4,a5
   1bc92:	972a                	add	a4,a4,a0
   1bc94:	85c6                	mv	a1,a7
   1bc96:	8532                	mv	a0,a2
   1bc98:	03375793          	srli	a5,a4,0x33
   1bc9c:	8b85                	andi	a5,a5,1
   1bc9e:	6c078863          	beqz	a5,1c36e <__subtf3+0x774>
   1bca2:	66a1                	lui	a3,0x8
   1bca4:	0585                	addi	a1,a1,1
   1bca6:	fff68793          	addi	a5,a3,-1 # 7fff <register_fini-0x80e9>
   1bcaa:	30f58d63          	beq	a1,a5,1bfc4 <__subtf3+0x3ca>
   1bcae:	57fd                	li	a5,-1
   1bcb0:	17ce                	slli	a5,a5,0x33
   1bcb2:	17fd                	addi	a5,a5,-1
   1bcb4:	8ff9                	and	a5,a5,a4
   1bcb6:	00155713          	srli	a4,a0,0x1
   1bcba:	8905                	andi	a0,a0,1
   1bcbc:	8d59                	or	a0,a0,a4
   1bcbe:	03f79713          	slli	a4,a5,0x3f
   1bcc2:	8d59                	or	a0,a0,a4
   1bcc4:	8385                	srli	a5,a5,0x1
   1bcc6:	4801                	li	a6,0
   1bcc8:	a46d                	j	1bf72 <__subtf3+0x378>
   1bcca:	03e89363          	bne	a7,t5,1bcf0 <__subtf3+0xf6>
   1bcce:	00a7e733          	or	a4,a5,a0
   1bcd2:	6e070363          	beqz	a4,1c3b8 <__subtf3+0x7be>
   1bcd6:	0327d713          	srli	a4,a5,0x32
   1bcda:	8b05                	andi	a4,a4,1
   1bcdc:	85c6                	mv	a1,a7
   1bcde:	4801                	li	a6,0
   1bce0:	28071963          	bnez	a4,1bf72 <__subtf3+0x378>
   1bce4:	a879                	j	1bd82 <__subtf3+0x188>
   1bce6:	ffe884e3          	beq	a7,t5,1bcce <__subtf3+0xd4>
   1bcea:	4685                	li	a3,1
   1bcec:	16ce                	slli	a3,a3,0x33
   1bcee:	8f55                	or	a4,a4,a3
   1bcf0:	07400693          	li	a3,116
   1bcf4:	0506cd63          	blt	a3,a6,1bd4e <__subtf3+0x154>
   1bcf8:	03f00693          	li	a3,63
   1bcfc:	0306c463          	blt	a3,a6,1bd24 <__subtf3+0x12a>
   1bd00:	04000593          	li	a1,64
   1bd04:	410585bb          	subw	a1,a1,a6
   1bd08:	00b716b3          	sll	a3,a4,a1
   1bd0c:	01065333          	srl	t1,a2,a6
   1bd10:	00b61633          	sll	a2,a2,a1
   1bd14:	0066e6b3          	or	a3,a3,t1
   1bd18:	00c03633          	snez	a2,a2
   1bd1c:	8e55                	or	a2,a2,a3
   1bd1e:	01075733          	srl	a4,a4,a6
   1bd22:	b7a5                	j	1bc8a <__subtf3+0x90>
   1bd24:	fc08069b          	addiw	a3,a6,-64
   1bd28:	04000313          	li	t1,64
   1bd2c:	00d756b3          	srl	a3,a4,a3
   1bd30:	4581                	li	a1,0
   1bd32:	00680863          	beq	a6,t1,1bd42 <__subtf3+0x148>
   1bd36:	08000593          	li	a1,128
   1bd3a:	410585bb          	subw	a1,a1,a6
   1bd3e:	00b715b3          	sll	a1,a4,a1
   1bd42:	8e4d                	or	a2,a2,a1
   1bd44:	00c03633          	snez	a2,a2
   1bd48:	8e55                	or	a2,a2,a3
   1bd4a:	4701                	li	a4,0
   1bd4c:	bf3d                	j	1bc8a <__subtf3+0x90>
   1bd4e:	8e59                	or	a2,a2,a4
   1bd50:	00c03633          	snez	a2,a2
   1bd54:	bfdd                	j	1bd4a <__subtf3+0x150>
   1bd56:	0e080563          	beqz	a6,1be40 <__subtf3+0x246>
   1bd5a:	04089f63          	bnez	a7,1bdb8 <__subtf3+0x1be>
   1bd5e:	00a7e833          	or	a6,a5,a0
   1bd62:	02081263          	bnez	a6,1bd86 <__subtf3+0x18c>
   1bd66:	8532                	mv	a0,a2
   1bd68:	61ee9363          	bne	t4,t5,1c36e <__subtf3+0x774>
   1bd6c:	00c76533          	or	a0,a4,a2
   1bd70:	62050e63          	beqz	a0,1c3ac <__subtf3+0x7b2>
   1bd74:	03275793          	srli	a5,a4,0x32
   1bd78:	8b85                	andi	a5,a5,1
   1bd7a:	62079c63          	bnez	a5,1c3b2 <__subtf3+0x7b8>
   1bd7e:	87ba                	mv	a5,a4
   1bd80:	8532                	mv	a0,a2
   1bd82:	46c1                	li	a3,16
   1bd84:	a209                	j	1be86 <__subtf3+0x28c>
   1bd86:	fff6c693          	not	a3,a3
   1bd8a:	2681                	sext.w	a3,a3
   1bd8c:	e699                	bnez	a3,1bd9a <__subtf3+0x1a0>
   1bd8e:	9532                	add	a0,a0,a2
   1bd90:	973e                	add	a4,a4,a5
   1bd92:	00c53633          	sltu	a2,a0,a2
   1bd96:	9732                	add	a4,a4,a2
   1bd98:	b701                	j	1bc98 <__subtf3+0x9e>
   1bd9a:	03ee9763          	bne	t4,t5,1bdc8 <__subtf3+0x1ce>
   1bd9e:	00c76533          	or	a0,a4,a2
   1bda2:	60050563          	beqz	a0,1c3ac <__subtf3+0x7b2>
   1bda6:	03275793          	srli	a5,a4,0x32
   1bdaa:	8b85                	andi	a5,a5,1
   1bdac:	60079363          	bnez	a5,1c3b2 <__subtf3+0x7b8>
   1bdb0:	87ba                	mv	a5,a4
   1bdb2:	8532                	mv	a0,a2
   1bdb4:	4801                	li	a6,0
   1bdb6:	b7f1                	j	1bd82 <__subtf3+0x188>
   1bdb8:	ffee83e3          	beq	t4,t5,1bd9e <__subtf3+0x1a4>
   1bdbc:	4805                	li	a6,1
   1bdbe:	184e                	slli	a6,a6,0x33
   1bdc0:	40d006bb          	negw	a3,a3
   1bdc4:	0107e7b3          	or	a5,a5,a6
   1bdc8:	07400813          	li	a6,116
   1bdcc:	06d84663          	blt	a6,a3,1be38 <__subtf3+0x23e>
   1bdd0:	03f00813          	li	a6,63
   1bdd4:	02d84b63          	blt	a6,a3,1be0a <__subtf3+0x210>
   1bdd8:	04000893          	li	a7,64
   1bddc:	40d888bb          	subw	a7,a7,a3
   1bde0:	00d55333          	srl	t1,a0,a3
   1bde4:	01179833          	sll	a6,a5,a7
   1bde8:	01151533          	sll	a0,a0,a7
   1bdec:	00686833          	or	a6,a6,t1
   1bdf0:	00a03533          	snez	a0,a0
   1bdf4:	00a86533          	or	a0,a6,a0
   1bdf8:	00d7d6b3          	srl	a3,a5,a3
   1bdfc:	9532                	add	a0,a0,a2
   1bdfe:	96ba                	add	a3,a3,a4
   1be00:	00c53633          	sltu	a2,a0,a2
   1be04:	00c68733          	add	a4,a3,a2
   1be08:	bd41                	j	1bc98 <__subtf3+0x9e>
   1be0a:	fc06881b          	addiw	a6,a3,-64
   1be0e:	04000313          	li	t1,64
   1be12:	0107d833          	srl	a6,a5,a6
   1be16:	4881                	li	a7,0
   1be18:	00668863          	beq	a3,t1,1be28 <__subtf3+0x22e>
   1be1c:	08000893          	li	a7,128
   1be20:	40d886bb          	subw	a3,a7,a3
   1be24:	00d798b3          	sll	a7,a5,a3
   1be28:	00a8e533          	or	a0,a7,a0
   1be2c:	00a03533          	snez	a0,a0
   1be30:	00a86533          	or	a0,a6,a0
   1be34:	4681                	li	a3,0
   1be36:	b7d9                	j	1bdfc <__subtf3+0x202>
   1be38:	8d5d                	or	a0,a0,a5
   1be3a:	00a03533          	snez	a0,a0
   1be3e:	bfdd                	j	1be34 <__subtf3+0x23a>
   1be40:	00188593          	addi	a1,a7,1
   1be44:	ffee0693          	addi	a3,t3,-2
   1be48:	00d5f333          	and	t1,a1,a3
   1be4c:	10031763          	bnez	t1,1bf5a <__subtf3+0x360>
   1be50:	00a7e5b3          	or	a1,a5,a0
   1be54:	04089563          	bnez	a7,1be9e <__subtf3+0x2a4>
   1be58:	52058263          	beqz	a1,1c37c <__subtf3+0x782>
   1be5c:	00c766b3          	or	a3,a4,a2
   1be60:	34068b63          	beqz	a3,1c1b6 <__subtf3+0x5bc>
   1be64:	962a                	add	a2,a2,a0
   1be66:	97ba                	add	a5,a5,a4
   1be68:	00a63533          	sltu	a0,a2,a0
   1be6c:	97aa                	add	a5,a5,a0
   1be6e:	0337d713          	srli	a4,a5,0x33
   1be72:	8b05                	andi	a4,a4,1
   1be74:	50070563          	beqz	a4,1c37e <__subtf3+0x784>
   1be78:	577d                	li	a4,-1
   1be7a:	174e                	slli	a4,a4,0x33
   1be7c:	177d                	addi	a4,a4,-1
   1be7e:	8ff9                	and	a5,a5,a4
   1be80:	8532                	mv	a0,a2
   1be82:	4681                	li	a3,0
   1be84:	4585                	li	a1,1
   1be86:	00757713          	andi	a4,a0,7
   1be8a:	10071763          	bnez	a4,1bf98 <__subtf3+0x39e>
   1be8e:	06080163          	beqz	a6,1bef0 <__subtf3+0x2f6>
   1be92:	0016f713          	andi	a4,a3,1
   1be96:	cf29                	beqz	a4,1bef0 <__subtf3+0x2f6>
   1be98:	0026e693          	ori	a3,a3,2
   1be9c:	a891                	j	1bef0 <__subtf3+0x2f6>
   1be9e:	03e89863          	bne	a7,t5,1bece <__subtf3+0x2d4>
   1bea2:	58058063          	beqz	a1,1c422 <__subtf3+0x828>
   1bea6:	0327d693          	srli	a3,a5,0x32
   1beaa:	8a85                	andi	a3,a3,1
   1beac:	0016b693          	seqz	a3,a3
   1beb0:	0692                	slli	a3,a3,0x4
   1beb2:	031e9763          	bne	t4,a7,1bee0 <__subtf3+0x2e6>
   1beb6:	00c768b3          	or	a7,a4,a2
   1beba:	00088d63          	beqz	a7,1bed4 <__subtf3+0x2da>
   1bebe:	03275893          	srli	a7,a4,0x32
   1bec2:	0018f893          	andi	a7,a7,1
   1bec6:	00089763          	bnez	a7,1bed4 <__subtf3+0x2da>
   1beca:	46c1                	li	a3,16
   1becc:	a021                	j	1bed4 <__subtf3+0x2da>
   1bece:	4681                	li	a3,0
   1bed0:	ffee83e3          	beq	t4,t5,1beb6 <__subtf3+0x2bc>
   1bed4:	e591                	bnez	a1,1bee0 <__subtf3+0x2e6>
   1bed6:	87ba                	mv	a5,a4
   1bed8:	8532                	mv	a0,a2
   1beda:	65a1                	lui	a1,0x8
   1bedc:	15fd                	addi	a1,a1,-1
   1bede:	b765                	j	1be86 <__subtf3+0x28c>
   1bee0:	8e59                	or	a2,a2,a4
   1bee2:	de65                	beqz	a2,1beda <__subtf3+0x2e0>
   1bee4:	4785                	li	a5,1
   1bee6:	65a1                	lui	a1,0x8
   1bee8:	4401                	li	s0,0
   1beea:	17ca                	slli	a5,a5,0x32
   1beec:	4501                	li	a0,0
   1beee:	15fd                	addi	a1,a1,-1
   1bef0:	0337d713          	srli	a4,a5,0x33
   1bef4:	8b05                	andi	a4,a4,1
   1bef6:	cb19                	beqz	a4,1bf0c <__subtf3+0x312>
   1bef8:	6721                	lui	a4,0x8
   1befa:	0585                	addi	a1,a1,1
   1befc:	fff70613          	addi	a2,a4,-1 # 7fff <register_fini-0x80e9>
   1bf00:	4ec58b63          	beq	a1,a2,1c3f6 <__subtf3+0x7fc>
   1bf04:	577d                	li	a4,-1
   1bf06:	174e                	slli	a4,a4,0x33
   1bf08:	177d                	addi	a4,a4,-1
   1bf0a:	8ff9                	and	a5,a5,a4
   1bf0c:	00355713          	srli	a4,a0,0x3
   1bf10:	03d79513          	slli	a0,a5,0x3d
   1bf14:	8d59                	or	a0,a0,a4
   1bf16:	6721                	lui	a4,0x8
   1bf18:	177d                	addi	a4,a4,-1
   1bf1a:	838d                	srli	a5,a5,0x3
   1bf1c:	00e59963          	bne	a1,a4,1bf2e <__subtf3+0x334>
   1bf20:	8d5d                	or	a0,a0,a5
   1bf22:	4781                	li	a5,0
   1bf24:	c509                	beqz	a0,1bf2e <__subtf3+0x334>
   1bf26:	4785                	li	a5,1
   1bf28:	17be                	slli	a5,a5,0x2f
   1bf2a:	4501                	li	a0,0
   1bf2c:	4401                	li	s0,0
   1bf2e:	15c6                	slli	a1,a1,0x31
   1bf30:	00f4141b          	slliw	s0,s0,0xf
   1bf34:	91c5                	srli	a1,a1,0x31
   1bf36:	8dc1                	or	a1,a1,s0
   1bf38:	07c2                	slli	a5,a5,0x10
   1bf3a:	03059413          	slli	s0,a1,0x30
   1bf3e:	0107d593          	srli	a1,a5,0x10
   1bf42:	8dc1                	or	a1,a1,s0
   1bf44:	c299                	beqz	a3,1bf4a <__subtf3+0x350>
   1bf46:	0016a073          	csrs	fflags,a3
   1bf4a:	70a2                	ld	ra,40(sp)
   1bf4c:	7402                	ld	s0,32(sp)
   1bf4e:	64e2                	ld	s1,24(sp)
   1bf50:	6942                	ld	s2,16(sp)
   1bf52:	69a2                	ld	s3,8(sp)
   1bf54:	6a02                	ld	s4,0(sp)
   1bf56:	6145                	addi	sp,sp,48
   1bf58:	8082                	ret
   1bf5a:	01e58e63          	beq	a1,t5,1bf76 <__subtf3+0x37c>
   1bf5e:	962a                	add	a2,a2,a0
   1bf60:	00a63533          	sltu	a0,a2,a0
   1bf64:	97ba                	add	a5,a5,a4
   1bf66:	97aa                	add	a5,a5,a0
   1bf68:	03f79513          	slli	a0,a5,0x3f
   1bf6c:	8205                	srli	a2,a2,0x1
   1bf6e:	8d51                	or	a0,a0,a2
   1bf70:	8385                	srli	a5,a5,0x1
   1bf72:	4681                	li	a3,0
   1bf74:	bf09                	j	1be86 <__subtf3+0x28c>
   1bf76:	c489                	beqz	s1,1bf80 <__subtf3+0x386>
   1bf78:	478d                	li	a5,3
   1bf7a:	00f49763          	bne	s1,a5,1bf88 <__subtf3+0x38e>
   1bf7e:	e809                	bnez	s0,1bf90 <__subtf3+0x396>
   1bf80:	4781                	li	a5,0
   1bf82:	4501                	li	a0,0
   1bf84:	4695                	li	a3,5
   1bf86:	b7ad                	j	1bef0 <__subtf3+0x2f6>
   1bf88:	4789                	li	a5,2
   1bf8a:	00f49363          	bne	s1,a5,1bf90 <__subtf3+0x396>
   1bf8e:	f86d                	bnez	s0,1bf80 <__subtf3+0x386>
   1bf90:	57fd                	li	a5,-1
   1bf92:	557d                	li	a0,-1
   1bf94:	85b6                	mv	a1,a3
   1bf96:	4695                	li	a3,5
   1bf98:	4709                	li	a4,2
   1bf9a:	0016e693          	ori	a3,a3,1
   1bf9e:	44e48863          	beq	s1,a4,1c3ee <__subtf3+0x7f4>
   1bfa2:	470d                	li	a4,3
   1bfa4:	44e48163          	beq	s1,a4,1c3e6 <__subtf3+0x7ec>
   1bfa8:	44049463          	bnez	s1,1c3f0 <__subtf3+0x7f6>
   1bfac:	00f57713          	andi	a4,a0,15
   1bfb0:	4611                	li	a2,4
   1bfb2:	42c70f63          	beq	a4,a2,1c3f0 <__subtf3+0x7f6>
   1bfb6:	00450713          	addi	a4,a0,4
   1bfba:	00a73533          	sltu	a0,a4,a0
   1bfbe:	97aa                	add	a5,a5,a0
   1bfc0:	853a                	mv	a0,a4
   1bfc2:	a13d                	j	1c3f0 <__subtf3+0x7f6>
   1bfc4:	dcd5                	beqz	s1,1bf80 <__subtf3+0x386>
   1bfc6:	478d                	li	a5,3
   1bfc8:	00f49963          	bne	s1,a5,1bfda <__subtf3+0x3e0>
   1bfcc:	d855                	beqz	s0,1bf80 <__subtf3+0x386>
   1bfce:	57fd                	li	a5,-1
   1bfd0:	557d                	li	a0,-1
   1bfd2:	ffe68593          	addi	a1,a3,-2
   1bfd6:	4801                	li	a6,0
   1bfd8:	bf7d                	j	1bf96 <__subtf3+0x39c>
   1bfda:	4789                	li	a5,2
   1bfdc:	fef499e3          	bne	s1,a5,1bfce <__subtf3+0x3d4>
   1bfe0:	f045                	bnez	s0,1bf80 <__subtf3+0x386>
   1bfe2:	b7f5                	j	1bfce <__subtf3+0x3d4>
   1bfe4:	0b005b63          	blez	a6,1c09a <__subtf3+0x4a0>
   1bfe8:	060e9a63          	bnez	t4,1c05c <__subtf3+0x462>
   1bfec:	00c765b3          	or	a1,a4,a2
   1bff0:	c80584e3          	beqz	a1,1bc78 <__subtf3+0x7e>
   1bff4:	fff6881b          	addiw	a6,a3,-1
   1bff8:	02081663          	bnez	a6,1c024 <__subtf3+0x42a>
   1bffc:	40c50633          	sub	a2,a0,a2
   1c000:	00c53533          	sltu	a0,a0,a2
   1c004:	40e78733          	sub	a4,a5,a4
   1c008:	8f09                	sub	a4,a4,a0
   1c00a:	85c6                	mv	a1,a7
   1c00c:	8532                	mv	a0,a2
   1c00e:	03375793          	srli	a5,a4,0x33
   1c012:	8b85                	andi	a5,a5,1
   1c014:	34078d63          	beqz	a5,1c36e <__subtf3+0x774>
   1c018:	0736                	slli	a4,a4,0xd
   1c01a:	00d75913          	srli	s2,a4,0xd
   1c01e:	8a2a                	mv	s4,a0
   1c020:	89ae                	mv	s3,a1
   1c022:	ac51                	j	1c2b6 <__subtf3+0x6bc>
   1c024:	cbe885e3          	beq	a7,t5,1bcce <__subtf3+0xd4>
   1c028:	07400693          	li	a3,116
   1c02c:	0706c363          	blt	a3,a6,1c092 <__subtf3+0x498>
   1c030:	03f00693          	li	a3,63
   1c034:	0306ca63          	blt	a3,a6,1c068 <__subtf3+0x46e>
   1c038:	04000593          	li	a1,64
   1c03c:	410585bb          	subw	a1,a1,a6
   1c040:	00b716b3          	sll	a3,a4,a1
   1c044:	01065333          	srl	t1,a2,a6
   1c048:	00b61633          	sll	a2,a2,a1
   1c04c:	0066e6b3          	or	a3,a3,t1
   1c050:	00c03633          	snez	a2,a2
   1c054:	8e55                	or	a2,a2,a3
   1c056:	01075733          	srl	a4,a4,a6
   1c05a:	b74d                	j	1bffc <__subtf3+0x402>
   1c05c:	c7e889e3          	beq	a7,t5,1bcce <__subtf3+0xd4>
   1c060:	4685                	li	a3,1
   1c062:	16ce                	slli	a3,a3,0x33
   1c064:	8f55                	or	a4,a4,a3
   1c066:	b7c9                	j	1c028 <__subtf3+0x42e>
   1c068:	fc08069b          	addiw	a3,a6,-64
   1c06c:	04000313          	li	t1,64
   1c070:	00d756b3          	srl	a3,a4,a3
   1c074:	4581                	li	a1,0
   1c076:	00680863          	beq	a6,t1,1c086 <__subtf3+0x48c>
   1c07a:	08000593          	li	a1,128
   1c07e:	410585bb          	subw	a1,a1,a6
   1c082:	00b715b3          	sll	a1,a4,a1
   1c086:	8e4d                	or	a2,a2,a1
   1c088:	00c03633          	snez	a2,a2
   1c08c:	8e55                	or	a2,a2,a3
   1c08e:	4701                	li	a4,0
   1c090:	b7b5                	j	1bffc <__subtf3+0x402>
   1c092:	8e59                	or	a2,a2,a4
   1c094:	00c03633          	snez	a2,a2
   1c098:	bfdd                	j	1c08e <__subtf3+0x494>
   1c09a:	0e080863          	beqz	a6,1c18a <__subtf3+0x590>
   1c09e:	06089063          	bnez	a7,1c0fe <__subtf3+0x504>
   1c0a2:	00a7e833          	or	a6,a5,a0
   1c0a6:	02081163          	bnez	a6,1c0c8 <__subtf3+0x4ce>
   1c0aa:	2dee9663          	bne	t4,t5,1c376 <__subtf3+0x77c>
   1c0ae:	00c76533          	or	a0,a4,a2
   1c0b2:	30050763          	beqz	a0,1c3c0 <__subtf3+0x7c6>
   1c0b6:	03275793          	srli	a5,a4,0x32
   1c0ba:	8b85                	andi	a5,a5,1
   1c0bc:	30079563          	bnez	a5,1c3c6 <__subtf3+0x7cc>
   1c0c0:	87ba                	mv	a5,a4
   1c0c2:	8532                	mv	a0,a2
   1c0c4:	841a                	mv	s0,t1
   1c0c6:	b975                	j	1bd82 <__subtf3+0x188>
   1c0c8:	fff6c693          	not	a3,a3
   1c0cc:	2681                	sext.w	a3,a3
   1c0ce:	ea89                	bnez	a3,1c0e0 <__subtf3+0x4e6>
   1c0d0:	40a60533          	sub	a0,a2,a0
   1c0d4:	8f1d                	sub	a4,a4,a5
   1c0d6:	00a63633          	sltu	a2,a2,a0
   1c0da:	8f11                	sub	a4,a4,a2
   1c0dc:	841a                	mv	s0,t1
   1c0de:	bf05                	j	1c00e <__subtf3+0x414>
   1c0e0:	03ee9763          	bne	t4,t5,1c10e <__subtf3+0x514>
   1c0e4:	00c76533          	or	a0,a4,a2
   1c0e8:	2c050c63          	beqz	a0,1c3c0 <__subtf3+0x7c6>
   1c0ec:	03275793          	srli	a5,a4,0x32
   1c0f0:	8b85                	andi	a5,a5,1
   1c0f2:	2c079a63          	bnez	a5,1c3c6 <__subtf3+0x7cc>
   1c0f6:	87ba                	mv	a5,a4
   1c0f8:	8532                	mv	a0,a2
   1c0fa:	841a                	mv	s0,t1
   1c0fc:	b965                	j	1bdb4 <__subtf3+0x1ba>
   1c0fe:	ffee83e3          	beq	t4,t5,1c0e4 <__subtf3+0x4ea>
   1c102:	4805                	li	a6,1
   1c104:	184e                	slli	a6,a6,0x33
   1c106:	40d006bb          	negw	a3,a3
   1c10a:	0107e7b3          	or	a5,a5,a6
   1c10e:	07400813          	li	a6,116
   1c112:	06d84863          	blt	a6,a3,1c182 <__subtf3+0x588>
   1c116:	03f00813          	li	a6,63
   1c11a:	02d84d63          	blt	a6,a3,1c154 <__subtf3+0x55a>
   1c11e:	04000893          	li	a7,64
   1c122:	40d888bb          	subw	a7,a7,a3
   1c126:	01179833          	sll	a6,a5,a7
   1c12a:	00d55e33          	srl	t3,a0,a3
   1c12e:	01151533          	sll	a0,a0,a7
   1c132:	01c86833          	or	a6,a6,t3
   1c136:	00a03533          	snez	a0,a0
   1c13a:	00a86533          	or	a0,a6,a0
   1c13e:	00d7d7b3          	srl	a5,a5,a3
   1c142:	40a60533          	sub	a0,a2,a0
   1c146:	40f707b3          	sub	a5,a4,a5
   1c14a:	00a63633          	sltu	a2,a2,a0
   1c14e:	40c78733          	sub	a4,a5,a2
   1c152:	b769                	j	1c0dc <__subtf3+0x4e2>
   1c154:	fc06881b          	addiw	a6,a3,-64
   1c158:	04000e13          	li	t3,64
   1c15c:	0107d833          	srl	a6,a5,a6
   1c160:	4881                	li	a7,0
   1c162:	01c68863          	beq	a3,t3,1c172 <__subtf3+0x578>
   1c166:	08000893          	li	a7,128
   1c16a:	40d886bb          	subw	a3,a7,a3
   1c16e:	00d798b3          	sll	a7,a5,a3
   1c172:	00a8e533          	or	a0,a7,a0
   1c176:	00a03533          	snez	a0,a0
   1c17a:	00a86533          	or	a0,a6,a0
   1c17e:	4781                	li	a5,0
   1c180:	b7c9                	j	1c142 <__subtf3+0x548>
   1c182:	8d5d                	or	a0,a0,a5
   1c184:	00a03533          	snez	a0,a0
   1c188:	bfdd                	j	1c17e <__subtf3+0x584>
   1c18a:	00188593          	addi	a1,a7,1
   1c18e:	ffee0693          	addi	a3,t3,-2
   1c192:	8eed                	and	a3,a3,a1
   1c194:	eee5                	bnez	a3,1c28c <__subtf3+0x692>
   1c196:	00a7ee33          	or	t3,a5,a0
   1c19a:	00c765b3          	or	a1,a4,a2
   1c19e:	0a089463          	bnez	a7,1c246 <__subtf3+0x64c>
   1c1a2:	060e1063          	bnez	t3,1c202 <__subtf3+0x608>
   1c1a6:	1c059e63          	bnez	a1,1c382 <__subtf3+0x788>
   1c1aa:	ffe48413          	addi	s0,s1,-2
   1c1ae:	00143413          	seqz	s0,s0
   1c1b2:	4781                	li	a5,0
   1c1b4:	4501                	li	a0,0
   1c1b6:	00f56733          	or	a4,a0,a5
   1c1ba:	22070263          	beqz	a4,1c3de <__subtf3+0x7e4>
   1c1be:	03f55713          	srli	a4,a0,0x3f
   1c1c2:	00179813          	slli	a6,a5,0x1
   1c1c6:	983a                	add	a6,a6,a4
   1c1c8:	00151713          	slli	a4,a0,0x1
   1c1cc:	00777613          	andi	a2,a4,7
   1c1d0:	4681                	li	a3,0
   1c1d2:	c205                	beqz	a2,1c1f2 <__subtf3+0x5f8>
   1c1d4:	4689                	li	a3,2
   1c1d6:	1cd48763          	beq	s1,a3,1c3a4 <__subtf3+0x7aa>
   1c1da:	468d                	li	a3,3
   1c1dc:	1ad48963          	beq	s1,a3,1c38e <__subtf3+0x794>
   1c1e0:	4685                	li	a3,1
   1c1e2:	e881                	bnez	s1,1c1f2 <__subtf3+0x5f8>
   1c1e4:	00f77613          	andi	a2,a4,15
   1c1e8:	4591                	li	a1,4
   1c1ea:	ffc73713          	sltiu	a4,a4,-4
   1c1ee:	1ab61563          	bne	a2,a1,1c398 <__subtf3+0x79e>
   1c1f2:	03485813          	srli	a6,a6,0x34
   1c1f6:	00184813          	xori	a6,a6,1
   1c1fa:	00187813          	andi	a6,a6,1
   1c1fe:	4581                	li	a1,0
   1c200:	b159                	j	1be86 <__subtf3+0x28c>
   1c202:	d9d5                	beqz	a1,1c1b6 <__subtf3+0x5bc>
   1c204:	40c505b3          	sub	a1,a0,a2
   1c208:	00b53833          	sltu	a6,a0,a1
   1c20c:	40e786b3          	sub	a3,a5,a4
   1c210:	410686b3          	sub	a3,a3,a6
   1c214:	0336d813          	srli	a6,a3,0x33
   1c218:	00187813          	andi	a6,a6,1
   1c21c:	00080b63          	beqz	a6,1c232 <__subtf3+0x638>
   1c220:	40a60533          	sub	a0,a2,a0
   1c224:	40f707b3          	sub	a5,a4,a5
   1c228:	00a63633          	sltu	a2,a2,a0
   1c22c:	8f91                	sub	a5,a5,a2
   1c22e:	841a                	mv	s0,t1
   1c230:	b759                	j	1c1b6 <__subtf3+0x5bc>
   1c232:	00d5e533          	or	a0,a1,a3
   1c236:	14051963          	bnez	a0,1c388 <__subtf3+0x78e>
   1c23a:	ffe48413          	addi	s0,s1,-2
   1c23e:	00143413          	seqz	s0,s0
   1c242:	4781                	li	a5,0
   1c244:	bf8d                	j	1c1b6 <__subtf3+0x5bc>
   1c246:	03e89563          	bne	a7,t5,1c270 <__subtf3+0x676>
   1c24a:	1c0e0863          	beqz	t3,1c41a <__subtf3+0x820>
   1c24e:	0327d693          	srli	a3,a5,0x32
   1c252:	8a85                	andi	a3,a3,1
   1c254:	0016b693          	seqz	a3,a3
   1c258:	0692                	slli	a3,a3,0x4
   1c25a:	031e9663          	bne	t4,a7,1c286 <__subtf3+0x68c>
   1c25e:	cd81                	beqz	a1,1c276 <__subtf3+0x67c>
   1c260:	03275893          	srli	a7,a4,0x32
   1c264:	0018f893          	andi	a7,a7,1
   1c268:	00089763          	bnez	a7,1c276 <__subtf3+0x67c>
   1c26c:	46c1                	li	a3,16
   1c26e:	a021                	j	1c276 <__subtf3+0x67c>
   1c270:	4681                	li	a3,0
   1c272:	ffee86e3          	beq	t4,t5,1c25e <__subtf3+0x664>
   1c276:	000e1863          	bnez	t3,1c286 <__subtf3+0x68c>
   1c27a:	14058a63          	beqz	a1,1c3ce <__subtf3+0x7d4>
   1c27e:	87ba                	mv	a5,a4
   1c280:	8532                	mv	a0,a2
   1c282:	841a                	mv	s0,t1
   1c284:	b999                	j	1beda <__subtf3+0x2e0>
   1c286:	c4058ae3          	beqz	a1,1beda <__subtf3+0x2e0>
   1c28a:	b9a9                	j	1bee4 <__subtf3+0x2ea>
   1c28c:	40c50a33          	sub	s4,a0,a2
   1c290:	014536b3          	sltu	a3,a0,s4
   1c294:	40e78933          	sub	s2,a5,a4
   1c298:	40d90933          	sub	s2,s2,a3
   1c29c:	03395693          	srli	a3,s2,0x33
   1c2a0:	8a85                	andi	a3,a3,1
   1c2a2:	cea5                	beqz	a3,1c31a <__subtf3+0x720>
   1c2a4:	40a60a33          	sub	s4,a2,a0
   1c2a8:	40f707b3          	sub	a5,a4,a5
   1c2ac:	01463633          	sltu	a2,a2,s4
   1c2b0:	40c78933          	sub	s2,a5,a2
   1c2b4:	841a                	mv	s0,t1
   1c2b6:	06090663          	beqz	s2,1c322 <__subtf3+0x728>
   1c2ba:	854a                	mv	a0,s2
   1c2bc:	54c000ef          	jal	ra,1c808 <__clzdi2>
   1c2c0:	2501                	sext.w	a0,a0
   1c2c2:	ff45059b          	addiw	a1,a0,-12
   1c2c6:	03f00793          	li	a5,63
   1c2ca:	86ae                	mv	a3,a1
   1c2cc:	06b7c163          	blt	a5,a1,1c32e <__subtf3+0x734>
   1c2d0:	04000793          	li	a5,64
   1c2d4:	9f8d                	subw	a5,a5,a1
   1c2d6:	00b91933          	sll	s2,s2,a1
   1c2da:	00fa57b3          	srl	a5,s4,a5
   1c2de:	0127e933          	or	s2,a5,s2
   1c2e2:	00ba1533          	sll	a0,s4,a1
   1c2e6:	0735cd63          	blt	a1,s3,1c360 <__subtf3+0x766>
   1c2ea:	413686bb          	subw	a3,a3,s3
   1c2ee:	0016879b          	addiw	a5,a3,1
   1c2f2:	03f00713          	li	a4,63
   1c2f6:	04f74263          	blt	a4,a5,1c33a <__subtf3+0x740>
   1c2fa:	04000713          	li	a4,64
   1c2fe:	9f1d                	subw	a4,a4,a5
   1c300:	00f55633          	srl	a2,a0,a5
   1c304:	00e916b3          	sll	a3,s2,a4
   1c308:	00e51533          	sll	a0,a0,a4
   1c30c:	8ed1                	or	a3,a3,a2
   1c30e:	00a03533          	snez	a0,a0
   1c312:	8d55                	or	a0,a0,a3
   1c314:	00f957b3          	srl	a5,s2,a5
   1c318:	bd79                	j	1c1b6 <__subtf3+0x5bc>
   1c31a:	012a6533          	or	a0,s4,s2
   1c31e:	fd41                	bnez	a0,1c2b6 <__subtf3+0x6bc>
   1c320:	bf29                	j	1c23a <__subtf3+0x640>
   1c322:	8552                	mv	a0,s4
   1c324:	4e4000ef          	jal	ra,1c808 <__clzdi2>
   1c328:	0405051b          	addiw	a0,a0,64
   1c32c:	bf59                	j	1c2c2 <__subtf3+0x6c8>
   1c32e:	fb45091b          	addiw	s2,a0,-76
   1c332:	012a1933          	sll	s2,s4,s2
   1c336:	4501                	li	a0,0
   1c338:	b77d                	j	1c2e6 <__subtf3+0x6ec>
   1c33a:	fc16869b          	addiw	a3,a3,-63
   1c33e:	04000593          	li	a1,64
   1c342:	00d956b3          	srl	a3,s2,a3
   1c346:	4701                	li	a4,0
   1c348:	00b78763          	beq	a5,a1,1c356 <__subtf3+0x75c>
   1c34c:	08000713          	li	a4,128
   1c350:	9f1d                	subw	a4,a4,a5
   1c352:	00e91733          	sll	a4,s2,a4
   1c356:	8d59                	or	a0,a0,a4
   1c358:	00a03533          	snez	a0,a0
   1c35c:	8d55                	or	a0,a0,a3
   1c35e:	b5d5                	j	1c242 <__subtf3+0x648>
   1c360:	577d                	li	a4,-1
   1c362:	174e                	slli	a4,a4,0x33
   1c364:	177d                	addi	a4,a4,-1
   1c366:	40b985b3          	sub	a1,s3,a1
   1c36a:	00e97733          	and	a4,s2,a4
   1c36e:	87ba                	mv	a5,a4
   1c370:	e40583e3          	beqz	a1,1c1b6 <__subtf3+0x5bc>
   1c374:	ba89                	j	1bcc6 <__subtf3+0xcc>
   1c376:	8532                	mv	a0,a2
   1c378:	841a                	mv	s0,t1
   1c37a:	bfd5                	j	1c36e <__subtf3+0x774>
   1c37c:	87ba                	mv	a5,a4
   1c37e:	8532                	mv	a0,a2
   1c380:	bd1d                	j	1c1b6 <__subtf3+0x5bc>
   1c382:	87ba                	mv	a5,a4
   1c384:	8532                	mv	a0,a2
   1c386:	b565                	j	1c22e <__subtf3+0x634>
   1c388:	87b6                	mv	a5,a3
   1c38a:	852e                	mv	a0,a1
   1c38c:	b52d                	j	1c1b6 <__subtf3+0x5bc>
   1c38e:	4685                	li	a3,1
   1c390:	e60411e3          	bnez	s0,1c1f2 <__subtf3+0x5f8>
   1c394:	ff873713          	sltiu	a4,a4,-8
   1c398:	00174713          	xori	a4,a4,1
   1c39c:	1702                	slli	a4,a4,0x20
   1c39e:	9301                	srli	a4,a4,0x20
   1c3a0:	983a                	add	a6,a6,a4
   1c3a2:	bd81                	j	1c1f2 <__subtf3+0x5f8>
   1c3a4:	4685                	li	a3,1
   1c3a6:	e40406e3          	beqz	s0,1c1f2 <__subtf3+0x5f8>
   1c3aa:	b7ed                	j	1c394 <__subtf3+0x79a>
   1c3ac:	4781                	li	a5,0
   1c3ae:	4681                	li	a3,0
   1c3b0:	b681                	j	1bef0 <__subtf3+0x2f6>
   1c3b2:	87ba                	mv	a5,a4
   1c3b4:	8532                	mv	a0,a2
   1c3b6:	ba01                	j	1bcc6 <__subtf3+0xcc>
   1c3b8:	4781                	li	a5,0
   1c3ba:	4501                	li	a0,0
   1c3bc:	85c6                	mv	a1,a7
   1c3be:	bfc5                	j	1c3ae <__subtf3+0x7b4>
   1c3c0:	4781                	li	a5,0
   1c3c2:	841a                	mv	s0,t1
   1c3c4:	b7ed                	j	1c3ae <__subtf3+0x7b4>
   1c3c6:	87ba                	mv	a5,a4
   1c3c8:	8532                	mv	a0,a2
   1c3ca:	841a                	mv	s0,t1
   1c3cc:	b8ed                	j	1bcc6 <__subtf3+0xcc>
   1c3ce:	4785                	li	a5,1
   1c3d0:	65a1                	lui	a1,0x8
   1c3d2:	4501                	li	a0,0
   1c3d4:	4401                	li	s0,0
   1c3d6:	17ca                	slli	a5,a5,0x32
   1c3d8:	15fd                	addi	a1,a1,-1
   1c3da:	46c1                	li	a3,16
   1c3dc:	be11                	j	1bef0 <__subtf3+0x2f6>
   1c3de:	4781                	li	a5,0
   1c3e0:	4501                	li	a0,0
   1c3e2:	4581                	li	a1,0
   1c3e4:	b7e9                	j	1c3ae <__subtf3+0x7b4>
   1c3e6:	e409                	bnez	s0,1c3f0 <__subtf3+0x7f6>
   1c3e8:	00850713          	addi	a4,a0,8
   1c3ec:	b6f9                	j	1bfba <__subtf3+0x3c0>
   1c3ee:	fc6d                	bnez	s0,1c3e8 <__subtf3+0x7ee>
   1c3f0:	aa0814e3          	bnez	a6,1be98 <__subtf3+0x29e>
   1c3f4:	bcf5                	j	1bef0 <__subtf3+0x2f6>
   1c3f6:	4501                	li	a0,0
   1c3f8:	cc89                	beqz	s1,1c412 <__subtf3+0x818>
   1c3fa:	478d                	li	a5,3
   1c3fc:	00f49763          	bne	s1,a5,1c40a <__subtf3+0x810>
   1c400:	c809                	beqz	s0,1c412 <__subtf3+0x818>
   1c402:	557d                	li	a0,-1
   1c404:	ffe70593          	addi	a1,a4,-2 # 7ffe <register_fini-0x80ea>
   1c408:	a029                	j	1c412 <__subtf3+0x818>
   1c40a:	4789                	li	a5,2
   1c40c:	fef49be3          	bne	s1,a5,1c402 <__subtf3+0x808>
   1c410:	d86d                	beqz	s0,1c402 <__subtf3+0x808>
   1c412:	0056e693          	ori	a3,a3,5
   1c416:	87aa                	mv	a5,a0
   1c418:	bcd5                	j	1bf0c <__subtf3+0x312>
   1c41a:	4681                	li	a3,0
   1c41c:	e51e9fe3          	bne	t4,a7,1c27a <__subtf3+0x680>
   1c420:	bd3d                	j	1c25e <__subtf3+0x664>
   1c422:	4681                	li	a3,0
   1c424:	ab1e99e3          	bne	t4,a7,1bed6 <__subtf3+0x2dc>
   1c428:	b479                	j	1beb6 <__subtf3+0x2bc>

000000000001c42a <__fixtfsi>:
   1c42a:	882a                	mv	a6,a0
   1c42c:	002027f3          	frrm	a5
   1c430:	6611                	lui	a2,0x4
   1c432:	01059713          	slli	a4,a1,0x10
   1c436:	00159693          	slli	a3,a1,0x1
   1c43a:	01075793          	srli	a5,a4,0x10
   1c43e:	92c5                	srli	a3,a3,0x31
   1c440:	ffe60713          	addi	a4,a2,-2 # 3ffe <register_fini-0xc0ea>
   1c444:	91fd                	srli	a1,a1,0x3f
   1c446:	00d74763          	blt	a4,a3,1c454 <__fixtfsi+0x2a>
   1c44a:	e6b5                	bnez	a3,1c4b6 <__fixtfsi+0x8c>
   1c44c:	8fc9                	or	a5,a5,a0
   1c44e:	4501                	li	a0,0
   1c450:	eb8d                	bnez	a5,1c482 <__fixtfsi+0x58>
   1c452:	8082                	ret
   1c454:	01d60713          	addi	a4,a2,29
   1c458:	02d75763          	bge	a4,a3,1c486 <__fixtfsi+0x5c>
   1c45c:	80000737          	lui	a4,0x80000
   1c460:	fff74713          	not	a4,a4
   1c464:	00b7053b          	addw	a0,a4,a1
   1c468:	c9a9                	beqz	a1,1c4ba <__fixtfsi+0x90>
   1c46a:	01e60713          	addi	a4,a2,30
   1c46e:	4641                	li	a2,16
   1c470:	04e69663          	bne	a3,a4,1c4bc <__fixtfsi+0x92>
   1c474:	0117d713          	srli	a4,a5,0x11
   1c478:	e331                	bnez	a4,1c4bc <__fixtfsi+0x92>
   1c47a:	17be                	slli	a5,a5,0x2f
   1c47c:	0107e7b3          	or	a5,a5,a6
   1c480:	cb95                	beqz	a5,1c4b4 <__fixtfsi+0x8a>
   1c482:	4605                	li	a2,1
   1c484:	a825                	j	1c4bc <__fixtfsi+0x92>
   1c486:	4505                	li	a0,1
   1c488:	1542                	slli	a0,a0,0x30
   1c48a:	8fc9                	or	a5,a5,a0
   1c48c:	7771                	lui	a4,0xffffc
   1c48e:	6511                	lui	a0,0x4
   1c490:	02f5051b          	addiw	a0,a0,47
   1c494:	2745                	addiw	a4,a4,17
   1c496:	9f35                	addw	a4,a4,a3
   1c498:	40d506bb          	subw	a3,a0,a3
   1c49c:	00e79733          	sll	a4,a5,a4
   1c4a0:	00d7d7b3          	srl	a5,a5,a3
   1c4a4:	01076733          	or	a4,a4,a6
   1c4a8:	0007851b          	sext.w	a0,a5
   1c4ac:	c199                	beqz	a1,1c4b2 <__fixtfsi+0x88>
   1c4ae:	40a0053b          	negw	a0,a0
   1c4b2:	fb61                	bnez	a4,1c482 <__fixtfsi+0x58>
   1c4b4:	8082                	ret
   1c4b6:	4501                	li	a0,0
   1c4b8:	b7e9                	j	1c482 <__fixtfsi+0x58>
   1c4ba:	4641                	li	a2,16
   1c4bc:	00162073          	csrs	fflags,a2
   1c4c0:	bfd5                	j	1c4b4 <__fixtfsi+0x8a>

000000000001c4c2 <__floatsitf>:
   1c4c2:	1101                	addi	sp,sp,-32
   1c4c4:	ec06                	sd	ra,24(sp)
   1c4c6:	e822                	sd	s0,16(sp)
   1c4c8:	e426                	sd	s1,8(sp)
   1c4ca:	c521                	beqz	a0,1c512 <__floatsitf+0x50>
   1c4cc:	0005079b          	sext.w	a5,a0
   1c4d0:	03f55493          	srli	s1,a0,0x3f
   1c4d4:	00055463          	bgez	a0,1c4dc <__floatsitf+0x1a>
   1c4d8:	40f007bb          	negw	a5,a5
   1c4dc:	02079413          	slli	s0,a5,0x20
   1c4e0:	9001                	srli	s0,s0,0x20
   1c4e2:	8522                	mv	a0,s0
   1c4e4:	324000ef          	jal	ra,1c808 <__clzdi2>
   1c4e8:	6591                	lui	a1,0x4
   1c4ea:	03e5859b          	addiw	a1,a1,62
   1c4ee:	ff15079b          	addiw	a5,a0,-15
   1c4f2:	9d89                	subw	a1,a1,a0
   1c4f4:	00f417b3          	sll	a5,s0,a5
   1c4f8:	60e2                	ld	ra,24(sp)
   1c4fa:	6442                	ld	s0,16(sp)
   1c4fc:	00f4949b          	slliw	s1,s1,0xf
   1c500:	8dc5                	or	a1,a1,s1
   1c502:	07c2                	slli	a5,a5,0x10
   1c504:	15c2                	slli	a1,a1,0x30
   1c506:	83c1                	srli	a5,a5,0x10
   1c508:	64a2                	ld	s1,8(sp)
   1c50a:	4501                	li	a0,0
   1c50c:	8ddd                	or	a1,a1,a5
   1c50e:	6105                	addi	sp,sp,32
   1c510:	8082                	ret
   1c512:	4781                	li	a5,0
   1c514:	4581                	li	a1,0
   1c516:	4481                	li	s1,0
   1c518:	b7c5                	j	1c4f8 <__floatsitf+0x36>

000000000001c51a <__extenddftf2>:
   1c51a:	1101                	addi	sp,sp,-32
   1c51c:	e20507d3          	fmv.x.d	a5,fa0
   1c520:	ec06                	sd	ra,24(sp)
   1c522:	e822                	sd	s0,16(sp)
   1c524:	e426                	sd	s1,8(sp)
   1c526:	00202773          	frrm	a4
   1c52a:	0347d513          	srli	a0,a5,0x34
   1c52e:	7ff57513          	andi	a0,a0,2047
   1c532:	00c79413          	slli	s0,a5,0xc
   1c536:	03f7d493          	srli	s1,a5,0x3f
   1c53a:	00150793          	addi	a5,a0,1 # 4001 <register_fini-0xc0e7>
   1c53e:	7fe7f793          	andi	a5,a5,2046
   1c542:	8031                	srli	s0,s0,0xc
   1c544:	cb91                	beqz	a5,1c558 <__extenddftf2+0x3e>
   1c546:	6791                	lui	a5,0x4
   1c548:	c0078793          	addi	a5,a5,-1024 # 3c00 <register_fini-0xc4e8>
   1c54c:	00445593          	srli	a1,s0,0x4
   1c550:	953e                	add	a0,a0,a5
   1c552:	1472                	slli	s0,s0,0x3c
   1c554:	4781                	li	a5,0
   1c556:	a8b9                	j	1c5b4 <__extenddftf2+0x9a>
   1c558:	ed1d                	bnez	a0,1c596 <__extenddftf2+0x7c>
   1c55a:	4581                	li	a1,0
   1c55c:	dc65                	beqz	s0,1c554 <__extenddftf2+0x3a>
   1c55e:	8522                	mv	a0,s0
   1c560:	2a8000ef          	jal	ra,1c808 <__clzdi2>
   1c564:	0005071b          	sext.w	a4,a0
   1c568:	47b9                	li	a5,14
   1c56a:	02e7c063          	blt	a5,a4,1c58a <__extenddftf2+0x70>
   1c56e:	45bd                	li	a1,15
   1c570:	9d89                	subw	a1,a1,a0
   1c572:	0315079b          	addiw	a5,a0,49
   1c576:	00b455b3          	srl	a1,s0,a1
   1c57a:	00f41433          	sll	s0,s0,a5
   1c57e:	6791                	lui	a5,0x4
   1c580:	c0c7879b          	addiw	a5,a5,-1012
   1c584:	40a7853b          	subw	a0,a5,a0
   1c588:	b7f1                	j	1c554 <__extenddftf2+0x3a>
   1c58a:	ff15059b          	addiw	a1,a0,-15
   1c58e:	00b415b3          	sll	a1,s0,a1
   1c592:	4401                	li	s0,0
   1c594:	b7ed                	j	1c57e <__extenddftf2+0x64>
   1c596:	cc1d                	beqz	s0,1c5d4 <__extenddftf2+0xba>
   1c598:	4705                	li	a4,1
   1c59a:	03371793          	slli	a5,a4,0x33
   1c59e:	8fe1                	and	a5,a5,s0
   1c5a0:	00445593          	srli	a1,s0,0x4
   1c5a4:	0017b793          	seqz	a5,a5
   1c5a8:	173e                	slli	a4,a4,0x2f
   1c5aa:	6521                	lui	a0,0x8
   1c5ac:	0792                	slli	a5,a5,0x4
   1c5ae:	8dd9                	or	a1,a1,a4
   1c5b0:	1472                	slli	s0,s0,0x3c
   1c5b2:	157d                	addi	a0,a0,-1
   1c5b4:	00f4949b          	slliw	s1,s1,0xf
   1c5b8:	05c2                	slli	a1,a1,0x10
   1c5ba:	8d45                	or	a0,a0,s1
   1c5bc:	1542                	slli	a0,a0,0x30
   1c5be:	81c1                	srli	a1,a1,0x10
   1c5c0:	8dc9                	or	a1,a1,a0
   1c5c2:	c399                	beqz	a5,1c5c8 <__extenddftf2+0xae>
   1c5c4:	0017a073          	csrs	fflags,a5
   1c5c8:	60e2                	ld	ra,24(sp)
   1c5ca:	8522                	mv	a0,s0
   1c5cc:	6442                	ld	s0,16(sp)
   1c5ce:	64a2                	ld	s1,8(sp)
   1c5d0:	6105                	addi	sp,sp,32
   1c5d2:	8082                	ret
   1c5d4:	6521                	lui	a0,0x8
   1c5d6:	4581                	li	a1,0
   1c5d8:	157d                	addi	a0,a0,-1
   1c5da:	bfad                	j	1c554 <__extenddftf2+0x3a>

000000000001c5dc <__trunctfdf2>:
   1c5dc:	00202873          	frrm	a6
   1c5e0:	6321                	lui	t1,0x8
   1c5e2:	0305d713          	srli	a4,a1,0x30
   1c5e6:	fff30e13          	addi	t3,t1,-1 # 7fff <register_fini-0x80e9>
   1c5ea:	01c77633          	and	a2,a4,t3
   1c5ee:	03f5d693          	srli	a3,a1,0x3f
   1c5f2:	00160793          	addi	a5,a2,1
   1c5f6:	05c2                	slli	a1,a1,0x10
   1c5f8:	1379                	addi	t1,t1,-2
   1c5fa:	81b5                	srli	a1,a1,0xd
   1c5fc:	03d55713          	srli	a4,a0,0x3d
   1c600:	0067f333          	and	t1,a5,t1
   1c604:	2801                	sext.w	a6,a6
   1c606:	8f4d                	or	a4,a4,a1
   1c608:	00351e93          	slli	t4,a0,0x3
   1c60c:	16030f63          	beqz	t1,1c78a <__trunctfdf2+0x1ae>
   1c610:	77f1                	lui	a5,0xffffc
   1c612:	40078793          	addi	a5,a5,1024 # ffffffffffffc400 <__BSS_END__+0xfffffffffffdcae8>
   1c616:	963e                	add	a2,a2,a5
   1c618:	7fe00793          	li	a5,2046
   1c61c:	08c7de63          	bge	a5,a2,1c6b8 <__trunctfdf2+0xdc>
   1c620:	04080363          	beqz	a6,1c666 <__trunctfdf2+0x8a>
   1c624:	478d                	li	a5,3
   1c626:	02f81c63          	bne	a6,a5,1c65e <__trunctfdf2+0x82>
   1c62a:	ce95                	beqz	a3,1c666 <__trunctfdf2+0x8a>
   1c62c:	57fd                	li	a5,-1
   1c62e:	7fe00613          	li	a2,2046
   1c632:	4701                	li	a4,0
   1c634:	4895                	li	a7,5
   1c636:	4589                	li	a1,2
   1c638:	0018e893          	ori	a7,a7,1
   1c63c:	1ab80163          	beq	a6,a1,1c7de <__trunctfdf2+0x202>
   1c640:	458d                	li	a1,3
   1c642:	18b80a63          	beq	a6,a1,1c7d6 <__trunctfdf2+0x1fa>
   1c646:	00081863          	bnez	a6,1c656 <__trunctfdf2+0x7a>
   1c64a:	00f7f593          	andi	a1,a5,15
   1c64e:	4511                	li	a0,4
   1c650:	00a58363          	beq	a1,a0,1c656 <__trunctfdf2+0x7a>
   1c654:	0791                	addi	a5,a5,4
   1c656:	cf01                	beqz	a4,1c66e <__trunctfdf2+0x92>
   1c658:	0028e893          	ori	a7,a7,2
   1c65c:	a809                	j	1c66e <__trunctfdf2+0x92>
   1c65e:	4789                	li	a5,2
   1c660:	fcf816e3          	bne	a6,a5,1c62c <__trunctfdf2+0x50>
   1c664:	d6e1                	beqz	a3,1c62c <__trunctfdf2+0x50>
   1c666:	4781                	li	a5,0
   1c668:	7ff00613          	li	a2,2047
   1c66c:	4895                	li	a7,5
   1c66e:	0377d713          	srli	a4,a5,0x37
   1c672:	8b05                	andi	a4,a4,1
   1c674:	cb11                	beqz	a4,1c688 <__trunctfdf2+0xac>
   1c676:	0605                	addi	a2,a2,1
   1c678:	7ff00713          	li	a4,2047
   1c67c:	16e60463          	beq	a2,a4,1c7e4 <__trunctfdf2+0x208>
   1c680:	55fd                	li	a1,-1
   1c682:	15de                	slli	a1,a1,0x37
   1c684:	15fd                	addi	a1,a1,-1
   1c686:	8fed                	and	a5,a5,a1
   1c688:	7ff00713          	li	a4,2047
   1c68c:	838d                	srli	a5,a5,0x3
   1c68e:	00e61663          	bne	a2,a4,1c69a <__trunctfdf2+0xbe>
   1c692:	c781                	beqz	a5,1c69a <__trunctfdf2+0xbe>
   1c694:	4785                	li	a5,1
   1c696:	17ce                	slli	a5,a5,0x33
   1c698:	4681                	li	a3,0
   1c69a:	7ff67713          	andi	a4,a2,2047
   1c69e:	07b2                	slli	a5,a5,0xc
   1c6a0:	1752                	slli	a4,a4,0x34
   1c6a2:	83b1                	srli	a5,a5,0xc
   1c6a4:	8fd9                	or	a5,a5,a4
   1c6a6:	16fe                	slli	a3,a3,0x3f
   1c6a8:	8fd5                	or	a5,a5,a3
   1c6aa:	00088463          	beqz	a7,1c6b2 <__trunctfdf2+0xd6>
   1c6ae:	0018a073          	csrs	fflags,a7
   1c6b2:	f2078553          	fmv.d.x	fa0,a5
   1c6b6:	8082                	ret
   1c6b8:	0ac04563          	bgtz	a2,1c762 <__trunctfdf2+0x186>
   1c6bc:	fcc00793          	li	a5,-52
   1c6c0:	10f64063          	blt	a2,a5,1c7c0 <__trunctfdf2+0x1e4>
   1c6c4:	4785                	li	a5,1
   1c6c6:	17ce                	slli	a5,a5,0x33
   1c6c8:	03d00e13          	li	t3,61
   1c6cc:	8f5d                	or	a4,a4,a5
   1c6ce:	40ce0e33          	sub	t3,t3,a2
   1c6d2:	03f00793          	li	a5,63
   1c6d6:	0006089b          	sext.w	a7,a2
   1c6da:	05c7cf63          	blt	a5,t3,1c738 <__trunctfdf2+0x15c>
   1c6de:	0038859b          	addiw	a1,a7,3
   1c6e2:	03d00613          	li	a2,61
   1c6e6:	4116063b          	subw	a2,a2,a7
   1c6ea:	00be97b3          	sll	a5,t4,a1
   1c6ee:	00ced633          	srl	a2,t4,a2
   1c6f2:	00f037b3          	snez	a5,a5
   1c6f6:	8fd1                	or	a5,a5,a2
   1c6f8:	00b71733          	sll	a4,a4,a1
   1c6fc:	8fd9                	or	a5,a5,a4
   1c6fe:	4601                	li	a2,0
   1c700:	cbc9                	beqz	a5,1c792 <__trunctfdf2+0x1b6>
   1c702:	00179713          	slli	a4,a5,0x1
   1c706:	00777613          	andi	a2,a4,7
   1c70a:	4881                	li	a7,0
   1c70c:	c205                	beqz	a2,1c72c <__trunctfdf2+0x150>
   1c70e:	4609                	li	a2,2
   1c710:	0ac80d63          	beq	a6,a2,1c7ca <__trunctfdf2+0x1ee>
   1c714:	460d                	li	a2,3
   1c716:	4885                	li	a7,1
   1c718:	0ac80663          	beq	a6,a2,1c7c4 <__trunctfdf2+0x1e8>
   1c71c:	00081863          	bnez	a6,1c72c <__trunctfdf2+0x150>
   1c720:	00f77613          	andi	a2,a4,15
   1c724:	4591                	li	a1,4
   1c726:	00b60363          	beq	a2,a1,1c72c <__trunctfdf2+0x150>
   1c72a:	0711                	addi	a4,a4,4
   1c72c:	9361                	srli	a4,a4,0x38
   1c72e:	00174713          	xori	a4,a4,1
   1c732:	8b05                	andi	a4,a4,1
   1c734:	4601                	li	a2,0
   1c736:	a089                	j	1c778 <__trunctfdf2+0x19c>
   1c738:	5375                	li	t1,-3
   1c73a:	4113033b          	subw	t1,t1,a7
   1c73e:	04000793          	li	a5,64
   1c742:	00675333          	srl	t1,a4,t1
   1c746:	4581                	li	a1,0
   1c748:	00fe0663          	beq	t3,a5,1c754 <__trunctfdf2+0x178>
   1c74c:	0438861b          	addiw	a2,a7,67
   1c750:	00c715b3          	sll	a1,a4,a2
   1c754:	01d5e5b3          	or	a1,a1,t4
   1c758:	00b035b3          	snez	a1,a1
   1c75c:	00b367b3          	or	a5,t1,a1
   1c760:	bf79                	j	1c6fe <__trunctfdf2+0x122>
   1c762:	00751793          	slli	a5,a0,0x7
   1c766:	00f037b3          	snez	a5,a5
   1c76a:	03ced593          	srli	a1,t4,0x3c
   1c76e:	0712                	slli	a4,a4,0x4
   1c770:	8fcd                	or	a5,a5,a1
   1c772:	8fd9                	or	a5,a5,a4
   1c774:	4881                	li	a7,0
   1c776:	4701                	li	a4,0
   1c778:	0077f593          	andi	a1,a5,7
   1c77c:	ea059de3          	bnez	a1,1c636 <__trunctfdf2+0x5a>
   1c780:	ee0707e3          	beqz	a4,1c66e <__trunctfdf2+0x92>
   1c784:	0018f713          	andi	a4,a7,1
   1c788:	b5f9                	j	1c656 <__trunctfdf2+0x7a>
   1c78a:	01d767b3          	or	a5,a4,t4
   1c78e:	e601                	bnez	a2,1c796 <__trunctfdf2+0x1ba>
   1c790:	eb85                	bnez	a5,1c7c0 <__trunctfdf2+0x1e4>
   1c792:	4881                	li	a7,0
   1c794:	bde9                	j	1c66e <__trunctfdf2+0x92>
   1c796:	cf8d                	beqz	a5,1c7d0 <__trunctfdf2+0x1f4>
   1c798:	4881                	li	a7,0
   1c79a:	01c61763          	bne	a2,t3,1c7a8 <__trunctfdf2+0x1cc>
   1c79e:	03275893          	srli	a7,a4,0x32
   1c7a2:	0018b893          	seqz	a7,a7
   1c7a6:	0892                	slli	a7,a7,0x4
   1c7a8:	03ced793          	srli	a5,t4,0x3c
   1c7ac:	0712                	slli	a4,a4,0x4
   1c7ae:	8f5d                	or	a4,a4,a5
   1c7b0:	4785                	li	a5,1
   1c7b2:	9b61                	andi	a4,a4,-8
   1c7b4:	17da                	slli	a5,a5,0x36
   1c7b6:	8fd9                	or	a5,a5,a4
   1c7b8:	7ff00613          	li	a2,2047
   1c7bc:	4701                	li	a4,0
   1c7be:	bf6d                	j	1c778 <__trunctfdf2+0x19c>
   1c7c0:	4785                	li	a5,1
   1c7c2:	b781                	j	1c702 <__trunctfdf2+0x126>
   1c7c4:	f6a5                	bnez	a3,1c72c <__trunctfdf2+0x150>
   1c7c6:	0721                	addi	a4,a4,8
   1c7c8:	b795                	j	1c72c <__trunctfdf2+0x150>
   1c7ca:	4885                	li	a7,1
   1c7cc:	d2a5                	beqz	a3,1c72c <__trunctfdf2+0x150>
   1c7ce:	bfe5                	j	1c7c6 <__trunctfdf2+0x1ea>
   1c7d0:	7ff00613          	li	a2,2047
   1c7d4:	bf7d                	j	1c792 <__trunctfdf2+0x1b6>
   1c7d6:	e80690e3          	bnez	a3,1c656 <__trunctfdf2+0x7a>
   1c7da:	07a1                	addi	a5,a5,8
   1c7dc:	bdad                	j	1c656 <__trunctfdf2+0x7a>
   1c7de:	e6068ce3          	beqz	a3,1c656 <__trunctfdf2+0x7a>
   1c7e2:	bfe5                	j	1c7da <__trunctfdf2+0x1fe>
   1c7e4:	4781                	li	a5,0
   1c7e6:	00080e63          	beqz	a6,1c802 <__trunctfdf2+0x226>
   1c7ea:	470d                	li	a4,3
   1c7ec:	00e81763          	bne	a6,a4,1c7fa <__trunctfdf2+0x21e>
   1c7f0:	ca89                	beqz	a3,1c802 <__trunctfdf2+0x226>
   1c7f2:	57fd                	li	a5,-1
   1c7f4:	7fe00613          	li	a2,2046
   1c7f8:	a029                	j	1c802 <__trunctfdf2+0x226>
   1c7fa:	4709                	li	a4,2
   1c7fc:	fee81be3          	bne	a6,a4,1c7f2 <__trunctfdf2+0x216>
   1c800:	daed                	beqz	a3,1c7f2 <__trunctfdf2+0x216>
   1c802:	0058e893          	ori	a7,a7,5
   1c806:	b549                	j	1c688 <__trunctfdf2+0xac>

000000000001c808 <__clzdi2>:
   1c808:	03800793          	li	a5,56
   1c80c:	00f55733          	srl	a4,a0,a5
   1c810:	0ff77713          	andi	a4,a4,255
   1c814:	e319                	bnez	a4,1c81a <__clzdi2+0x12>
   1c816:	17e1                	addi	a5,a5,-8
   1c818:	fbf5                	bnez	a5,1c80c <__clzdi2+0x4>
   1c81a:	6775                	lui	a4,0x1d
   1c81c:	04000693          	li	a3,64
   1c820:	8e9d                	sub	a3,a3,a5
   1c822:	00f55533          	srl	a0,a0,a5
   1c826:	59070793          	addi	a5,a4,1424 # 1d590 <__clz_tab>
   1c82a:	953e                	add	a0,a0,a5
   1c82c:	00054503          	lbu	a0,0(a0) # 8000 <register_fini-0x80e8>
   1c830:	40a6853b          	subw	a0,a3,a0
   1c834:	8082                	ret
